
main.elf:     file format elf32-avr

Sections:
Idx Name          Size      VMA       LMA       File off  Algn
  0 .text         000067d2  00000000  00000000  000000b4  2**1
                  CONTENTS, ALLOC, LOAD, READONLY, CODE
  1 .data         00000316  00800060  000067d2  00006886  2**0
                  CONTENTS, ALLOC, LOAD, DATA
  2 .bss          0000004d  00800376  00800376  00006b9c  2**0
                  ALLOC
  3 .eeprom       0000000f  00810000  00810000  00006b9c  2**0
                  CONTENTS, ALLOC, LOAD, DATA
  4 .stab         00002e20  00000000  00000000  00006bac  2**2
                  CONTENTS, READONLY, DEBUGGING
  5 .stabstr      00000cfd  00000000  00000000  000099cc  2**0
                  CONTENTS, READONLY, DEBUGGING
  6 .debug_aranges 000000e8  00000000  00000000  0000a6c9  2**0
                  CONTENTS, READONLY, DEBUGGING
  7 .debug_pubnames 0000014e  00000000  00000000  0000a7b1  2**0
                  CONTENTS, READONLY, DEBUGGING
  8 .debug_info   00000e63  00000000  00000000  0000a8ff  2**0
                  CONTENTS, READONLY, DEBUGGING
  9 .debug_abbrev 00000789  00000000  00000000  0000b762  2**0
                  CONTENTS, READONLY, DEBUGGING
 10 .debug_line   00001367  00000000  00000000  0000beeb  2**0
                  CONTENTS, READONLY, DEBUGGING
 11 .debug_frame  000000f0  00000000  00000000  0000d254  2**2
                  CONTENTS, READONLY, DEBUGGING
 12 .debug_str    0000048a  00000000  00000000  0000d344  2**0
                  CONTENTS, READONLY, DEBUGGING
 13 .debug_loc    00000c3c  00000000  00000000  0000d7ce  2**0
                  CONTENTS, READONLY, DEBUGGING
 14 .debug_pubtypes 000001bf  00000000  00000000  0000e40a  2**0
                  CONTENTS, READONLY, DEBUGGING
 15 .debug_ranges 00000090  00000000  00000000  0000e5c9  2**0
                  CONTENTS, READONLY, DEBUGGING

Disassembly of section .text:

00000000 <__vectors>:
       0:	0c 94 86 03 	jmp	0x70c	; 0x70c <__ctors_end>
       4:	0c 94 11 08 	jmp	0x1022	; 0x1022 <__vector_1>
       8:	0c 94 53 07 	jmp	0xea6	; 0xea6 <__vector_2>
       c:	0c 94 a3 03 	jmp	0x746	; 0x746 <__bad_interrupt>
      10:	0c 94 86 2b 	jmp	0x570c	; 0x570c <__vector_4>
      14:	0c 94 a3 03 	jmp	0x746	; 0x746 <__bad_interrupt>
      18:	0c 94 a3 03 	jmp	0x746	; 0x746 <__bad_interrupt>
      1c:	0c 94 a3 03 	jmp	0x746	; 0x746 <__bad_interrupt>
      20:	0c 94 a3 03 	jmp	0x746	; 0x746 <__bad_interrupt>
      24:	0c 94 3e 07 	jmp	0xe7c	; 0xe7c <__vector_9>
      28:	0c 94 a3 03 	jmp	0x746	; 0x746 <__bad_interrupt>
      2c:	0c 94 a3 03 	jmp	0x746	; 0x746 <__bad_interrupt>
      30:	0c 94 a3 03 	jmp	0x746	; 0x746 <__bad_interrupt>
      34:	0c 94 67 2c 	jmp	0x58ce	; 0x58ce <__vector_13>
      38:	0c 94 a3 03 	jmp	0x746	; 0x746 <__bad_interrupt>
      3c:	0c 94 a3 03 	jmp	0x746	; 0x746 <__bad_interrupt>
      40:	0c 94 e9 03 	jmp	0x7d2	; 0x7d2 <__vector_16>
      44:	0c 94 a3 03 	jmp	0x746	; 0x746 <__bad_interrupt>
      48:	0c 94 a3 03 	jmp	0x746	; 0x746 <__bad_interrupt>
      4c:	0c 94 a3 03 	jmp	0x746	; 0x746 <__bad_interrupt>
      50:	0c 94 a3 03 	jmp	0x746	; 0x746 <__bad_interrupt>

00000054 <ARR_GlcdFont_U32>:
      54:	00 00 c0 e0 f0 f8 38 18 18 38 f8 f0 e0 c0 00 00     ......8..8......
      64:	00 ff ff ff ff 00 00 00 00 00 00 ff ff ff ff 00     ................
      74:	00 07 1f 3f 7f f8 e0 c0 c0 e0 f8 7f 3f 1f 07 00     ...?........?...
      84:	00 00 00 80 80 80 c0 e0 f8 f8 f8 f8 00 00 00 00     ................
      94:	00 00 00 01 01 01 01 01 ff ff ff ff 00 00 00 00     ................
	...
      ac:	ff ff ff ff 00 00 00 00 00 80 e0 f0 f0 78 38 18     .............x8.
      bc:	18 18 78 f8 f0 e0 c0 00 00 01 01 01 01 00 80 c0     ..x.............
      cc:	e0 f0 f8 7f 3f 1f 0f 00 e0 f0 f8 fc fe df cf c7     ....?...........
      dc:	c3 c1 c0 c0 c0 c0 c0 00 00 c0 e0 f0 f8 38 18 18     .............8..
      ec:	18 38 f8 f0 e0 c0 00 00 00 00 00 00 00 00 30 30     .8............00
      fc:	30 78 ff ff ef c7 80 00 00 0c 3c 7c 7c f0 e0 c0     0x........<||...
     10c:	c0 e0 f0 7f 7f 3f 0f 00 00 00 00 00 00 00 00 c0     .....?..........
     11c:	e0 f8 f8 f8 f8 00 00 00 00 80 e0 f0 7c 3e 0f 07     ............|>..
     12c:	01 ff ff ff ff 00 00 00 07 07 07 07 06 06 06 06     ................
     13c:	06 ff ff ff ff 06 06 06 00 00 f8 f8 f8 f8 18 18     ................
     14c:	18 18 18 18 18 00 00 00 00 00 3f 3f 3f 1f 1c 0c     ..........???...
     15c:	0c 1c 3c f8 f8 f0 c0 00 00 0c 3c 7c 7c f0 e0 c0     ..<.......<||...
     16c:	c0 e0 f0 7f 7f 3f 0f 00 00 c0 e0 f0 f8 38 18 18     .....?.......8..
     17c:	18 38 f8 f0 e0 c0 00 00 00 ff ff ff ff 38 1c 0c     .8...........8..
     18c:	0c 1c 3c fc f8 f0 c0 00 00 07 1f 3f 7f f8 e0 c0     ..<........?....
     19c:	c0 e0 f0 7f 7f 3f 0f 00 00 18 18 18 18 18 18 18     .....?..........
     1ac:	18 18 d8 f8 f8 f8 38 00 00 00 00 00 00 00 00 c0     ......8.........
     1bc:	f8 fe ff 3f 0f 01 00 00 00 00 00 00 00 f0 fe ff     ...?............
     1cc:	ff 0f 01 00 00 00 00 00 00 00 c0 f0 f0 f8 38 18     ..............8.
     1dc:	18 38 f8 f0 f0 c0 00 00 00 00 83 cf ff ff 7c 78     .8............|x
     1ec:	78 7c ff ff cf 83 00 00 00 1f 3f 7f 7f f0 e0 c0     x|........?.....
     1fc:	c0 e0 f0 7f 7f 3f 1f 00 00 80 e0 f0 f0 78 38 18     .....?.......x8.
     20c:	18 38 f8 f0 e0 c0 00 00 00 0f 3f 7f ff f0 e0 c0     .8........?.....
     21c:	c0 e0 70 ff ff ff ff 00 00 18 38 78 f8 e0 c0 c0     ..p.......8x....
     22c:	e0 f0 fc 7f 3f 1f 03 00 00 00 00 00 00 00 00 00     ....?...........
     23c:	00 00 00 00 00 e0 e0 e0 00 00 00 00 00 00 00 00     ................
     24c:	00 00 00 00 00 e0 e0 e0 e0 00 00 00 00 00 00 e0     ................
     25c:	e0 e0 e0 e0 e0 e0 e0 00 00 00 00 00 00 00 00 f0     ................
     26c:	f8 18 18 18 38 30 00 00 00 fe 20 20 10 3e 00 31     ....80....  .>.1
     27c:	73 63 63 63 7f 3e 00 00 00 02 72 8a 8a 8a 02 02     sccc.>....r.....
     28c:	fa 0a fa 0a fa 02 00 00 00 00 f0 20 40 20 f0 00     ........... @ ..
     29c:	e0 30 10 10 30 e0 00 00 00 00 07 00 00 00 17 a0     .0..0...........
     2ac:	45 a7 10 00 07 05 00 00 00 00 78 84 84 84 01 00     E.........x.....
     2bc:	fc 04 f9 04 f8 00 00 00 00 00 00 00 c0 e0 c0 80     ................
	...
     2d8:	00 01 03 07 8f de fc f8 70 20 00 00 00 00 00 00     ........p ......
     2e8:	18 3c 1e 0f 07 03 01 00 00 00 00 00 00 00 00 00     .<..............
     2f8:	00 00 00 00 00 00 80 c0 e0 c0 00 00 00 00 00 00     ................
     308:	20 70 f8 fc de 8f 07 03 01 00 00 00 00 00 00 00      p..............
     318:	00 00 00 01 03 07 0f 1e 3c 18 00 00 00 00 00 00     ........<.......
	...
     334:	00 00 00 38 38 38 38 38 38 38 38 38 38 38 00 00     ...88888888888..
	...

00000384 <ARR_GlcdFont_U8>:
     384:	ff ff ff ff ff 00 ff ff ff ff ff ff 00 ff ff ff     ................
     394:	ff ff ff 00 ff ff ff ff ff ff 00 ff ff ff ff ff     ................
     3a4:	ff 00 ff ff ff ff ff ff 00 ff ff ff ff ff ff 00     ................
     3b4:	ff ff ff ff ff ff 00 ff ff ff ff ff ff 00 ff ff     ................
     3c4:	ff ff ff ff 00 ff ff ff ff ff ff 00 ff ff ff ff     ................
     3d4:	ff ff 00 ff ff ff ff ff ff 00 ff ff ff ff ff ff     ................
     3e4:	00 ff ff ff ff ff ff 00 ff ff ff ff ff ff 00 ff     ................
     3f4:	ff ff ff ff ff 00 ff ff ff ff ff ff 00 ff ff ff     ................
     404:	ff ff ff 00 ff ff ff ff ff ff 00 ff ff ff ff ff     ................
     414:	ff 00 ff ff ff ff ff ff 00 ff ff ff ff ff ff 00     ................
     424:	ff ff ff ff ff ff 00 ff ff ff ff ff ff 00 ff ff     ................
     434:	ff ff ff ff 00 ff ff ff ff ff ff 00 ff ff ff ff     ................
     444:	ff ff 00 ff ff ff ff ff ff 00 ff ff ff ff ff ff     ................
     454:	00 ff ff ff ff ff ff 00 ff ff ff ff ff ff 00 ff     ................
     464:	00 00 00 00 00 ff ff 00 00 4f 00 00 00 ff 00 07     .........O......
     474:	00 07 00 00 ff 14 7f 14 7f 14 00 ff 24 2a 7f 2a     ............$*.*
     484:	12 00 ff 23 13 08 64 62 00 ff 36 49 55 22 20 00     ...#..db..6IU" .
     494:	ff 00 05 03 00 00 00 ff 00 1c 22 41 00 00 ff 00     .........."A....
     4a4:	41 22 1c 00 00 ff 14 08 3e 08 14 00 ff 08 08 3e     A"......>......>
     4b4:	08 08 00 ff 50 30 00 00 00 00 ff 08 08 08 08 08     ....P0..........
     4c4:	00 ff 00 60 60 00 00 00 ff 20 10 08 04 02 00 ff     ...``.... ......
     4d4:	3e 51 49 45 3e 00 ff 40 42 7f 40 40 00 ff 42 61     >QIE>..@B.@@..Ba
     4e4:	51 49 46 00 ff 21 41 45 4b 31 00 ff 18 14 12 7f     QIF..!AEK1......
     4f4:	10 00 ff 27 45 45 45 39 00 ff 3c 4a 49 49 30 00     ...'EEE9..<JII0.
     504:	ff 01 71 09 05 03 00 ff 36 49 49 49 36 00 ff 06     ..q.....6III6...
     514:	49 49 29 1e 00 ff 00 36 36 00 00 00 ff 00 56 36     II)....66.....V6
     524:	00 00 00 ff 08 14 22 41 00 00 ff 14 14 14 14 14     ......"A........
     534:	00 ff 00 41 22 14 08 00 ff 02 01 51 09 06 00 ff     ...A"......Q....
     544:	00 00 02 05 02 00 ff 7e 11 11 11 7e 00 ff 7f 49     .......~...~...I
     554:	49 49 36 00 ff 3e 41 41 41 22 00 ff 7f 41 41 22     II6..>AAA"...AA"
     564:	1c 00 ff 7f 49 49 49 41 00 ff 7f 09 09 09 01 00     ....IIIA........
     574:	ff 3e 41 49 49 7a 00 ff 7f 08 08 08 7f 00 ff 00     .>AIIz..........
     584:	41 7f 41 00 00 ff 20 40 41 3f 01 00 ff 7f 08 14     A.A... @A?......
     594:	22 41 00 ff 7f 40 40 40 40 00 ff 7f 02 0c 02 7f     "A...@@@@.......
     5a4:	00 ff 7f 04 08 10 7f 00 ff 3e 41 41 41 3e 00 ff     .........>AAA>..
     5b4:	7f 09 09 09 06 00 ff 3e 41 51 21 5e 00 ff 7f 09     .......>AQ!^....
     5c4:	19 29 46 00 ff 26 49 49 49 32 00 ff 01 01 7f 01     .)F..&III2......
     5d4:	01 00 ff 3f 40 40 40 3f 00 ff 1f 20 40 20 1f 00     ...?@@@?... @ ..
     5e4:	ff 3f 40 38 40 3f 00 ff 63 14 08 14 63 00 ff 07     .?@8@?..c...c...
     5f4:	08 70 08 07 00 ff 61 51 49 45 43 00 ff 00 7f 41     .p....aQIEC....A
     604:	41 00 00 ff 02 04 08 10 20 00 ff 00 41 41 7f 00     A....... ...AA..
     614:	00 ff 04 02 01 02 04 00 ff 40 40 40 40 40 00 ff     .........@@@@@..
     624:	00 00 03 05 00 00 ff 20 54 54 54 78 00 ff 7f 44     ....... TTTx...D
     634:	44 44 38 00 ff 38 44 44 44 44 00 ff 38 44 44 44     DD8..8DDDD..8DDD
     644:	7f 00 ff 38 54 54 54 18 00 ff 04 04 7e 05 05 00     ...8TTT.....~...
     654:	ff 08 54 54 54 3c 00 ff 7f 08 04 04 78 00 ff 00     ..TTT<......x...
     664:	44 7d 40 00 ff ff 20 40 44 3d 00 ff ff 7f 10 28     D}@... @D=.....(
     674:	44 00 ff ff 41 7f 40 00 ff ff ff 7c 04 7c 04 78     D...A.@....|.|.x
     684:	00 ff 7c 08 04 04 78 00 ff 38 44 44 44 38 00 ff     ..|...x..8DDD8..
     694:	7c 14 14 14 08 00 ff 08 14 14 14 7c 00 ff 7c 08     |..........|..|.
     6a4:	04 04 00 ff ff 48 54 54 54 24 00 ff 04 04 3f 44     .....HTTT$....?D
     6b4:	44 00 ff 3c 40 40 20 7c 00 ff 1c 20 40 20 1c 00     D..<@@ |... @ ..
     6c4:	ff 3c 40 30 40 3c 00 ff 44 28 10 28 44 00 ff 0c     .<@0@<..D(.(D...
     6d4:	50 50 50 3c 00 ff 44 64 54 4c 44 00 ff 08 36 41     PPP<..DdTLD...6A
     6e4:	41 00 00 ff 00 00 77 00 00 00 ff 00 41 41 36 08     A.....w.....AA6.
     6f4:	00 ff 08 08 2a 1c 08 00 ff 08 1c 2a 08 08 00 ff     ....*......*....
     704:	ff ff ff ff ff 00 ff 00                             ........

0000070c <__ctors_end>:
     70c:	11 24       	eor	r1, r1
     70e:	1f be       	out	0x3f, r1	; 63
     710:	cf e5       	ldi	r28, 0x5F	; 95
     712:	d8 e0       	ldi	r29, 0x08	; 8
     714:	de bf       	out	0x3e, r29	; 62
     716:	cd bf       	out	0x3d, r28	; 61

00000718 <__do_copy_data>:
     718:	13 e0       	ldi	r17, 0x03	; 3
     71a:	a0 e6       	ldi	r26, 0x60	; 96
     71c:	b0 e0       	ldi	r27, 0x00	; 0
     71e:	e2 ed       	ldi	r30, 0xD2	; 210
     720:	f7 e6       	ldi	r31, 0x67	; 103
     722:	02 c0       	rjmp	.+4      	; 0x728 <__do_copy_data+0x10>
     724:	05 90       	lpm	r0, Z+
     726:	0d 92       	st	X+, r0
     728:	a6 37       	cpi	r26, 0x76	; 118
     72a:	b1 07       	cpc	r27, r17
     72c:	d9 f7       	brne	.-10     	; 0x724 <__do_copy_data+0xc>

0000072e <__do_clear_bss>:
     72e:	13 e0       	ldi	r17, 0x03	; 3
     730:	a6 e7       	ldi	r26, 0x76	; 118
     732:	b3 e0       	ldi	r27, 0x03	; 3
     734:	01 c0       	rjmp	.+2      	; 0x738 <.do_clear_bss_start>

00000736 <.do_clear_bss_loop>:
     736:	1d 92       	st	X+, r1

00000738 <.do_clear_bss_start>:
     738:	a3 3c       	cpi	r26, 0xC3	; 195
     73a:	b1 07       	cpc	r27, r17
     73c:	e1 f7       	brne	.-8      	; 0x736 <.do_clear_bss_loop>
     73e:	0e 94 6b 1a 	call	0x34d6	; 0x34d6 <main>
     742:	0c 94 e7 33 	jmp	0x67ce	; 0x67ce <_exit>

00000746 <__bad_interrupt>:
     746:	0c 94 00 00 	jmp	0	; 0x0 <__vectors>

0000074a <__iCliRetVal>:
     74a:	df 93       	push	r29
     74c:	cf 93       	push	r28
     74e:	cd b7       	in	r28, 0x3d	; 61
     750:	de b7       	in	r29, 0x3e	; 62
     752:	f8 94       	cli
     754:	81 e0       	ldi	r24, 0x01	; 1
     756:	cf 91       	pop	r28
     758:	df 91       	pop	r29
     75a:	08 95       	ret

0000075c <__iRestore>:
     75c:	df 93       	push	r29
     75e:	cf 93       	push	r28
     760:	00 d0       	rcall	.+0      	; 0x762 <__iRestore+0x6>
     762:	cd b7       	in	r28, 0x3d	; 61
     764:	de b7       	in	r29, 0x3e	; 62
     766:	9a 83       	std	Y+2, r25	; 0x02
     768:	89 83       	std	Y+1, r24	; 0x01
     76a:	8f e5       	ldi	r24, 0x5F	; 95
     76c:	90 e0       	ldi	r25, 0x00	; 0
     76e:	29 81       	ldd	r18, Y+1	; 0x01
     770:	3a 81       	ldd	r19, Y+2	; 0x02
     772:	f9 01       	movw	r30, r18
     774:	20 81       	ld	r18, Z
     776:	fc 01       	movw	r30, r24
     778:	20 83       	st	Z, r18
     77a:	0f 90       	pop	r0
     77c:	0f 90       	pop	r0
     77e:	cf 91       	pop	r28
     780:	df 91       	pop	r29
     782:	08 95       	ret

00000784 <ADC_Init>:
     784:	df 93       	push	r29
     786:	cf 93       	push	r28
     788:	cd b7       	in	r28, 0x3d	; 61
     78a:	de b7       	in	r29, 0x3e	; 62
     78c:	86 e2       	ldi	r24, 0x26	; 38
     78e:	90 e0       	ldi	r25, 0x00	; 0
     790:	26 e2       	ldi	r18, 0x26	; 38
     792:	30 e0       	ldi	r19, 0x00	; 0
     794:	f9 01       	movw	r30, r18
     796:	20 81       	ld	r18, Z
     798:	27 60       	ori	r18, 0x07	; 7
     79a:	fc 01       	movw	r30, r24
     79c:	20 83       	st	Z, r18
     79e:	87 e2       	ldi	r24, 0x27	; 39
     7a0:	90 e0       	ldi	r25, 0x00	; 0
     7a2:	20 e4       	ldi	r18, 0x40	; 64
     7a4:	fc 01       	movw	r30, r24
     7a6:	20 83       	st	Z, r18
     7a8:	86 e2       	ldi	r24, 0x26	; 38
     7aa:	90 e0       	ldi	r25, 0x00	; 0
     7ac:	26 e2       	ldi	r18, 0x26	; 38
     7ae:	30 e0       	ldi	r19, 0x00	; 0
     7b0:	f9 01       	movw	r30, r18
     7b2:	20 81       	ld	r18, Z
     7b4:	28 68       	ori	r18, 0x88	; 136
     7b6:	fc 01       	movw	r30, r24
     7b8:	20 83       	st	Z, r18
     7ba:	86 e2       	ldi	r24, 0x26	; 38
     7bc:	90 e0       	ldi	r25, 0x00	; 0
     7be:	26 e2       	ldi	r18, 0x26	; 38
     7c0:	30 e0       	ldi	r19, 0x00	; 0
     7c2:	f9 01       	movw	r30, r18
     7c4:	20 81       	ld	r18, Z
     7c6:	20 64       	ori	r18, 0x40	; 64
     7c8:	fc 01       	movw	r30, r24
     7ca:	20 83       	st	Z, r18
     7cc:	cf 91       	pop	r28
     7ce:	df 91       	pop	r29
     7d0:	08 95       	ret

000007d2 <__vector_16>:
     7d2:	1f 92       	push	r1
     7d4:	0f 92       	push	r0
     7d6:	0f b6       	in	r0, 0x3f	; 63
     7d8:	0f 92       	push	r0
     7da:	11 24       	eor	r1, r1
     7dc:	ef 92       	push	r14
     7de:	ff 92       	push	r15
     7e0:	0f 93       	push	r16
     7e2:	1f 93       	push	r17
     7e4:	2f 93       	push	r18
     7e6:	3f 93       	push	r19
     7e8:	4f 93       	push	r20
     7ea:	5f 93       	push	r21
     7ec:	6f 93       	push	r22
     7ee:	7f 93       	push	r23
     7f0:	8f 93       	push	r24
     7f2:	9f 93       	push	r25
     7f4:	af 93       	push	r26
     7f6:	bf 93       	push	r27
     7f8:	ef 93       	push	r30
     7fa:	ff 93       	push	r31
     7fc:	df 93       	push	r29
     7fe:	cf 93       	push	r28
     800:	00 d0       	rcall	.+0      	; 0x802 <__vector_16+0x30>
     802:	00 d0       	rcall	.+0      	; 0x804 <__vector_16+0x32>
     804:	cd b7       	in	r28, 0x3d	; 61
     806:	de b7       	in	r29, 0x3e	; 62
     808:	8f e5       	ldi	r24, 0x5F	; 95
     80a:	90 e0       	ldi	r25, 0x00	; 0
     80c:	fc 01       	movw	r30, r24
     80e:	80 81       	ld	r24, Z
     810:	8c 83       	std	Y+4, r24	; 0x04
     812:	0e 94 a5 03 	call	0x74a	; 0x74a <__iCliRetVal>
     816:	8b 83       	std	Y+3, r24	; 0x03
     818:	13 c0       	rjmp	.+38     	; 0x840 <__vector_16+0x6e>
     81a:	84 e2       	ldi	r24, 0x24	; 36
     81c:	90 e0       	ldi	r25, 0x00	; 0
     81e:	fc 01       	movw	r30, r24
     820:	80 81       	ld	r24, Z
     822:	28 2f       	mov	r18, r24
     824:	30 e0       	ldi	r19, 0x00	; 0
     826:	85 e2       	ldi	r24, 0x25	; 37
     828:	90 e0       	ldi	r25, 0x00	; 0
     82a:	fc 01       	movw	r30, r24
     82c:	80 81       	ld	r24, Z
     82e:	88 2f       	mov	r24, r24
     830:	90 e0       	ldi	r25, 0x00	; 0
     832:	98 2f       	mov	r25, r24
     834:	88 27       	eor	r24, r24
     836:	82 2b       	or	r24, r18
     838:	93 2b       	or	r25, r19
     83a:	9a 83       	std	Y+2, r25	; 0x02
     83c:	89 83       	std	Y+1, r24	; 0x01
     83e:	1b 82       	std	Y+3, r1	; 0x03
     840:	8b 81       	ldd	r24, Y+3	; 0x03
     842:	88 23       	and	r24, r24
     844:	51 f7       	brne	.-44     	; 0x81a <__vector_16+0x48>
     846:	ce 01       	movw	r24, r28
     848:	04 96       	adiw	r24, 0x04	; 4
     84a:	0e 94 ae 03 	call	0x75c	; 0x75c <__iRestore>
     84e:	87 e2       	ldi	r24, 0x27	; 39
     850:	90 e0       	ldi	r25, 0x00	; 0
     852:	fc 01       	movw	r30, r24
     854:	80 81       	ld	r24, Z
     856:	88 2f       	mov	r24, r24
     858:	90 e0       	ldi	r25, 0x00	; 0
     85a:	80 34       	cpi	r24, 0x40	; 64
     85c:	91 05       	cpc	r25, r1
     85e:	29 f0       	breq	.+10     	; 0x86a <__stack+0xb>
     860:	81 34       	cpi	r24, 0x41	; 65
     862:	91 05       	cpc	r25, r1
     864:	09 f4       	brne	.+2      	; 0x868 <__stack+0x9>
     866:	47 c0       	rjmp	.+142    	; 0x8f6 <__stack+0x97>
     868:	8c c0       	rjmp	.+280    	; 0x982 <__stack+0x123>
     86a:	87 e2       	ldi	r24, 0x27	; 39
     86c:	90 e0       	ldi	r25, 0x00	; 0
     86e:	21 e4       	ldi	r18, 0x41	; 65
     870:	fc 01       	movw	r30, r24
     872:	20 83       	st	Z, r18
     874:	80 91 3e 03 	lds	r24, 0x033E
     878:	90 91 3f 03 	lds	r25, 0x033F
     87c:	cc 01       	movw	r24, r24
     87e:	a0 e0       	ldi	r26, 0x00	; 0
     880:	b0 e0       	ldi	r27, 0x00	; 0
     882:	bc 01       	movw	r22, r24
     884:	cd 01       	movw	r24, r26
     886:	0e 94 82 2d 	call	0x5b04	; 0x5b04 <__floatunsisf>
     88a:	dc 01       	movw	r26, r24
     88c:	cb 01       	movw	r24, r22
     88e:	bc 01       	movw	r22, r24
     890:	cd 01       	movw	r24, r26
     892:	2d ec       	ldi	r18, 0xCD	; 205
     894:	3c ec       	ldi	r19, 0xCC	; 204
     896:	4c e4       	ldi	r20, 0x4C	; 76
     898:	5f e3       	ldi	r21, 0x3F	; 63
     89a:	0e 94 38 2e 	call	0x5c70	; 0x5c70 <__mulsf3>
     89e:	dc 01       	movw	r26, r24
     8a0:	cb 01       	movw	r24, r22
     8a2:	7c 01       	movw	r14, r24
     8a4:	8d 01       	movw	r16, r26
     8a6:	89 81       	ldd	r24, Y+1	; 0x01
     8a8:	9a 81       	ldd	r25, Y+2	; 0x02
     8aa:	cc 01       	movw	r24, r24
     8ac:	a0 e0       	ldi	r26, 0x00	; 0
     8ae:	b0 e0       	ldi	r27, 0x00	; 0
     8b0:	bc 01       	movw	r22, r24
     8b2:	cd 01       	movw	r24, r26
     8b4:	0e 94 82 2d 	call	0x5b04	; 0x5b04 <__floatunsisf>
     8b8:	dc 01       	movw	r26, r24
     8ba:	cb 01       	movw	r24, r22
     8bc:	bc 01       	movw	r22, r24
     8be:	cd 01       	movw	r24, r26
     8c0:	2d ec       	ldi	r18, 0xCD	; 205
     8c2:	3c ec       	ldi	r19, 0xCC	; 204
     8c4:	4c e4       	ldi	r20, 0x4C	; 76
     8c6:	5e e3       	ldi	r21, 0x3E	; 62
     8c8:	0e 94 38 2e 	call	0x5c70	; 0x5c70 <__mulsf3>
     8cc:	dc 01       	movw	r26, r24
     8ce:	cb 01       	movw	r24, r22
     8d0:	9c 01       	movw	r18, r24
     8d2:	ad 01       	movw	r20, r26
     8d4:	c8 01       	movw	r24, r16
     8d6:	b7 01       	movw	r22, r14
     8d8:	0e 94 86 2c 	call	0x590c	; 0x590c <__addsf3>
     8dc:	dc 01       	movw	r26, r24
     8de:	cb 01       	movw	r24, r22
     8e0:	bc 01       	movw	r22, r24
     8e2:	cd 01       	movw	r24, r26
     8e4:	0e 94 56 2d 	call	0x5aac	; 0x5aac <__fixunssfsi>
     8e8:	dc 01       	movw	r26, r24
     8ea:	cb 01       	movw	r24, r22
     8ec:	90 93 3f 03 	sts	0x033F, r25
     8f0:	80 93 3e 03 	sts	0x033E, r24
     8f4:	46 c0       	rjmp	.+140    	; 0x982 <__stack+0x123>
     8f6:	87 e2       	ldi	r24, 0x27	; 39
     8f8:	90 e0       	ldi	r25, 0x00	; 0
     8fa:	20 e4       	ldi	r18, 0x40	; 64
     8fc:	fc 01       	movw	r30, r24
     8fe:	20 83       	st	Z, r18
     900:	80 91 0c 03 	lds	r24, 0x030C
     904:	90 91 0d 03 	lds	r25, 0x030D
     908:	cc 01       	movw	r24, r24
     90a:	a0 e0       	ldi	r26, 0x00	; 0
     90c:	b0 e0       	ldi	r27, 0x00	; 0
     90e:	bc 01       	movw	r22, r24
     910:	cd 01       	movw	r24, r26
     912:	0e 94 82 2d 	call	0x5b04	; 0x5b04 <__floatunsisf>
     916:	dc 01       	movw	r26, r24
     918:	cb 01       	movw	r24, r22
     91a:	bc 01       	movw	r22, r24
     91c:	cd 01       	movw	r24, r26
     91e:	20 e0       	ldi	r18, 0x00	; 0
     920:	30 e0       	ldi	r19, 0x00	; 0
     922:	40 e0       	ldi	r20, 0x00	; 0
     924:	5f e3       	ldi	r21, 0x3F	; 63
     926:	0e 94 38 2e 	call	0x5c70	; 0x5c70 <__mulsf3>
     92a:	dc 01       	movw	r26, r24
     92c:	cb 01       	movw	r24, r22
     92e:	7c 01       	movw	r14, r24
     930:	8d 01       	movw	r16, r26
     932:	89 81       	ldd	r24, Y+1	; 0x01
     934:	9a 81       	ldd	r25, Y+2	; 0x02
     936:	cc 01       	movw	r24, r24
     938:	a0 e0       	ldi	r26, 0x00	; 0
     93a:	b0 e0       	ldi	r27, 0x00	; 0
     93c:	bc 01       	movw	r22, r24
     93e:	cd 01       	movw	r24, r26
     940:	0e 94 82 2d 	call	0x5b04	; 0x5b04 <__floatunsisf>
     944:	dc 01       	movw	r26, r24
     946:	cb 01       	movw	r24, r22
     948:	bc 01       	movw	r22, r24
     94a:	cd 01       	movw	r24, r26
     94c:	20 e0       	ldi	r18, 0x00	; 0
     94e:	30 e0       	ldi	r19, 0x00	; 0
     950:	40 e0       	ldi	r20, 0x00	; 0
     952:	5f e3       	ldi	r21, 0x3F	; 63
     954:	0e 94 38 2e 	call	0x5c70	; 0x5c70 <__mulsf3>
     958:	dc 01       	movw	r26, r24
     95a:	cb 01       	movw	r24, r22
     95c:	9c 01       	movw	r18, r24
     95e:	ad 01       	movw	r20, r26
     960:	c8 01       	movw	r24, r16
     962:	b7 01       	movw	r22, r14
     964:	0e 94 86 2c 	call	0x590c	; 0x590c <__addsf3>
     968:	dc 01       	movw	r26, r24
     96a:	cb 01       	movw	r24, r22
     96c:	bc 01       	movw	r22, r24
     96e:	cd 01       	movw	r24, r26
     970:	0e 94 56 2d 	call	0x5aac	; 0x5aac <__fixunssfsi>
     974:	dc 01       	movw	r26, r24
     976:	cb 01       	movw	r24, r22
     978:	90 93 0d 03 	sts	0x030D, r25
     97c:	80 93 0c 03 	sts	0x030C, r24
     980:	00 00       	nop
     982:	86 e2       	ldi	r24, 0x26	; 38
     984:	90 e0       	ldi	r25, 0x00	; 0
     986:	26 e2       	ldi	r18, 0x26	; 38
     988:	30 e0       	ldi	r19, 0x00	; 0
     98a:	f9 01       	movw	r30, r18
     98c:	20 81       	ld	r18, Z
     98e:	20 64       	ori	r18, 0x40	; 64
     990:	fc 01       	movw	r30, r24
     992:	20 83       	st	Z, r18
     994:	24 96       	adiw	r28, 0x04	; 4
     996:	de bf       	out	0x3e, r29	; 62
     998:	cd bf       	out	0x3d, r28	; 61
     99a:	cf 91       	pop	r28
     99c:	df 91       	pop	r29
     99e:	ff 91       	pop	r31
     9a0:	ef 91       	pop	r30
     9a2:	bf 91       	pop	r27
     9a4:	af 91       	pop	r26
     9a6:	9f 91       	pop	r25
     9a8:	8f 91       	pop	r24
     9aa:	7f 91       	pop	r23
     9ac:	6f 91       	pop	r22
     9ae:	5f 91       	pop	r21
     9b0:	4f 91       	pop	r20
     9b2:	3f 91       	pop	r19
     9b4:	2f 91       	pop	r18
     9b6:	1f 91       	pop	r17
     9b8:	0f 91       	pop	r16
     9ba:	ff 90       	pop	r15
     9bc:	ef 90       	pop	r14
     9be:	0f 90       	pop	r0
     9c0:	0f be       	out	0x3f, r0	; 63
     9c2:	0f 90       	pop	r0
     9c4:	1f 90       	pop	r1
     9c6:	18 95       	reti

000009c8 <ADC_Read>:
     9c8:	df 93       	push	r29
     9ca:	cf 93       	push	r28
     9cc:	0f 92       	push	r0
     9ce:	cd b7       	in	r28, 0x3d	; 61
     9d0:	de b7       	in	r29, 0x3e	; 62
     9d2:	89 83       	std	Y+1, r24	; 0x01
     9d4:	87 e2       	ldi	r24, 0x27	; 39
     9d6:	90 e0       	ldi	r25, 0x00	; 0
     9d8:	27 e2       	ldi	r18, 0x27	; 39
     9da:	30 e0       	ldi	r19, 0x00	; 0
     9dc:	f9 01       	movw	r30, r18
     9de:	20 81       	ld	r18, Z
     9e0:	32 2f       	mov	r19, r18
     9e2:	30 7e       	andi	r19, 0xE0	; 224
     9e4:	29 81       	ldd	r18, Y+1	; 0x01
     9e6:	2f 71       	andi	r18, 0x1F	; 31
     9e8:	23 2b       	or	r18, r19
     9ea:	fc 01       	movw	r30, r24
     9ec:	20 83       	st	Z, r18
     9ee:	86 e2       	ldi	r24, 0x26	; 38
     9f0:	90 e0       	ldi	r25, 0x00	; 0
     9f2:	26 e2       	ldi	r18, 0x26	; 38
     9f4:	30 e0       	ldi	r19, 0x00	; 0
     9f6:	f9 01       	movw	r30, r18
     9f8:	20 81       	ld	r18, Z
     9fa:	20 64       	ori	r18, 0x40	; 64
     9fc:	fc 01       	movw	r30, r24
     9fe:	20 83       	st	Z, r18
     a00:	00 00       	nop
     a02:	86 e2       	ldi	r24, 0x26	; 38
     a04:	90 e0       	ldi	r25, 0x00	; 0
     a06:	fc 01       	movw	r30, r24
     a08:	80 81       	ld	r24, Z
     a0a:	88 2f       	mov	r24, r24
     a0c:	90 e0       	ldi	r25, 0x00	; 0
     a0e:	80 71       	andi	r24, 0x10	; 16
     a10:	90 70       	andi	r25, 0x00	; 0
     a12:	00 97       	sbiw	r24, 0x00	; 0
     a14:	b1 f3       	breq	.-20     	; 0xa02 <ADC_Read+0x3a>
     a16:	86 e2       	ldi	r24, 0x26	; 38
     a18:	90 e0       	ldi	r25, 0x00	; 0
     a1a:	26 e2       	ldi	r18, 0x26	; 38
     a1c:	30 e0       	ldi	r19, 0x00	; 0
     a1e:	f9 01       	movw	r30, r18
     a20:	20 81       	ld	r18, Z
     a22:	20 61       	ori	r18, 0x10	; 16
     a24:	fc 01       	movw	r30, r24
     a26:	20 83       	st	Z, r18
     a28:	84 e2       	ldi	r24, 0x24	; 36
     a2a:	90 e0       	ldi	r25, 0x00	; 0
     a2c:	fc 01       	movw	r30, r24
     a2e:	80 81       	ld	r24, Z
     a30:	91 81       	ldd	r25, Z+1	; 0x01
     a32:	0f 90       	pop	r0
     a34:	cf 91       	pop	r28
     a36:	df 91       	pop	r29
     a38:	08 95       	ret

00000a3a <BTN_Get_Port_State>:
     a3a:	0f 93       	push	r16
     a3c:	1f 93       	push	r17
     a3e:	df 93       	push	r29
     a40:	cf 93       	push	r28
     a42:	cd b7       	in	r28, 0x3d	; 61
     a44:	de b7       	in	r29, 0x3e	; 62
     a46:	60 97       	sbiw	r28, 0x10	; 16
     a48:	0f b6       	in	r0, 0x3f	; 63
     a4a:	f8 94       	cli
     a4c:	de bf       	out	0x3e, r29	; 62
     a4e:	0f be       	out	0x3f, r0	; 63
     a50:	cd bf       	out	0x3d, r28	; 61
     a52:	85 e3       	ldi	r24, 0x35	; 53
     a54:	90 e0       	ldi	r25, 0x00	; 0
     a56:	fc 01       	movw	r30, r24
     a58:	80 81       	ld	r24, Z
     a5a:	8f 87       	std	Y+15, r24	; 0x0f
     a5c:	84 e3       	ldi	r24, 0x34	; 52
     a5e:	90 e0       	ldi	r25, 0x00	; 0
     a60:	fc 01       	movw	r30, r24
     a62:	80 81       	ld	r24, Z
     a64:	88 8b       	std	Y+16, r24	; 0x10
     a66:	87 e3       	ldi	r24, 0x37	; 55
     a68:	90 e0       	ldi	r25, 0x00	; 0
     a6a:	27 e3       	ldi	r18, 0x37	; 55
     a6c:	30 e0       	ldi	r19, 0x00	; 0
     a6e:	f9 01       	movw	r30, r18
     a70:	20 81       	ld	r18, Z
     a72:	2e 7f       	andi	r18, 0xFE	; 254
     a74:	fc 01       	movw	r30, r24
     a76:	20 83       	st	Z, r18
     a78:	88 e3       	ldi	r24, 0x38	; 56
     a7a:	90 e0       	ldi	r25, 0x00	; 0
     a7c:	28 e3       	ldi	r18, 0x38	; 56
     a7e:	30 e0       	ldi	r19, 0x00	; 0
     a80:	f9 01       	movw	r30, r18
     a82:	20 81       	ld	r18, Z
     a84:	2e 7f       	andi	r18, 0xFE	; 254
     a86:	fc 01       	movw	r30, r24
     a88:	20 83       	st	Z, r18
     a8a:	84 e3       	ldi	r24, 0x34	; 52
     a8c:	90 e0       	ldi	r25, 0x00	; 0
     a8e:	fc 01       	movw	r30, r24
     a90:	10 82       	st	Z, r1
     a92:	85 e3       	ldi	r24, 0x35	; 53
     a94:	90 e0       	ldi	r25, 0x00	; 0
     a96:	2f ef       	ldi	r18, 0xFF	; 255
     a98:	fc 01       	movw	r30, r24
     a9a:	20 83       	st	Z, r18
     a9c:	87 e3       	ldi	r24, 0x37	; 55
     a9e:	90 e0       	ldi	r25, 0x00	; 0
     aa0:	27 e3       	ldi	r18, 0x37	; 55
     aa2:	30 e0       	ldi	r19, 0x00	; 0
     aa4:	f9 01       	movw	r30, r18
     aa6:	20 81       	ld	r18, Z
     aa8:	21 60       	ori	r18, 0x01	; 1
     aaa:	fc 01       	movw	r30, r24
     aac:	20 83       	st	Z, r18
     aae:	88 e3       	ldi	r24, 0x38	; 56
     ab0:	90 e0       	ldi	r25, 0x00	; 0
     ab2:	28 e3       	ldi	r18, 0x38	; 56
     ab4:	30 e0       	ldi	r19, 0x00	; 0
     ab6:	f9 01       	movw	r30, r18
     ab8:	20 81       	ld	r18, Z
     aba:	2e 7f       	andi	r18, 0xFE	; 254
     abc:	fc 01       	movw	r30, r24
     abe:	20 83       	st	Z, r18
     ac0:	80 e0       	ldi	r24, 0x00	; 0
     ac2:	90 e0       	ldi	r25, 0x00	; 0
     ac4:	a0 e8       	ldi	r26, 0x80	; 128
     ac6:	bf e3       	ldi	r27, 0x3F	; 63
     ac8:	89 83       	std	Y+1, r24	; 0x01
     aca:	9a 83       	std	Y+2, r25	; 0x02
     acc:	ab 83       	std	Y+3, r26	; 0x03
     ace:	bc 83       	std	Y+4, r27	; 0x04
     ad0:	69 81       	ldd	r22, Y+1	; 0x01
     ad2:	7a 81       	ldd	r23, Y+2	; 0x02
     ad4:	8b 81       	ldd	r24, Y+3	; 0x03
     ad6:	9c 81       	ldd	r25, Y+4	; 0x04
     ad8:	20 e0       	ldi	r18, 0x00	; 0
     ada:	30 e0       	ldi	r19, 0x00	; 0
     adc:	4a e7       	ldi	r20, 0x7A	; 122
     ade:	55 e4       	ldi	r21, 0x45	; 69
     ae0:	0e 94 38 2e 	call	0x5c70	; 0x5c70 <__mulsf3>
     ae4:	dc 01       	movw	r26, r24
     ae6:	cb 01       	movw	r24, r22
     ae8:	8d 83       	std	Y+5, r24	; 0x05
     aea:	9e 83       	std	Y+6, r25	; 0x06
     aec:	af 83       	std	Y+7, r26	; 0x07
     aee:	b8 87       	std	Y+8, r27	; 0x08
     af0:	11 e0       	ldi	r17, 0x01	; 1
     af2:	6d 81       	ldd	r22, Y+5	; 0x05
     af4:	7e 81       	ldd	r23, Y+6	; 0x06
     af6:	8f 81       	ldd	r24, Y+7	; 0x07
     af8:	98 85       	ldd	r25, Y+8	; 0x08
     afa:	20 e0       	ldi	r18, 0x00	; 0
     afc:	30 e0       	ldi	r19, 0x00	; 0
     afe:	40 e8       	ldi	r20, 0x80	; 128
     b00:	5f e3       	ldi	r21, 0x3F	; 63
     b02:	0e 94 ea 2c 	call	0x59d4	; 0x59d4 <__cmpsf2>
     b06:	88 23       	and	r24, r24
     b08:	0c f0       	brlt	.+2      	; 0xb0c <BTN_Get_Port_State+0xd2>
     b0a:	10 e0       	ldi	r17, 0x00	; 0
     b0c:	11 23       	and	r17, r17
     b0e:	29 f0       	breq	.+10     	; 0xb1a <BTN_Get_Port_State+0xe0>
     b10:	81 e0       	ldi	r24, 0x01	; 1
     b12:	90 e0       	ldi	r25, 0x00	; 0
     b14:	9a 87       	std	Y+10, r25	; 0x0a
     b16:	89 87       	std	Y+9, r24	; 0x09
     b18:	46 c0       	rjmp	.+140    	; 0xba6 <BTN_Get_Port_State+0x16c>
     b1a:	11 e0       	ldi	r17, 0x01	; 1
     b1c:	6d 81       	ldd	r22, Y+5	; 0x05
     b1e:	7e 81       	ldd	r23, Y+6	; 0x06
     b20:	8f 81       	ldd	r24, Y+7	; 0x07
     b22:	98 85       	ldd	r25, Y+8	; 0x08
     b24:	20 e0       	ldi	r18, 0x00	; 0
     b26:	3f ef       	ldi	r19, 0xFF	; 255
     b28:	4f e7       	ldi	r20, 0x7F	; 127
     b2a:	57 e4       	ldi	r21, 0x47	; 71
     b2c:	0e 94 34 2e 	call	0x5c68	; 0x5c68 <__gesf2>
     b30:	18 16       	cp	r1, r24
     b32:	0c f0       	brlt	.+2      	; 0xb36 <BTN_Get_Port_State+0xfc>
     b34:	10 e0       	ldi	r17, 0x00	; 0
     b36:	11 23       	and	r17, r17
     b38:	61 f1       	breq	.+88     	; 0xb92 <BTN_Get_Port_State+0x158>
     b3a:	69 81       	ldd	r22, Y+1	; 0x01
     b3c:	7a 81       	ldd	r23, Y+2	; 0x02
     b3e:	8b 81       	ldd	r24, Y+3	; 0x03
     b40:	9c 81       	ldd	r25, Y+4	; 0x04
     b42:	20 e0       	ldi	r18, 0x00	; 0
     b44:	30 e0       	ldi	r19, 0x00	; 0
     b46:	40 e2       	ldi	r20, 0x20	; 32
     b48:	51 e4       	ldi	r21, 0x41	; 65
     b4a:	0e 94 38 2e 	call	0x5c70	; 0x5c70 <__mulsf3>
     b4e:	dc 01       	movw	r26, r24
     b50:	cb 01       	movw	r24, r22
     b52:	bc 01       	movw	r22, r24
     b54:	cd 01       	movw	r24, r26
     b56:	0e 94 56 2d 	call	0x5aac	; 0x5aac <__fixunssfsi>
     b5a:	dc 01       	movw	r26, r24
     b5c:	cb 01       	movw	r24, r22
     b5e:	9a 87       	std	Y+10, r25	; 0x0a
     b60:	89 87       	std	Y+9, r24	; 0x09
     b62:	12 c0       	rjmp	.+36     	; 0xb88 <BTN_Get_Port_State+0x14e>
     b64:	80 e9       	ldi	r24, 0x90	; 144
     b66:	91 e0       	ldi	r25, 0x01	; 1
     b68:	9c 87       	std	Y+12, r25	; 0x0c
     b6a:	8b 87       	std	Y+11, r24	; 0x0b
     b6c:	8b 85       	ldd	r24, Y+11	; 0x0b
     b6e:	9c 85       	ldd	r25, Y+12	; 0x0c
     b70:	8c 01       	movw	r16, r24
     b72:	c8 01       	movw	r24, r16
     b74:	01 97       	sbiw	r24, 0x01	; 1
     b76:	f1 f7       	brne	.-4      	; 0xb74 <BTN_Get_Port_State+0x13a>
     b78:	8c 01       	movw	r16, r24
     b7a:	1c 87       	std	Y+12, r17	; 0x0c
     b7c:	0b 87       	std	Y+11, r16	; 0x0b
     b7e:	89 85       	ldd	r24, Y+9	; 0x09
     b80:	9a 85       	ldd	r25, Y+10	; 0x0a
     b82:	01 97       	sbiw	r24, 0x01	; 1
     b84:	9a 87       	std	Y+10, r25	; 0x0a
     b86:	89 87       	std	Y+9, r24	; 0x09
     b88:	89 85       	ldd	r24, Y+9	; 0x09
     b8a:	9a 85       	ldd	r25, Y+10	; 0x0a
     b8c:	00 97       	sbiw	r24, 0x00	; 0
     b8e:	51 f7       	brne	.-44     	; 0xb64 <BTN_Get_Port_State+0x12a>
     b90:	17 c0       	rjmp	.+46     	; 0xbc0 <BTN_Get_Port_State+0x186>
     b92:	6d 81       	ldd	r22, Y+5	; 0x05
     b94:	7e 81       	ldd	r23, Y+6	; 0x06
     b96:	8f 81       	ldd	r24, Y+7	; 0x07
     b98:	98 85       	ldd	r25, Y+8	; 0x08
     b9a:	0e 94 56 2d 	call	0x5aac	; 0x5aac <__fixunssfsi>
     b9e:	dc 01       	movw	r26, r24
     ba0:	cb 01       	movw	r24, r22
     ba2:	9a 87       	std	Y+10, r25	; 0x0a
     ba4:	89 87       	std	Y+9, r24	; 0x09
     ba6:	89 85       	ldd	r24, Y+9	; 0x09
     ba8:	9a 85       	ldd	r25, Y+10	; 0x0a
     baa:	9e 87       	std	Y+14, r25	; 0x0e
     bac:	8d 87       	std	Y+13, r24	; 0x0d
     bae:	8d 85       	ldd	r24, Y+13	; 0x0d
     bb0:	9e 85       	ldd	r25, Y+14	; 0x0e
     bb2:	8c 01       	movw	r16, r24
     bb4:	f8 01       	movw	r30, r16
     bb6:	31 97       	sbiw	r30, 0x01	; 1
     bb8:	f1 f7       	brne	.-4      	; 0xbb6 <BTN_Get_Port_State+0x17c>
     bba:	8f 01       	movw	r16, r30
     bbc:	1e 87       	std	Y+14, r17	; 0x0e
     bbe:	0d 87       	std	Y+13, r16	; 0x0d
     bc0:	83 e3       	ldi	r24, 0x33	; 51
     bc2:	90 e0       	ldi	r25, 0x00	; 0
     bc4:	fc 01       	movw	r30, r24
     bc6:	80 81       	ld	r24, Z
     bc8:	80 95       	com	r24
     bca:	80 93 a4 03 	sts	0x03A4, r24
     bce:	85 e3       	ldi	r24, 0x35	; 53
     bd0:	90 e0       	ldi	r25, 0x00	; 0
     bd2:	2f 85       	ldd	r18, Y+15	; 0x0f
     bd4:	fc 01       	movw	r30, r24
     bd6:	20 83       	st	Z, r18
     bd8:	84 e3       	ldi	r24, 0x34	; 52
     bda:	90 e0       	ldi	r25, 0x00	; 0
     bdc:	28 89       	ldd	r18, Y+16	; 0x10
     bde:	fc 01       	movw	r30, r24
     be0:	20 83       	st	Z, r18
     be2:	80 91 a4 03 	lds	r24, 0x03A4
     be6:	60 96       	adiw	r28, 0x10	; 16
     be8:	0f b6       	in	r0, 0x3f	; 63
     bea:	f8 94       	cli
     bec:	de bf       	out	0x3e, r29	; 62
     bee:	0f be       	out	0x3f, r0	; 63
     bf0:	cd bf       	out	0x3d, r28	; 61
     bf2:	cf 91       	pop	r28
     bf4:	df 91       	pop	r29
     bf6:	1f 91       	pop	r17
     bf8:	0f 91       	pop	r16
     bfa:	08 95       	ret

00000bfc <BTN_Debounce>:
     bfc:	df 93       	push	r29
     bfe:	cf 93       	push	r28
     c00:	00 d0       	rcall	.+0      	; 0xc02 <BTN_Debounce+0x6>
     c02:	0f 92       	push	r0
     c04:	cd b7       	in	r28, 0x3d	; 61
     c06:	de b7       	in	r29, 0x3e	; 62
     c08:	9a 83       	std	Y+2, r25	; 0x02
     c0a:	89 83       	std	Y+1, r24	; 0x01
     c0c:	6b 83       	std	Y+3, r22	; 0x03
     c0e:	89 81       	ldd	r24, Y+1	; 0x01
     c10:	9a 81       	ldd	r25, Y+2	; 0x02
     c12:	fc 01       	movw	r30, r24
     c14:	91 81       	ldd	r25, Z+1	; 0x01
     c16:	8b 81       	ldd	r24, Y+3	; 0x03
     c18:	98 17       	cp	r25, r24
     c1a:	d1 f0       	breq	.+52     	; 0xc50 <BTN_Debounce+0x54>
     c1c:	89 81       	ldd	r24, Y+1	; 0x01
     c1e:	9a 81       	ldd	r25, Y+2	; 0x02
     c20:	fc 01       	movw	r30, r24
     c22:	80 81       	ld	r24, Z
     c24:	82 30       	cpi	r24, 0x02	; 2
     c26:	a0 f0       	brcs	.+40     	; 0xc50 <BTN_Debounce+0x54>
     c28:	89 81       	ldd	r24, Y+1	; 0x01
     c2a:	9a 81       	ldd	r25, Y+2	; 0x02
     c2c:	2b 81       	ldd	r18, Y+3	; 0x03
     c2e:	fc 01       	movw	r30, r24
     c30:	21 83       	std	Z+1, r18	; 0x01
     c32:	89 81       	ldd	r24, Y+1	; 0x01
     c34:	9a 81       	ldd	r25, Y+2	; 0x02
     c36:	fc 01       	movw	r30, r24
     c38:	10 82       	st	Z, r1
     c3a:	89 81       	ldd	r24, Y+1	; 0x01
     c3c:	9a 81       	ldd	r25, Y+2	; 0x02
     c3e:	fc 01       	movw	r30, r24
     c40:	81 81       	ldd	r24, Z+1	; 0x01
     c42:	88 23       	and	r24, r24
     c44:	41 f1       	breq	.+80     	; 0xc96 <BTN_Debounce+0x9a>
     c46:	89 81       	ldd	r24, Y+1	; 0x01
     c48:	9a 81       	ldd	r25, Y+2	; 0x02
     c4a:	fc 01       	movw	r30, r24
     c4c:	81 81       	ldd	r24, Z+1	; 0x01
     c4e:	24 c0       	rjmp	.+72     	; 0xc98 <BTN_Debounce+0x9c>
     c50:	89 81       	ldd	r24, Y+1	; 0x01
     c52:	9a 81       	ldd	r25, Y+2	; 0x02
     c54:	fc 01       	movw	r30, r24
     c56:	91 81       	ldd	r25, Z+1	; 0x01
     c58:	8b 81       	ldd	r24, Y+3	; 0x03
     c5a:	98 17       	cp	r25, r24
     c5c:	89 f0       	breq	.+34     	; 0xc80 <BTN_Debounce+0x84>
     c5e:	89 81       	ldd	r24, Y+1	; 0x01
     c60:	9a 81       	ldd	r25, Y+2	; 0x02
     c62:	fc 01       	movw	r30, r24
     c64:	80 81       	ld	r24, Z
     c66:	82 30       	cpi	r24, 0x02	; 2
     c68:	58 f4       	brcc	.+22     	; 0xc80 <BTN_Debounce+0x84>
     c6a:	89 81       	ldd	r24, Y+1	; 0x01
     c6c:	9a 81       	ldd	r25, Y+2	; 0x02
     c6e:	fc 01       	movw	r30, r24
     c70:	80 81       	ld	r24, Z
     c72:	28 2f       	mov	r18, r24
     c74:	2f 5f       	subi	r18, 0xFF	; 255
     c76:	89 81       	ldd	r24, Y+1	; 0x01
     c78:	9a 81       	ldd	r25, Y+2	; 0x02
     c7a:	fc 01       	movw	r30, r24
     c7c:	20 83       	st	Z, r18
     c7e:	0b c0       	rjmp	.+22     	; 0xc96 <BTN_Debounce+0x9a>
     c80:	89 81       	ldd	r24, Y+1	; 0x01
     c82:	9a 81       	ldd	r25, Y+2	; 0x02
     c84:	fc 01       	movw	r30, r24
     c86:	91 81       	ldd	r25, Z+1	; 0x01
     c88:	8b 81       	ldd	r24, Y+3	; 0x03
     c8a:	98 17       	cp	r25, r24
     c8c:	21 f4       	brne	.+8      	; 0xc96 <BTN_Debounce+0x9a>
     c8e:	89 81       	ldd	r24, Y+1	; 0x01
     c90:	9a 81       	ldd	r25, Y+2	; 0x02
     c92:	fc 01       	movw	r30, r24
     c94:	10 82       	st	Z, r1
     c96:	80 e0       	ldi	r24, 0x00	; 0
     c98:	0f 90       	pop	r0
     c9a:	0f 90       	pop	r0
     c9c:	0f 90       	pop	r0
     c9e:	cf 91       	pop	r28
     ca0:	df 91       	pop	r29
     ca2:	08 95       	ret

00000ca4 <BTN_Check>:
     ca4:	df 93       	push	r29
     ca6:	cf 93       	push	r28
     ca8:	0f 92       	push	r0
     caa:	cd b7       	in	r28, 0x3d	; 61
     cac:	de b7       	in	r29, 0x3e	; 62
     cae:	19 82       	std	Y+1, r1	; 0x01
     cb0:	0e 94 1d 05 	call	0xa3a	; 0xa3a <BTN_Get_Port_State>
     cb4:	80 93 a4 03 	sts	0x03A4, r24
     cb8:	20 91 a4 03 	lds	r18, 0x03A4
     cbc:	86 e7       	ldi	r24, 0x76	; 118
     cbe:	93 e0       	ldi	r25, 0x03	; 3
     cc0:	62 2f       	mov	r22, r18
     cc2:	0e 94 fe 05 	call	0xbfc	; 0xbfc <BTN_Debounce>
     cc6:	89 83       	std	Y+1, r24	; 0x01
     cc8:	80 91 0b 01 	lds	r24, 0x010B
     ccc:	88 23       	and	r24, r24
     cce:	19 f0       	breq	.+6      	; 0xcd6 <BTN_Check+0x32>
     cd0:	89 81       	ldd	r24, Y+1	; 0x01
     cd2:	88 70       	andi	r24, 0x08	; 8
     cd4:	89 83       	std	Y+1, r24	; 0x01
     cd6:	89 81       	ldd	r24, Y+1	; 0x01
     cd8:	88 2f       	mov	r24, r24
     cda:	90 e0       	ldi	r25, 0x00	; 0
     cdc:	84 30       	cpi	r24, 0x04	; 4
     cde:	91 05       	cpc	r25, r1
     ce0:	09 f4       	brne	.+2      	; 0xce4 <BTN_Check+0x40>
     ce2:	61 c0       	rjmp	.+194    	; 0xda6 <BTN_Check+0x102>
     ce4:	85 30       	cpi	r24, 0x05	; 5
     ce6:	91 05       	cpc	r25, r1
     ce8:	4c f4       	brge	.+18     	; 0xcfc <BTN_Check+0x58>
     cea:	81 30       	cpi	r24, 0x01	; 1
     cec:	91 05       	cpc	r25, r1
     cee:	09 f4       	brne	.+2      	; 0xcf2 <BTN_Check+0x4e>
     cf0:	68 c0       	rjmp	.+208    	; 0xdc2 <BTN_Check+0x11e>
     cf2:	82 30       	cpi	r24, 0x02	; 2
     cf4:	91 05       	cpc	r25, r1
     cf6:	09 f4       	brne	.+2      	; 0xcfa <BTN_Check+0x56>
     cf8:	5d c0       	rjmp	.+186    	; 0xdb4 <BTN_Check+0x110>
     cfa:	77 c0       	rjmp	.+238    	; 0xdea <BTN_Check+0x146>
     cfc:	80 31       	cpi	r24, 0x10	; 16
     cfe:	91 05       	cpc	r25, r1
     d00:	b9 f1       	breq	.+110    	; 0xd70 <BTN_Check+0xcc>
     d02:	81 31       	cpi	r24, 0x11	; 17
     d04:	91 05       	cpc	r25, r1
     d06:	2c f4       	brge	.+10     	; 0xd12 <BTN_Check+0x6e>
     d08:	88 30       	cpi	r24, 0x08	; 8
     d0a:	91 05       	cpc	r25, r1
     d0c:	09 f4       	brne	.+2      	; 0xd10 <BTN_Check+0x6c>
     d0e:	3d c0       	rjmp	.+122    	; 0xd8a <BTN_Check+0xe6>
     d10:	6c c0       	rjmp	.+216    	; 0xdea <BTN_Check+0x146>
     d12:	80 32       	cpi	r24, 0x20	; 32
     d14:	91 05       	cpc	r25, r1
     d16:	99 f0       	breq	.+38     	; 0xd3e <BTN_Check+0x9a>
     d18:	80 34       	cpi	r24, 0x40	; 64
     d1a:	91 05       	cpc	r25, r1
     d1c:	09 f0       	breq	.+2      	; 0xd20 <BTN_Check+0x7c>
     d1e:	58 c0       	rjmp	.+176    	; 0xdd0 <BTN_Check+0x12c>
     d20:	80 91 99 03 	lds	r24, 0x0399
     d24:	88 23       	and	r24, r24
     d26:	31 f4       	brne	.+12     	; 0xd34 <BTN_Check+0x90>
     d28:	81 e0       	ldi	r24, 0x01	; 1
     d2a:	80 93 99 03 	sts	0x0399, r24
     d2e:	0e 94 d0 28 	call	0x51a0	; 0x51a0 <STATE_Set>
     d32:	5b c0       	rjmp	.+182    	; 0xdea <BTN_Check+0x146>
     d34:	10 92 99 03 	sts	0x0399, r1
     d38:	0e 94 d0 28 	call	0x51a0	; 0x51a0 <STATE_Set>
     d3c:	56 c0       	rjmp	.+172    	; 0xdea <BTN_Check+0x146>
     d3e:	80 91 80 03 	lds	r24, 0x0380
     d42:	88 23       	and	r24, r24
     d44:	09 f0       	breq	.+2      	; 0xd48 <BTN_Check+0xa4>
     d46:	46 c0       	rjmp	.+140    	; 0xdd4 <BTN_Check+0x130>
     d48:	80 91 99 03 	lds	r24, 0x0399
     d4c:	84 30       	cpi	r24, 0x04	; 4
     d4e:	31 f4       	brne	.+12     	; 0xd5c <BTN_Check+0xb8>
     d50:	81 e0       	ldi	r24, 0x01	; 1
     d52:	80 93 99 03 	sts	0x0399, r24
     d56:	0e 94 d0 28 	call	0x51a0	; 0x51a0 <STATE_Set>
     d5a:	47 c0       	rjmp	.+142    	; 0xdea <BTN_Check+0x146>
     d5c:	80 91 99 03 	lds	r24, 0x0399
     d60:	88 23       	and	r24, r24
     d62:	d1 f1       	breq	.+116    	; 0xdd8 <BTN_Check+0x134>
     d64:	84 e0       	ldi	r24, 0x04	; 4
     d66:	80 93 99 03 	sts	0x0399, r24
     d6a:	0e 94 d0 28 	call	0x51a0	; 0x51a0 <STATE_Set>
     d6e:	3d c0       	rjmp	.+122    	; 0xdea <BTN_Check+0x146>
     d70:	80 91 80 03 	lds	r24, 0x0380
     d74:	88 23       	and	r24, r24
     d76:	19 f0       	breq	.+6      	; 0xd7e <BTN_Check+0xda>
     d78:	0e 94 9e 1c 	call	0x393c	; 0x393c <MENU_Out>
     d7c:	36 c0       	rjmp	.+108    	; 0xdea <BTN_Check+0x146>
     d7e:	81 e0       	ldi	r24, 0x01	; 1
     d80:	80 93 80 03 	sts	0x0380, r24
     d84:	0e 94 43 1b 	call	0x3686	; 0x3686 <MENU_Draw>
     d88:	30 c0       	rjmp	.+96     	; 0xdea <BTN_Check+0x146>
     d8a:	80 91 0b 01 	lds	r24, 0x010B
     d8e:	88 23       	and	r24, r24
     d90:	29 f1       	breq	.+74     	; 0xddc <BTN_Check+0x138>
     d92:	8e e4       	ldi	r24, 0x4E	; 78
     d94:	92 e0       	ldi	r25, 0x02	; 2
     d96:	90 93 60 02 	sts	0x0260, r25
     d9a:	80 93 5f 02 	sts	0x025F, r24
     d9e:	80 e0       	ldi	r24, 0x00	; 0
     da0:	0e 94 23 1d 	call	0x3a46	; 0x3a46 <MENU_Process>
     da4:	22 c0       	rjmp	.+68     	; 0xdea <BTN_Check+0x146>
     da6:	80 91 80 03 	lds	r24, 0x0380
     daa:	88 23       	and	r24, r24
     dac:	c9 f0       	breq	.+50     	; 0xde0 <BTN_Check+0x13c>
     dae:	0e 94 12 1c 	call	0x3824	; 0x3824 <MENU_Down>
     db2:	1b c0       	rjmp	.+54     	; 0xdea <BTN_Check+0x146>
     db4:	80 91 80 03 	lds	r24, 0x0380
     db8:	88 23       	and	r24, r24
     dba:	a1 f0       	breq	.+40     	; 0xde4 <BTN_Check+0x140>
     dbc:	0e 94 de 1c 	call	0x39bc	; 0x39bc <MENU_In>
     dc0:	14 c0       	rjmp	.+40     	; 0xdea <BTN_Check+0x146>
     dc2:	80 91 80 03 	lds	r24, 0x0380
     dc6:	88 23       	and	r24, r24
     dc8:	79 f0       	breq	.+30     	; 0xde8 <BTN_Check+0x144>
     dca:	0e 94 48 1c 	call	0x3890	; 0x3890 <MENU_Up>
     dce:	0d c0       	rjmp	.+26     	; 0xdea <BTN_Check+0x146>
     dd0:	00 00       	nop
     dd2:	0b c0       	rjmp	.+22     	; 0xdea <BTN_Check+0x146>
     dd4:	00 00       	nop
     dd6:	09 c0       	rjmp	.+18     	; 0xdea <BTN_Check+0x146>
     dd8:	00 00       	nop
     dda:	07 c0       	rjmp	.+14     	; 0xdea <BTN_Check+0x146>
     ddc:	00 00       	nop
     dde:	05 c0       	rjmp	.+10     	; 0xdea <BTN_Check+0x146>
     de0:	00 00       	nop
     de2:	03 c0       	rjmp	.+6      	; 0xdea <BTN_Check+0x146>
     de4:	00 00       	nop
     de6:	01 c0       	rjmp	.+2      	; 0xdea <BTN_Check+0x146>
     de8:	00 00       	nop
     dea:	0f 90       	pop	r0
     dec:	cf 91       	pop	r28
     dee:	df 91       	pop	r29
     df0:	08 95       	ret

00000df2 <__iCliRetVal>:
     df2:	df 93       	push	r29
     df4:	cf 93       	push	r28
     df6:	cd b7       	in	r28, 0x3d	; 61
     df8:	de b7       	in	r29, 0x3e	; 62
     dfa:	f8 94       	cli
     dfc:	81 e0       	ldi	r24, 0x01	; 1
     dfe:	cf 91       	pop	r28
     e00:	df 91       	pop	r29
     e02:	08 95       	ret

00000e04 <__iRestore>:
     e04:	df 93       	push	r29
     e06:	cf 93       	push	r28
     e08:	00 d0       	rcall	.+0      	; 0xe0a <__iRestore+0x6>
     e0a:	cd b7       	in	r28, 0x3d	; 61
     e0c:	de b7       	in	r29, 0x3e	; 62
     e0e:	9a 83       	std	Y+2, r25	; 0x02
     e10:	89 83       	std	Y+1, r24	; 0x01
     e12:	8f e5       	ldi	r24, 0x5F	; 95
     e14:	90 e0       	ldi	r25, 0x00	; 0
     e16:	29 81       	ldd	r18, Y+1	; 0x01
     e18:	3a 81       	ldd	r19, Y+2	; 0x02
     e1a:	f9 01       	movw	r30, r18
     e1c:	20 81       	ld	r18, Z
     e1e:	fc 01       	movw	r30, r24
     e20:	20 83       	st	Z, r18
     e22:	0f 90       	pop	r0
     e24:	0f 90       	pop	r0
     e26:	cf 91       	pop	r28
     e28:	df 91       	pop	r29
     e2a:	08 95       	ret

00000e2c <COND_Init>:
     e2c:	df 93       	push	r29
     e2e:	cf 93       	push	r28
     e30:	cd b7       	in	r28, 0x3d	; 61
     e32:	de b7       	in	r29, 0x3e	; 62
     e34:	10 92 79 03 	sts	0x0379, r1
     e38:	10 92 78 03 	sts	0x0378, r1
     e3c:	0e 94 08 09 	call	0x1210	; 0x1210 <COND_Set_Grade2>
     e40:	85 e5       	ldi	r24, 0x55	; 85
     e42:	90 e0       	ldi	r25, 0x00	; 0
     e44:	25 e5       	ldi	r18, 0x55	; 85
     e46:	30 e0       	ldi	r19, 0x00	; 0
     e48:	f9 01       	movw	r30, r18
     e4a:	20 81       	ld	r18, Z
     e4c:	2a 60       	ori	r18, 0x0A	; 10
     e4e:	fc 01       	movw	r30, r24
     e50:	20 83       	st	Z, r18
     e52:	8f e4       	ldi	r24, 0x4F	; 79
     e54:	90 e0       	ldi	r25, 0x00	; 0
     e56:	fc 01       	movw	r30, r24
     e58:	10 82       	st	Z, r1
     e5a:	8e e4       	ldi	r24, 0x4E	; 78
     e5c:	90 e0       	ldi	r25, 0x00	; 0
     e5e:	25 e0       	ldi	r18, 0x05	; 5
     e60:	fc 01       	movw	r30, r24
     e62:	20 83       	st	Z, r18
     e64:	89 e5       	ldi	r24, 0x59	; 89
     e66:	90 e0       	ldi	r25, 0x00	; 0
     e68:	29 e5       	ldi	r18, 0x59	; 89
     e6a:	30 e0       	ldi	r19, 0x00	; 0
     e6c:	f9 01       	movw	r30, r18
     e6e:	20 81       	ld	r18, Z
     e70:	24 60       	ori	r18, 0x04	; 4
     e72:	fc 01       	movw	r30, r24
     e74:	20 83       	st	Z, r18
     e76:	cf 91       	pop	r28
     e78:	df 91       	pop	r29
     e7a:	08 95       	ret

00000e7c <__vector_9>:
     e7c:	1f 92       	push	r1
     e7e:	0f 92       	push	r0
     e80:	0f b6       	in	r0, 0x3f	; 63
     e82:	0f 92       	push	r0
     e84:	11 24       	eor	r1, r1
     e86:	8f 93       	push	r24
     e88:	df 93       	push	r29
     e8a:	cf 93       	push	r28
     e8c:	cd b7       	in	r28, 0x3d	; 61
     e8e:	de b7       	in	r29, 0x3e	; 62
     e90:	81 e0       	ldi	r24, 0x01	; 1
     e92:	80 93 83 00 	sts	0x0083, r24
     e96:	cf 91       	pop	r28
     e98:	df 91       	pop	r29
     e9a:	8f 91       	pop	r24
     e9c:	0f 90       	pop	r0
     e9e:	0f be       	out	0x3f, r0	; 63
     ea0:	0f 90       	pop	r0
     ea2:	1f 90       	pop	r1
     ea4:	18 95       	reti

00000ea6 <__vector_2>:
     ea6:	1f 92       	push	r1
     ea8:	0f 92       	push	r0
     eaa:	0f b6       	in	r0, 0x3f	; 63
     eac:	0f 92       	push	r0
     eae:	11 24       	eor	r1, r1
     eb0:	ef 92       	push	r14
     eb2:	ff 92       	push	r15
     eb4:	0f 93       	push	r16
     eb6:	1f 93       	push	r17
     eb8:	2f 93       	push	r18
     eba:	3f 93       	push	r19
     ebc:	4f 93       	push	r20
     ebe:	5f 93       	push	r21
     ec0:	6f 93       	push	r22
     ec2:	7f 93       	push	r23
     ec4:	8f 93       	push	r24
     ec6:	9f 93       	push	r25
     ec8:	af 93       	push	r26
     eca:	bf 93       	push	r27
     ecc:	ef 93       	push	r30
     ece:	ff 93       	push	r31
     ed0:	df 93       	push	r29
     ed2:	cf 93       	push	r28
     ed4:	00 d0       	rcall	.+0      	; 0xed6 <__vector_2+0x30>
     ed6:	cd b7       	in	r28, 0x3d	; 61
     ed8:	de b7       	in	r29, 0x3e	; 62
     eda:	8f e5       	ldi	r24, 0x5F	; 95
     edc:	90 e0       	ldi	r25, 0x00	; 0
     ede:	fc 01       	movw	r30, r24
     ee0:	80 81       	ld	r24, Z
     ee2:	8a 83       	std	Y+2, r24	; 0x02
     ee4:	0e 94 f9 06 	call	0xdf2	; 0xdf2 <__iCliRetVal>
     ee8:	89 83       	std	Y+1, r24	; 0x01
     eea:	6f c0       	rjmp	.+222    	; 0xfca <__vector_2+0x124>
     eec:	8c e4       	ldi	r24, 0x4C	; 76
     eee:	90 e0       	ldi	r25, 0x00	; 0
     ef0:	fc 01       	movw	r30, r24
     ef2:	80 81       	ld	r24, Z
     ef4:	91 81       	ldd	r25, Z+1	; 0x01
     ef6:	90 93 a6 03 	sts	0x03A6, r25
     efa:	80 93 a5 03 	sts	0x03A5, r24
     efe:	8c e4       	ldi	r24, 0x4C	; 76
     f00:	90 e0       	ldi	r25, 0x00	; 0
     f02:	fc 01       	movw	r30, r24
     f04:	11 82       	std	Z+1, r1	; 0x01
     f06:	10 82       	st	Z, r1
     f08:	80 91 60 00 	lds	r24, 0x0060
     f0c:	28 2f       	mov	r18, r24
     f0e:	30 e0       	ldi	r19, 0x00	; 0
     f10:	80 91 a5 03 	lds	r24, 0x03A5
     f14:	90 91 a6 03 	lds	r25, 0x03A6
     f18:	28 17       	cp	r18, r24
     f1a:	39 07       	cpc	r19, r25
     f1c:	08 f0       	brcs	.+2      	; 0xf20 <__vector_2+0x7a>
     f1e:	45 c0       	rjmp	.+138    	; 0xfaa <__vector_2+0x104>
     f20:	80 91 a5 03 	lds	r24, 0x03A5
     f24:	90 91 a6 03 	lds	r25, 0x03A6
     f28:	cc 01       	movw	r24, r24
     f2a:	a0 e0       	ldi	r26, 0x00	; 0
     f2c:	b0 e0       	ldi	r27, 0x00	; 0
     f2e:	bc 01       	movw	r22, r24
     f30:	cd 01       	movw	r24, r26
     f32:	0e 94 82 2d 	call	0x5b04	; 0x5b04 <__floatunsisf>
     f36:	dc 01       	movw	r26, r24
     f38:	cb 01       	movw	r24, r22
     f3a:	bc 01       	movw	r22, r24
     f3c:	cd 01       	movw	r24, r26
     f3e:	2d ec       	ldi	r18, 0xCD	; 205
     f40:	3c ec       	ldi	r19, 0xCC	; 204
     f42:	4c ec       	ldi	r20, 0xCC	; 204
     f44:	5d e3       	ldi	r21, 0x3D	; 61
     f46:	0e 94 38 2e 	call	0x5c70	; 0x5c70 <__mulsf3>
     f4a:	dc 01       	movw	r26, r24
     f4c:	cb 01       	movw	r24, r22
     f4e:	7c 01       	movw	r14, r24
     f50:	8d 01       	movw	r16, r26
     f52:	80 91 74 00 	lds	r24, 0x0074
     f56:	90 91 75 00 	lds	r25, 0x0075
     f5a:	cc 01       	movw	r24, r24
     f5c:	a0 e0       	ldi	r26, 0x00	; 0
     f5e:	b0 e0       	ldi	r27, 0x00	; 0
     f60:	bc 01       	movw	r22, r24
     f62:	cd 01       	movw	r24, r26
     f64:	0e 94 82 2d 	call	0x5b04	; 0x5b04 <__floatunsisf>
     f68:	dc 01       	movw	r26, r24
     f6a:	cb 01       	movw	r24, r22
     f6c:	bc 01       	movw	r22, r24
     f6e:	cd 01       	movw	r24, r26
     f70:	26 e6       	ldi	r18, 0x66	; 102
     f72:	36 e6       	ldi	r19, 0x66	; 102
     f74:	46 e6       	ldi	r20, 0x66	; 102
     f76:	5f e3       	ldi	r21, 0x3F	; 63
     f78:	0e 94 38 2e 	call	0x5c70	; 0x5c70 <__mulsf3>
     f7c:	dc 01       	movw	r26, r24
     f7e:	cb 01       	movw	r24, r22
     f80:	9c 01       	movw	r18, r24
     f82:	ad 01       	movw	r20, r26
     f84:	c8 01       	movw	r24, r16
     f86:	b7 01       	movw	r22, r14
     f88:	0e 94 86 2c 	call	0x590c	; 0x590c <__addsf3>
     f8c:	dc 01       	movw	r26, r24
     f8e:	cb 01       	movw	r24, r22
     f90:	bc 01       	movw	r22, r24
     f92:	cd 01       	movw	r24, r26
     f94:	0e 94 56 2d 	call	0x5aac	; 0x5aac <__fixunssfsi>
     f98:	dc 01       	movw	r26, r24
     f9a:	cb 01       	movw	r24, r22
     f9c:	90 93 75 00 	sts	0x0075, r25
     fa0:	80 93 74 00 	sts	0x0074, r24
     fa4:	10 92 7b 03 	sts	0x037B, r1
     fa8:	0f c0       	rjmp	.+30     	; 0xfc8 <__vector_2+0x122>
     faa:	80 91 7b 03 	lds	r24, 0x037B
     fae:	8f 5f       	subi	r24, 0xFF	; 255
     fb0:	80 93 7b 03 	sts	0x037B, r24
     fb4:	80 91 7b 03 	lds	r24, 0x037B
     fb8:	85 36       	cpi	r24, 0x65	; 101
     fba:	30 f0       	brcs	.+12     	; 0xfc8 <__vector_2+0x122>
     fbc:	10 92 7b 03 	sts	0x037B, r1
     fc0:	10 92 75 00 	sts	0x0075, r1
     fc4:	10 92 74 00 	sts	0x0074, r1
     fc8:	19 82       	std	Y+1, r1	; 0x01
     fca:	89 81       	ldd	r24, Y+1	; 0x01
     fcc:	88 23       	and	r24, r24
     fce:	09 f0       	breq	.+2      	; 0xfd2 <__vector_2+0x12c>
     fd0:	8d cf       	rjmp	.-230    	; 0xeec <__vector_2+0x46>
     fd2:	ce 01       	movw	r24, r28
     fd4:	02 96       	adiw	r24, 0x02	; 2
     fd6:	0e 94 02 07 	call	0xe04	; 0xe04 <__iRestore>
     fda:	10 92 83 00 	sts	0x0083, r1
     fde:	8a e5       	ldi	r24, 0x5A	; 90
     fe0:	90 e0       	ldi	r25, 0x00	; 0
     fe2:	2a e5       	ldi	r18, 0x5A	; 90
     fe4:	30 e0       	ldi	r19, 0x00	; 0
     fe6:	f9 01       	movw	r30, r18
     fe8:	20 81       	ld	r18, Z
     fea:	20 68       	ori	r18, 0x80	; 128
     fec:	fc 01       	movw	r30, r24
     fee:	20 83       	st	Z, r18
     ff0:	0f 90       	pop	r0
     ff2:	0f 90       	pop	r0
     ff4:	cf 91       	pop	r28
     ff6:	df 91       	pop	r29
     ff8:	ff 91       	pop	r31
     ffa:	ef 91       	pop	r30
     ffc:	bf 91       	pop	r27
     ffe:	af 91       	pop	r26
    1000:	9f 91       	pop	r25
    1002:	8f 91       	pop	r24
    1004:	7f 91       	pop	r23
    1006:	6f 91       	pop	r22
    1008:	5f 91       	pop	r21
    100a:	4f 91       	pop	r20
    100c:	3f 91       	pop	r19
    100e:	2f 91       	pop	r18
    1010:	1f 91       	pop	r17
    1012:	0f 91       	pop	r16
    1014:	ff 90       	pop	r15
    1016:	ef 90       	pop	r14
    1018:	0f 90       	pop	r0
    101a:	0f be       	out	0x3f, r0	; 63
    101c:	0f 90       	pop	r0
    101e:	1f 90       	pop	r1
    1020:	18 95       	reti

00001022 <__vector_1>:
    1022:	1f 92       	push	r1
    1024:	0f 92       	push	r0
    1026:	0f b6       	in	r0, 0x3f	; 63
    1028:	0f 92       	push	r0
    102a:	11 24       	eor	r1, r1
    102c:	ef 92       	push	r14
    102e:	ff 92       	push	r15
    1030:	0f 93       	push	r16
    1032:	1f 93       	push	r17
    1034:	2f 93       	push	r18
    1036:	3f 93       	push	r19
    1038:	4f 93       	push	r20
    103a:	5f 93       	push	r21
    103c:	6f 93       	push	r22
    103e:	7f 93       	push	r23
    1040:	8f 93       	push	r24
    1042:	9f 93       	push	r25
    1044:	af 93       	push	r26
    1046:	bf 93       	push	r27
    1048:	ef 93       	push	r30
    104a:	ff 93       	push	r31
    104c:	df 93       	push	r29
    104e:	cf 93       	push	r28
    1050:	00 d0       	rcall	.+0      	; 0x1052 <__vector_1+0x30>
    1052:	cd b7       	in	r28, 0x3d	; 61
    1054:	de b7       	in	r29, 0x3e	; 62
    1056:	8f e5       	ldi	r24, 0x5F	; 95
    1058:	90 e0       	ldi	r25, 0x00	; 0
    105a:	fc 01       	movw	r30, r24
    105c:	80 81       	ld	r24, Z
    105e:	8a 83       	std	Y+2, r24	; 0x02
    1060:	0e 94 f9 06 	call	0xdf2	; 0xdf2 <__iCliRetVal>
    1064:	89 83       	std	Y+1, r24	; 0x01
    1066:	6f c0       	rjmp	.+222    	; 0x1146 <__vector_1+0x124>
    1068:	8c e4       	ldi	r24, 0x4C	; 76
    106a:	90 e0       	ldi	r25, 0x00	; 0
    106c:	fc 01       	movw	r30, r24
    106e:	80 81       	ld	r24, Z
    1070:	91 81       	ldd	r25, Z+1	; 0x01
    1072:	90 93 a6 03 	sts	0x03A6, r25
    1076:	80 93 a5 03 	sts	0x03A5, r24
    107a:	8c e4       	ldi	r24, 0x4C	; 76
    107c:	90 e0       	ldi	r25, 0x00	; 0
    107e:	fc 01       	movw	r30, r24
    1080:	11 82       	std	Z+1, r1	; 0x01
    1082:	10 82       	st	Z, r1
    1084:	80 91 60 00 	lds	r24, 0x0060
    1088:	28 2f       	mov	r18, r24
    108a:	30 e0       	ldi	r19, 0x00	; 0
    108c:	80 91 a5 03 	lds	r24, 0x03A5
    1090:	90 91 a6 03 	lds	r25, 0x03A6
    1094:	28 17       	cp	r18, r24
    1096:	39 07       	cpc	r19, r25
    1098:	08 f0       	brcs	.+2      	; 0x109c <__vector_1+0x7a>
    109a:	45 c0       	rjmp	.+138    	; 0x1126 <__vector_1+0x104>
    109c:	80 91 72 00 	lds	r24, 0x0072
    10a0:	90 91 73 00 	lds	r25, 0x0073
    10a4:	cc 01       	movw	r24, r24
    10a6:	a0 e0       	ldi	r26, 0x00	; 0
    10a8:	b0 e0       	ldi	r27, 0x00	; 0
    10aa:	bc 01       	movw	r22, r24
    10ac:	cd 01       	movw	r24, r26
    10ae:	0e 94 82 2d 	call	0x5b04	; 0x5b04 <__floatunsisf>
    10b2:	dc 01       	movw	r26, r24
    10b4:	cb 01       	movw	r24, r22
    10b6:	bc 01       	movw	r22, r24
    10b8:	cd 01       	movw	r24, r26
    10ba:	2a e9       	ldi	r18, 0x9A	; 154
    10bc:	39 e9       	ldi	r19, 0x99	; 153
    10be:	49 e9       	ldi	r20, 0x99	; 153
    10c0:	5e e3       	ldi	r21, 0x3E	; 62
    10c2:	0e 94 38 2e 	call	0x5c70	; 0x5c70 <__mulsf3>
    10c6:	dc 01       	movw	r26, r24
    10c8:	cb 01       	movw	r24, r22
    10ca:	7c 01       	movw	r14, r24
    10cc:	8d 01       	movw	r16, r26
    10ce:	80 91 a5 03 	lds	r24, 0x03A5
    10d2:	90 91 a6 03 	lds	r25, 0x03A6
    10d6:	cc 01       	movw	r24, r24
    10d8:	a0 e0       	ldi	r26, 0x00	; 0
    10da:	b0 e0       	ldi	r27, 0x00	; 0
    10dc:	bc 01       	movw	r22, r24
    10de:	cd 01       	movw	r24, r26
    10e0:	0e 94 82 2d 	call	0x5b04	; 0x5b04 <__floatunsisf>
    10e4:	dc 01       	movw	r26, r24
    10e6:	cb 01       	movw	r24, r22
    10e8:	bc 01       	movw	r22, r24
    10ea:	cd 01       	movw	r24, r26
    10ec:	23 e3       	ldi	r18, 0x33	; 51
    10ee:	33 e3       	ldi	r19, 0x33	; 51
    10f0:	43 e3       	ldi	r20, 0x33	; 51
    10f2:	5f e3       	ldi	r21, 0x3F	; 63
    10f4:	0e 94 38 2e 	call	0x5c70	; 0x5c70 <__mulsf3>
    10f8:	dc 01       	movw	r26, r24
    10fa:	cb 01       	movw	r24, r22
    10fc:	9c 01       	movw	r18, r24
    10fe:	ad 01       	movw	r20, r26
    1100:	c8 01       	movw	r24, r16
    1102:	b7 01       	movw	r22, r14
    1104:	0e 94 86 2c 	call	0x590c	; 0x590c <__addsf3>
    1108:	dc 01       	movw	r26, r24
    110a:	cb 01       	movw	r24, r22
    110c:	bc 01       	movw	r22, r24
    110e:	cd 01       	movw	r24, r26
    1110:	0e 94 56 2d 	call	0x5aac	; 0x5aac <__fixunssfsi>
    1114:	dc 01       	movw	r26, r24
    1116:	cb 01       	movw	r24, r22
    1118:	90 93 73 00 	sts	0x0073, r25
    111c:	80 93 72 00 	sts	0x0072, r24
    1120:	10 92 7b 03 	sts	0x037B, r1
    1124:	0f c0       	rjmp	.+30     	; 0x1144 <__vector_1+0x122>
    1126:	80 91 7b 03 	lds	r24, 0x037B
    112a:	8f 5f       	subi	r24, 0xFF	; 255
    112c:	80 93 7b 03 	sts	0x037B, r24
    1130:	80 91 7b 03 	lds	r24, 0x037B
    1134:	85 36       	cpi	r24, 0x65	; 101
    1136:	30 f0       	brcs	.+12     	; 0x1144 <__vector_1+0x122>
    1138:	10 92 7b 03 	sts	0x037B, r1
    113c:	10 92 73 00 	sts	0x0073, r1
    1140:	10 92 72 00 	sts	0x0072, r1
    1144:	19 82       	std	Y+1, r1	; 0x01
    1146:	89 81       	ldd	r24, Y+1	; 0x01
    1148:	88 23       	and	r24, r24
    114a:	09 f0       	breq	.+2      	; 0x114e <__vector_1+0x12c>
    114c:	8d cf       	rjmp	.-230    	; 0x1068 <__vector_1+0x46>
    114e:	ce 01       	movw	r24, r28
    1150:	02 96       	adiw	r24, 0x02	; 2
    1152:	0e 94 02 07 	call	0xe04	; 0xe04 <__iRestore>
    1156:	10 92 83 00 	sts	0x0083, r1
    115a:	8a e5       	ldi	r24, 0x5A	; 90
    115c:	90 e0       	ldi	r25, 0x00	; 0
    115e:	2a e5       	ldi	r18, 0x5A	; 90
    1160:	30 e0       	ldi	r19, 0x00	; 0
    1162:	f9 01       	movw	r30, r18
    1164:	20 81       	ld	r18, Z
    1166:	20 64       	ori	r18, 0x40	; 64
    1168:	fc 01       	movw	r30, r24
    116a:	20 83       	st	Z, r18
    116c:	0f 90       	pop	r0
    116e:	0f 90       	pop	r0
    1170:	cf 91       	pop	r28
    1172:	df 91       	pop	r29
    1174:	ff 91       	pop	r31
    1176:	ef 91       	pop	r30
    1178:	bf 91       	pop	r27
    117a:	af 91       	pop	r26
    117c:	9f 91       	pop	r25
    117e:	8f 91       	pop	r24
    1180:	7f 91       	pop	r23
    1182:	6f 91       	pop	r22
    1184:	5f 91       	pop	r21
    1186:	4f 91       	pop	r20
    1188:	3f 91       	pop	r19
    118a:	2f 91       	pop	r18
    118c:	1f 91       	pop	r17
    118e:	0f 91       	pop	r16
    1190:	ff 90       	pop	r15
    1192:	ef 90       	pop	r14
    1194:	0f 90       	pop	r0
    1196:	0f be       	out	0x3f, r0	; 63
    1198:	0f 90       	pop	r0
    119a:	1f 90       	pop	r1
    119c:	18 95       	reti

0000119e <COND_Set_Grade1>:
    119e:	df 93       	push	r29
    11a0:	cf 93       	push	r28
    11a2:	cd b7       	in	r28, 0x3d	; 61
    11a4:	de b7       	in	r29, 0x3e	; 62
    11a6:	8b e5       	ldi	r24, 0x5B	; 91
    11a8:	90 e0       	ldi	r25, 0x00	; 0
    11aa:	2b e5       	ldi	r18, 0x5B	; 91
    11ac:	30 e0       	ldi	r19, 0x00	; 0
    11ae:	f9 01       	movw	r30, r18
    11b0:	20 81       	ld	r18, Z
    11b2:	2f 77       	andi	r18, 0x7F	; 127
    11b4:	fc 01       	movw	r30, r24
    11b6:	20 83       	st	Z, r18
    11b8:	8b e5       	ldi	r24, 0x5B	; 91
    11ba:	90 e0       	ldi	r25, 0x00	; 0
    11bc:	2b e5       	ldi	r18, 0x5B	; 91
    11be:	30 e0       	ldi	r19, 0x00	; 0
    11c0:	f9 01       	movw	r30, r18
    11c2:	20 81       	ld	r18, Z
    11c4:	20 64       	ori	r18, 0x40	; 64
    11c6:	fc 01       	movw	r30, r24
    11c8:	20 83       	st	Z, r18
    11ca:	80 91 cd 00 	lds	r24, 0x00CD
    11ce:	88 23       	and	r24, r24
    11d0:	19 f4       	brne	.+6      	; 0x11d8 <COND_Set_Grade1+0x3a>
    11d2:	87 e0       	ldi	r24, 0x07	; 7
    11d4:	80 93 7a 00 	sts	0x007A, r24
    11d8:	10 92 cd 00 	sts	0x00CD, r1
    11dc:	81 e0       	ldi	r24, 0x01	; 1
    11de:	80 93 71 00 	sts	0x0071, r24
    11e2:	80 91 80 03 	lds	r24, 0x0380
    11e6:	88 23       	and	r24, r24
    11e8:	81 f4       	brne	.+32     	; 0x120a <COND_Set_Grade1+0x6c>
    11ea:	80 e0       	ldi	r24, 0x00	; 0
    11ec:	63 e0       	ldi	r22, 0x03	; 3
    11ee:	41 e2       	ldi	r20, 0x21	; 33
    11f0:	0e 94 99 0e 	call	0x1d32	; 0x1d32 <GLCD_SetCursor>
    11f4:	82 e3       	ldi	r24, 0x32	; 50
    11f6:	0e 94 5a 0f 	call	0x1eb4	; 0x1eb4 <GLCD_DisplayChar>
    11fa:	80 e0       	ldi	r24, 0x00	; 0
    11fc:	64 e0       	ldi	r22, 0x04	; 4
    11fe:	4e e1       	ldi	r20, 0x1E	; 30
    1200:	0e 94 99 0e 	call	0x1d32	; 0x1d32 <GLCD_SetCursor>
    1204:	80 e2       	ldi	r24, 0x20	; 32
    1206:	0e 94 5a 0f 	call	0x1eb4	; 0x1eb4 <GLCD_DisplayChar>
    120a:	cf 91       	pop	r28
    120c:	df 91       	pop	r29
    120e:	08 95       	ret

00001210 <COND_Set_Grade2>:
    1210:	df 93       	push	r29
    1212:	cf 93       	push	r28
    1214:	cd b7       	in	r28, 0x3d	; 61
    1216:	de b7       	in	r29, 0x3e	; 62
    1218:	8b e5       	ldi	r24, 0x5B	; 91
    121a:	90 e0       	ldi	r25, 0x00	; 0
    121c:	2b e5       	ldi	r18, 0x5B	; 91
    121e:	30 e0       	ldi	r19, 0x00	; 0
    1220:	f9 01       	movw	r30, r18
    1222:	20 81       	ld	r18, Z
    1224:	2f 7b       	andi	r18, 0xBF	; 191
    1226:	fc 01       	movw	r30, r24
    1228:	20 83       	st	Z, r18
    122a:	8b e5       	ldi	r24, 0x5B	; 91
    122c:	90 e0       	ldi	r25, 0x00	; 0
    122e:	2b e5       	ldi	r18, 0x5B	; 91
    1230:	30 e0       	ldi	r19, 0x00	; 0
    1232:	f9 01       	movw	r30, r18
    1234:	20 81       	ld	r18, Z
    1236:	20 68       	ori	r18, 0x80	; 128
    1238:	fc 01       	movw	r30, r24
    123a:	20 83       	st	Z, r18
    123c:	80 91 cc 00 	lds	r24, 0x00CC
    1240:	88 23       	and	r24, r24
    1242:	19 f4       	brne	.+6      	; 0x124a <COND_Set_Grade2+0x3a>
    1244:	87 e0       	ldi	r24, 0x07	; 7
    1246:	80 93 7a 00 	sts	0x007A, r24
    124a:	10 92 cc 00 	sts	0x00CC, r1
    124e:	10 92 71 00 	sts	0x0071, r1
    1252:	80 91 80 03 	lds	r24, 0x0380
    1256:	88 23       	and	r24, r24
    1258:	81 f4       	brne	.+32     	; 0x127a <COND_Set_Grade2+0x6a>
    125a:	80 e0       	ldi	r24, 0x00	; 0
    125c:	63 e0       	ldi	r22, 0x03	; 3
    125e:	41 e2       	ldi	r20, 0x21	; 33
    1260:	0e 94 99 0e 	call	0x1d32	; 0x1d32 <GLCD_SetCursor>
    1264:	80 e2       	ldi	r24, 0x20	; 32
    1266:	0e 94 5a 0f 	call	0x1eb4	; 0x1eb4 <GLCD_DisplayChar>
    126a:	80 e0       	ldi	r24, 0x00	; 0
    126c:	64 e0       	ldi	r22, 0x04	; 4
    126e:	4e e1       	ldi	r20, 0x1E	; 30
    1270:	0e 94 99 0e 	call	0x1d32	; 0x1d32 <GLCD_SetCursor>
    1274:	83 e3       	ldi	r24, 0x33	; 51
    1276:	0e 94 5a 0f 	call	0x1eb4	; 0x1eb4 <GLCD_DisplayChar>
    127a:	cf 91       	pop	r28
    127c:	df 91       	pop	r29
    127e:	08 95       	ret

00001280 <COND_Get_Kohm>:
    1280:	ef 92       	push	r14
    1282:	ff 92       	push	r15
    1284:	0f 93       	push	r16
    1286:	1f 93       	push	r17
    1288:	df 93       	push	r29
    128a:	cf 93       	push	r28
    128c:	00 d0       	rcall	.+0      	; 0x128e <COND_Get_Kohm+0xe>
    128e:	00 d0       	rcall	.+0      	; 0x1290 <COND_Get_Kohm+0x10>
    1290:	cd b7       	in	r28, 0x3d	; 61
    1292:	de b7       	in	r29, 0x3e	; 62
    1294:	80 e0       	ldi	r24, 0x00	; 0
    1296:	90 e0       	ldi	r25, 0x00	; 0
    1298:	dc 01       	movw	r26, r24
    129a:	89 83       	std	Y+1, r24	; 0x01
    129c:	9a 83       	std	Y+2, r25	; 0x02
    129e:	ab 83       	std	Y+3, r26	; 0x03
    12a0:	bc 83       	std	Y+4, r27	; 0x04
    12a2:	80 91 71 00 	lds	r24, 0x0071
    12a6:	81 30       	cpi	r24, 0x01	; 1
    12a8:	09 f0       	breq	.+2      	; 0x12ac <COND_Get_Kohm+0x2c>
    12aa:	c5 c0       	rjmp	.+394    	; 0x1436 <COND_Get_Kohm+0x1b6>
    12ac:	80 91 72 00 	lds	r24, 0x0072
    12b0:	90 91 73 00 	lds	r25, 0x0073
    12b4:	00 97       	sbiw	r24, 0x00	; 0
    12b6:	29 f4       	brne	.+10     	; 0x12c2 <COND_Get_Kohm+0x42>
    12b8:	81 e0       	ldi	r24, 0x01	; 1
    12ba:	90 e0       	ldi	r25, 0x00	; 0
    12bc:	a0 e0       	ldi	r26, 0x00	; 0
    12be:	b0 e0       	ldi	r27, 0x00	; 0
    12c0:	a4 c1       	rjmp	.+840    	; 0x160a <COND_Get_Kohm+0x38a>
    12c2:	80 91 7a 00 	lds	r24, 0x007A
    12c6:	61 e0       	ldi	r22, 0x01	; 1
    12c8:	88 23       	and	r24, r24
    12ca:	09 f0       	breq	.+2      	; 0x12ce <COND_Get_Kohm+0x4e>
    12cc:	60 e0       	ldi	r22, 0x00	; 0
    12ce:	80 91 72 00 	lds	r24, 0x0072
    12d2:	90 91 73 00 	lds	r25, 0x0073
    12d6:	9c 01       	movw	r18, r24
    12d8:	32 95       	swap	r19
    12da:	22 95       	swap	r18
    12dc:	2f 70       	andi	r18, 0x0F	; 15
    12de:	23 27       	eor	r18, r19
    12e0:	3f 70       	andi	r19, 0x0F	; 15
    12e2:	23 27       	eor	r18, r19
    12e4:	40 91 72 00 	lds	r20, 0x0072
    12e8:	50 91 73 00 	lds	r21, 0x0073
    12ec:	80 91 76 00 	lds	r24, 0x0076
    12f0:	90 91 77 00 	lds	r25, 0x0077
    12f4:	fa 01       	movw	r30, r20
    12f6:	e8 1b       	sub	r30, r24
    12f8:	f9 0b       	sbc	r31, r25
    12fa:	cf 01       	movw	r24, r30
    12fc:	99 23       	and	r25, r25
    12fe:	1c f4       	brge	.+6      	; 0x1306 <COND_Get_Kohm+0x86>
    1300:	90 95       	com	r25
    1302:	81 95       	neg	r24
    1304:	9f 4f       	sbci	r25, 0xFF	; 255
    1306:	41 e0       	ldi	r20, 0x01	; 1
    1308:	28 17       	cp	r18, r24
    130a:	39 07       	cpc	r19, r25
    130c:	08 f0       	brcs	.+2      	; 0x1310 <COND_Get_Kohm+0x90>
    130e:	40 e0       	ldi	r20, 0x00	; 0
    1310:	86 2f       	mov	r24, r22
    1312:	84 23       	and	r24, r20
    1314:	88 23       	and	r24, r24
    1316:	b1 f1       	breq	.+108    	; 0x1384 <COND_Get_Kohm+0x104>
    1318:	80 91 72 00 	lds	r24, 0x0072
    131c:	90 91 73 00 	lds	r25, 0x0073
    1320:	cc 01       	movw	r24, r24
    1322:	a0 e0       	ldi	r26, 0x00	; 0
    1324:	b0 e0       	ldi	r27, 0x00	; 0
    1326:	bc 01       	movw	r22, r24
    1328:	cd 01       	movw	r24, r26
    132a:	0e 94 82 2d 	call	0x5b04	; 0x5b04 <__floatunsisf>
    132e:	dc 01       	movw	r26, r24
    1330:	cb 01       	movw	r24, r22
    1332:	20 91 65 00 	lds	r18, 0x0065
    1336:	30 91 66 00 	lds	r19, 0x0066
    133a:	40 91 67 00 	lds	r20, 0x0067
    133e:	50 91 68 00 	lds	r21, 0x0068
    1342:	bc 01       	movw	r22, r24
    1344:	cd 01       	movw	r24, r26
    1346:	0e 94 38 2e 	call	0x5c70	; 0x5c70 <__mulsf3>
    134a:	dc 01       	movw	r26, r24
    134c:	cb 01       	movw	r24, r22
    134e:	20 91 61 00 	lds	r18, 0x0061
    1352:	30 91 62 00 	lds	r19, 0x0062
    1356:	40 91 63 00 	lds	r20, 0x0063
    135a:	50 91 64 00 	lds	r21, 0x0064
    135e:	bc 01       	movw	r22, r24
    1360:	cd 01       	movw	r24, r26
    1362:	0e 94 86 2c 	call	0x590c	; 0x590c <__addsf3>
    1366:	dc 01       	movw	r26, r24
    1368:	cb 01       	movw	r24, r22
    136a:	89 83       	std	Y+1, r24	; 0x01
    136c:	9a 83       	std	Y+2, r25	; 0x02
    136e:	ab 83       	std	Y+3, r26	; 0x03
    1370:	bc 83       	std	Y+4, r27	; 0x04
    1372:	80 91 72 00 	lds	r24, 0x0072
    1376:	90 91 73 00 	lds	r25, 0x0073
    137a:	90 93 77 00 	sts	0x0077, r25
    137e:	80 93 76 00 	sts	0x0076, r24
    1382:	36 c0       	rjmp	.+108    	; 0x13f0 <COND_Get_Kohm+0x170>
    1384:	80 91 7a 00 	lds	r24, 0x007A
    1388:	88 23       	and	r24, r24
    138a:	29 f0       	breq	.+10     	; 0x1396 <COND_Get_Kohm+0x116>
    138c:	80 91 7a 00 	lds	r24, 0x007A
    1390:	81 50       	subi	r24, 0x01	; 1
    1392:	80 93 7a 00 	sts	0x007A, r24
    1396:	80 91 76 00 	lds	r24, 0x0076
    139a:	90 91 77 00 	lds	r25, 0x0077
    139e:	cc 01       	movw	r24, r24
    13a0:	a0 e0       	ldi	r26, 0x00	; 0
    13a2:	b0 e0       	ldi	r27, 0x00	; 0
    13a4:	bc 01       	movw	r22, r24
    13a6:	cd 01       	movw	r24, r26
    13a8:	0e 94 82 2d 	call	0x5b04	; 0x5b04 <__floatunsisf>
    13ac:	dc 01       	movw	r26, r24
    13ae:	cb 01       	movw	r24, r22
    13b0:	20 91 65 00 	lds	r18, 0x0065
    13b4:	30 91 66 00 	lds	r19, 0x0066
    13b8:	40 91 67 00 	lds	r20, 0x0067
    13bc:	50 91 68 00 	lds	r21, 0x0068
    13c0:	bc 01       	movw	r22, r24
    13c2:	cd 01       	movw	r24, r26
    13c4:	0e 94 38 2e 	call	0x5c70	; 0x5c70 <__mulsf3>
    13c8:	dc 01       	movw	r26, r24
    13ca:	cb 01       	movw	r24, r22
    13cc:	20 91 61 00 	lds	r18, 0x0061
    13d0:	30 91 62 00 	lds	r19, 0x0062
    13d4:	40 91 63 00 	lds	r20, 0x0063
    13d8:	50 91 64 00 	lds	r21, 0x0064
    13dc:	bc 01       	movw	r22, r24
    13de:	cd 01       	movw	r24, r26
    13e0:	0e 94 86 2c 	call	0x590c	; 0x590c <__addsf3>
    13e4:	dc 01       	movw	r26, r24
    13e6:	cb 01       	movw	r24, r22
    13e8:	89 83       	std	Y+1, r24	; 0x01
    13ea:	9a 83       	std	Y+2, r25	; 0x02
    13ec:	ab 83       	std	Y+3, r26	; 0x03
    13ee:	bc 83       	std	Y+4, r27	; 0x04
    13f0:	69 81       	ldd	r22, Y+1	; 0x01
    13f2:	7a 81       	ldd	r23, Y+2	; 0x02
    13f4:	8b 81       	ldd	r24, Y+3	; 0x03
    13f6:	9c 81       	ldd	r25, Y+4	; 0x04
    13f8:	20 e0       	ldi	r18, 0x00	; 0
    13fa:	38 e0       	ldi	r19, 0x08	; 8
    13fc:	4e e8       	ldi	r20, 0x8E	; 142
    13fe:	56 e4       	ldi	r21, 0x46	; 70
    1400:	0e 94 38 2e 	call	0x5c70	; 0x5c70 <__mulsf3>
    1404:	dc 01       	movw	r26, r24
    1406:	cb 01       	movw	r24, r22
    1408:	7c 01       	movw	r14, r24
    140a:	8d 01       	movw	r16, r26
    140c:	0e 94 cd 2a 	call	0x559a	; 0x559a <Temperature_Compensate>
    1410:	dc 01       	movw	r26, r24
    1412:	cb 01       	movw	r24, r22
    1414:	bc 01       	movw	r22, r24
    1416:	cd 01       	movw	r24, r26
    1418:	0e 94 82 2d 	call	0x5b04	; 0x5b04 <__floatunsisf>
    141c:	9b 01       	movw	r18, r22
    141e:	ac 01       	movw	r20, r24
    1420:	c8 01       	movw	r24, r16
    1422:	b7 01       	movw	r22, r14
    1424:	0e 94 ee 2c 	call	0x59dc	; 0x59dc <__divsf3>
    1428:	dc 01       	movw	r26, r24
    142a:	cb 01       	movw	r24, r22
    142c:	89 83       	std	Y+1, r24	; 0x01
    142e:	9a 83       	std	Y+2, r25	; 0x02
    1430:	ab 83       	std	Y+3, r26	; 0x03
    1432:	bc 83       	std	Y+4, r27	; 0x04
    1434:	e2 c0       	rjmp	.+452    	; 0x15fa <COND_Get_Kohm+0x37a>
    1436:	80 e0       	ldi	r24, 0x00	; 0
    1438:	61 e0       	ldi	r22, 0x01	; 1
    143a:	45 e0       	ldi	r20, 0x05	; 5
    143c:	0e 94 99 0e 	call	0x1d32	; 0x1d32 <GLCD_SetCursor>
    1440:	80 91 74 00 	lds	r24, 0x0074
    1444:	90 91 75 00 	lds	r25, 0x0075
    1448:	cc 01       	movw	r24, r24
    144a:	a0 e0       	ldi	r26, 0x00	; 0
    144c:	b0 e0       	ldi	r27, 0x00	; 0
    144e:	bc 01       	movw	r22, r24
    1450:	cd 01       	movw	r24, r26
    1452:	4a e0       	ldi	r20, 0x0A	; 10
    1454:	0e 94 dc 0f 	call	0x1fb8	; 0x1fb8 <GLCD_DisplayDecimalNumber>
    1458:	80 91 74 00 	lds	r24, 0x0074
    145c:	90 91 75 00 	lds	r25, 0x0075
    1460:	00 97       	sbiw	r24, 0x00	; 0
    1462:	29 f4       	brne	.+10     	; 0x146e <COND_Get_Kohm+0x1ee>
    1464:	81 e0       	ldi	r24, 0x01	; 1
    1466:	90 e0       	ldi	r25, 0x00	; 0
    1468:	a0 e0       	ldi	r26, 0x00	; 0
    146a:	b0 e0       	ldi	r27, 0x00	; 0
    146c:	ce c0       	rjmp	.+412    	; 0x160a <COND_Get_Kohm+0x38a>
    146e:	80 91 7a 00 	lds	r24, 0x007A
    1472:	61 e0       	ldi	r22, 0x01	; 1
    1474:	88 23       	and	r24, r24
    1476:	09 f0       	breq	.+2      	; 0x147a <COND_Get_Kohm+0x1fa>
    1478:	60 e0       	ldi	r22, 0x00	; 0
    147a:	80 91 74 00 	lds	r24, 0x0074
    147e:	90 91 75 00 	lds	r25, 0x0075
    1482:	9c 01       	movw	r18, r24
    1484:	32 95       	swap	r19
    1486:	22 95       	swap	r18
    1488:	2f 70       	andi	r18, 0x0F	; 15
    148a:	23 27       	eor	r18, r19
    148c:	3f 70       	andi	r19, 0x0F	; 15
    148e:	23 27       	eor	r18, r19
    1490:	40 91 74 00 	lds	r20, 0x0074
    1494:	50 91 75 00 	lds	r21, 0x0075
    1498:	80 91 78 00 	lds	r24, 0x0078
    149c:	90 91 79 00 	lds	r25, 0x0079
    14a0:	fa 01       	movw	r30, r20
    14a2:	e8 1b       	sub	r30, r24
    14a4:	f9 0b       	sbc	r31, r25
    14a6:	cf 01       	movw	r24, r30
    14a8:	99 23       	and	r25, r25
    14aa:	1c f4       	brge	.+6      	; 0x14b2 <COND_Get_Kohm+0x232>
    14ac:	90 95       	com	r25
    14ae:	81 95       	neg	r24
    14b0:	9f 4f       	sbci	r25, 0xFF	; 255
    14b2:	41 e0       	ldi	r20, 0x01	; 1
    14b4:	28 17       	cp	r18, r24
    14b6:	39 07       	cpc	r19, r25
    14b8:	08 f0       	brcs	.+2      	; 0x14bc <COND_Get_Kohm+0x23c>
    14ba:	40 e0       	ldi	r20, 0x00	; 0
    14bc:	86 2f       	mov	r24, r22
    14be:	84 23       	and	r24, r20
    14c0:	88 23       	and	r24, r24
    14c2:	09 f4       	brne	.+2      	; 0x14c6 <COND_Get_Kohm+0x246>
    14c4:	4d c0       	rjmp	.+154    	; 0x1560 <COND_Get_Kohm+0x2e0>
    14c6:	20 91 74 00 	lds	r18, 0x0074
    14ca:	30 91 75 00 	lds	r19, 0x0075
    14ce:	00 d0       	rcall	.+0      	; 0x14d0 <COND_Get_Kohm+0x250>
    14d0:	00 d0       	rcall	.+0      	; 0x14d2 <COND_Get_Kohm+0x252>
    14d2:	8d b7       	in	r24, 0x3d	; 61
    14d4:	9e b7       	in	r25, 0x3e	; 62
    14d6:	01 96       	adiw	r24, 0x01	; 1
    14d8:	44 e8       	ldi	r20, 0x84	; 132
    14da:	50 e0       	ldi	r21, 0x00	; 0
    14dc:	fc 01       	movw	r30, r24
    14de:	51 83       	std	Z+1, r21	; 0x01
    14e0:	40 83       	st	Z, r20
    14e2:	fc 01       	movw	r30, r24
    14e4:	33 83       	std	Z+3, r19	; 0x03
    14e6:	22 83       	std	Z+2, r18	; 0x02
    14e8:	0e 94 47 2f 	call	0x5e8e	; 0x5e8e <printf>
    14ec:	0f 90       	pop	r0
    14ee:	0f 90       	pop	r0
    14f0:	0f 90       	pop	r0
    14f2:	0f 90       	pop	r0
    14f4:	80 91 74 00 	lds	r24, 0x0074
    14f8:	90 91 75 00 	lds	r25, 0x0075
    14fc:	cc 01       	movw	r24, r24
    14fe:	a0 e0       	ldi	r26, 0x00	; 0
    1500:	b0 e0       	ldi	r27, 0x00	; 0
    1502:	bc 01       	movw	r22, r24
    1504:	cd 01       	movw	r24, r26
    1506:	0e 94 82 2d 	call	0x5b04	; 0x5b04 <__floatunsisf>
    150a:	dc 01       	movw	r26, r24
    150c:	cb 01       	movw	r24, r22
    150e:	20 91 6d 00 	lds	r18, 0x006D
    1512:	30 91 6e 00 	lds	r19, 0x006E
    1516:	40 91 6f 00 	lds	r20, 0x006F
    151a:	50 91 70 00 	lds	r21, 0x0070
    151e:	bc 01       	movw	r22, r24
    1520:	cd 01       	movw	r24, r26
    1522:	0e 94 38 2e 	call	0x5c70	; 0x5c70 <__mulsf3>
    1526:	dc 01       	movw	r26, r24
    1528:	cb 01       	movw	r24, r22
    152a:	20 91 69 00 	lds	r18, 0x0069
    152e:	30 91 6a 00 	lds	r19, 0x006A
    1532:	40 91 6b 00 	lds	r20, 0x006B
    1536:	50 91 6c 00 	lds	r21, 0x006C
    153a:	bc 01       	movw	r22, r24
    153c:	cd 01       	movw	r24, r26
    153e:	0e 94 86 2c 	call	0x590c	; 0x590c <__addsf3>
    1542:	dc 01       	movw	r26, r24
    1544:	cb 01       	movw	r24, r22
    1546:	89 83       	std	Y+1, r24	; 0x01
    1548:	9a 83       	std	Y+2, r25	; 0x02
    154a:	ab 83       	std	Y+3, r26	; 0x03
    154c:	bc 83       	std	Y+4, r27	; 0x04
    154e:	80 91 74 00 	lds	r24, 0x0074
    1552:	90 91 75 00 	lds	r25, 0x0075
    1556:	90 93 79 00 	sts	0x0079, r25
    155a:	80 93 78 00 	sts	0x0078, r24
    155e:	4d c0       	rjmp	.+154    	; 0x15fa <COND_Get_Kohm+0x37a>
    1560:	80 91 7a 00 	lds	r24, 0x007A
    1564:	88 23       	and	r24, r24
    1566:	29 f0       	breq	.+10     	; 0x1572 <COND_Get_Kohm+0x2f2>
    1568:	80 91 7a 00 	lds	r24, 0x007A
    156c:	81 50       	subi	r24, 0x01	; 1
    156e:	80 93 7a 00 	sts	0x007A, r24
    1572:	20 91 74 00 	lds	r18, 0x0074
    1576:	30 91 75 00 	lds	r19, 0x0075
    157a:	00 d0       	rcall	.+0      	; 0x157c <COND_Get_Kohm+0x2fc>
    157c:	00 d0       	rcall	.+0      	; 0x157e <COND_Get_Kohm+0x2fe>
    157e:	8d b7       	in	r24, 0x3d	; 61
    1580:	9e b7       	in	r25, 0x3e	; 62
    1582:	01 96       	adiw	r24, 0x01	; 1
    1584:	41 ea       	ldi	r20, 0xA1	; 161
    1586:	50 e0       	ldi	r21, 0x00	; 0
    1588:	fc 01       	movw	r30, r24
    158a:	51 83       	std	Z+1, r21	; 0x01
    158c:	40 83       	st	Z, r20
    158e:	fc 01       	movw	r30, r24
    1590:	33 83       	std	Z+3, r19	; 0x03
    1592:	22 83       	std	Z+2, r18	; 0x02
    1594:	0e 94 47 2f 	call	0x5e8e	; 0x5e8e <printf>
    1598:	0f 90       	pop	r0
    159a:	0f 90       	pop	r0
    159c:	0f 90       	pop	r0
    159e:	0f 90       	pop	r0
    15a0:	80 91 78 00 	lds	r24, 0x0078
    15a4:	90 91 79 00 	lds	r25, 0x0079
    15a8:	cc 01       	movw	r24, r24
    15aa:	a0 e0       	ldi	r26, 0x00	; 0
    15ac:	b0 e0       	ldi	r27, 0x00	; 0
    15ae:	bc 01       	movw	r22, r24
    15b0:	cd 01       	movw	r24, r26
    15b2:	0e 94 82 2d 	call	0x5b04	; 0x5b04 <__floatunsisf>
    15b6:	dc 01       	movw	r26, r24
    15b8:	cb 01       	movw	r24, r22
    15ba:	20 91 6d 00 	lds	r18, 0x006D
    15be:	30 91 6e 00 	lds	r19, 0x006E
    15c2:	40 91 6f 00 	lds	r20, 0x006F
    15c6:	50 91 70 00 	lds	r21, 0x0070
    15ca:	bc 01       	movw	r22, r24
    15cc:	cd 01       	movw	r24, r26
    15ce:	0e 94 38 2e 	call	0x5c70	; 0x5c70 <__mulsf3>
    15d2:	dc 01       	movw	r26, r24
    15d4:	cb 01       	movw	r24, r22
    15d6:	20 91 69 00 	lds	r18, 0x0069
    15da:	30 91 6a 00 	lds	r19, 0x006A
    15de:	40 91 6b 00 	lds	r20, 0x006B
    15e2:	50 91 6c 00 	lds	r21, 0x006C
    15e6:	bc 01       	movw	r22, r24
    15e8:	cd 01       	movw	r24, r26
    15ea:	0e 94 86 2c 	call	0x590c	; 0x590c <__addsf3>
    15ee:	dc 01       	movw	r26, r24
    15f0:	cb 01       	movw	r24, r22
    15f2:	89 83       	std	Y+1, r24	; 0x01
    15f4:	9a 83       	std	Y+2, r25	; 0x02
    15f6:	ab 83       	std	Y+3, r26	; 0x03
    15f8:	bc 83       	std	Y+4, r27	; 0x04
    15fa:	69 81       	ldd	r22, Y+1	; 0x01
    15fc:	7a 81       	ldd	r23, Y+2	; 0x02
    15fe:	8b 81       	ldd	r24, Y+3	; 0x03
    1600:	9c 81       	ldd	r25, Y+4	; 0x04
    1602:	0e 94 56 2d 	call	0x5aac	; 0x5aac <__fixunssfsi>
    1606:	dc 01       	movw	r26, r24
    1608:	cb 01       	movw	r24, r22
    160a:	bc 01       	movw	r22, r24
    160c:	cd 01       	movw	r24, r26
    160e:	0f 90       	pop	r0
    1610:	0f 90       	pop	r0
    1612:	0f 90       	pop	r0
    1614:	0f 90       	pop	r0
    1616:	cf 91       	pop	r28
    1618:	df 91       	pop	r29
    161a:	1f 91       	pop	r17
    161c:	0f 91       	pop	r16
    161e:	ff 90       	pop	r15
    1620:	ef 90       	pop	r14
    1622:	08 95       	ret

00001624 <COND_Get_US>:
    1624:	df 93       	push	r29
    1626:	cf 93       	push	r28
    1628:	00 d0       	rcall	.+0      	; 0x162a <COND_Get_US+0x6>
    162a:	00 d0       	rcall	.+0      	; 0x162c <COND_Get_US+0x8>
    162c:	cd b7       	in	r28, 0x3d	; 61
    162e:	de b7       	in	r29, 0x3e	; 62
    1630:	0e 94 40 09 	call	0x1280	; 0x1280 <COND_Get_Kohm>
    1634:	dc 01       	movw	r26, r24
    1636:	cb 01       	movw	r24, r22
    1638:	bc 01       	movw	r22, r24
    163a:	cd 01       	movw	r24, r26
    163c:	0e 94 82 2d 	call	0x5b04	; 0x5b04 <__floatunsisf>
    1640:	dc 01       	movw	r26, r24
    1642:	cb 01       	movw	r24, r22
    1644:	89 83       	std	Y+1, r24	; 0x01
    1646:	9a 83       	std	Y+2, r25	; 0x02
    1648:	ab 83       	std	Y+3, r26	; 0x03
    164a:	bc 83       	std	Y+4, r27	; 0x04
    164c:	29 81       	ldd	r18, Y+1	; 0x01
    164e:	3a 81       	ldd	r19, Y+2	; 0x02
    1650:	4b 81       	ldd	r20, Y+3	; 0x03
    1652:	5c 81       	ldd	r21, Y+4	; 0x04
    1654:	60 e0       	ldi	r22, 0x00	; 0
    1656:	74 e2       	ldi	r23, 0x24	; 36
    1658:	84 e7       	ldi	r24, 0x74	; 116
    165a:	99 e4       	ldi	r25, 0x49	; 73
    165c:	0e 94 ee 2c 	call	0x59dc	; 0x59dc <__divsf3>
    1660:	dc 01       	movw	r26, r24
    1662:	cb 01       	movw	r24, r22
    1664:	89 83       	std	Y+1, r24	; 0x01
    1666:	9a 83       	std	Y+2, r25	; 0x02
    1668:	ab 83       	std	Y+3, r26	; 0x03
    166a:	bc 83       	std	Y+4, r27	; 0x04
    166c:	89 81       	ldd	r24, Y+1	; 0x01
    166e:	9a 81       	ldd	r25, Y+2	; 0x02
    1670:	ab 81       	ldd	r26, Y+3	; 0x03
    1672:	bc 81       	ldd	r27, Y+4	; 0x04
    1674:	bc 01       	movw	r22, r24
    1676:	cd 01       	movw	r24, r26
    1678:	0e 94 56 2d 	call	0x5aac	; 0x5aac <__fixunssfsi>
    167c:	dc 01       	movw	r26, r24
    167e:	cb 01       	movw	r24, r22
    1680:	00 d0       	rcall	.+0      	; 0x1682 <COND_Get_US+0x5e>
    1682:	00 d0       	rcall	.+0      	; 0x1684 <COND_Get_US+0x60>
    1684:	00 d0       	rcall	.+0      	; 0x1686 <COND_Get_US+0x62>
    1686:	2d b7       	in	r18, 0x3d	; 61
    1688:	3e b7       	in	r19, 0x3e	; 62
    168a:	2f 5f       	subi	r18, 0xFF	; 255
    168c:	3f 4f       	sbci	r19, 0xFF	; 255
    168e:	4e eb       	ldi	r20, 0xBE	; 190
    1690:	50 e0       	ldi	r21, 0x00	; 0
    1692:	f9 01       	movw	r30, r18
    1694:	51 83       	std	Z+1, r21	; 0x01
    1696:	40 83       	st	Z, r20
    1698:	f9 01       	movw	r30, r18
    169a:	82 83       	std	Z+2, r24	; 0x02
    169c:	93 83       	std	Z+3, r25	; 0x03
    169e:	a4 83       	std	Z+4, r26	; 0x04
    16a0:	b5 83       	std	Z+5, r27	; 0x05
    16a2:	0e 94 47 2f 	call	0x5e8e	; 0x5e8e <printf>
    16a6:	8d b7       	in	r24, 0x3d	; 61
    16a8:	9e b7       	in	r25, 0x3e	; 62
    16aa:	06 96       	adiw	r24, 0x06	; 6
    16ac:	0f b6       	in	r0, 0x3f	; 63
    16ae:	f8 94       	cli
    16b0:	9e bf       	out	0x3e, r25	; 62
    16b2:	0f be       	out	0x3f, r0	; 63
    16b4:	8d bf       	out	0x3d, r24	; 61
    16b6:	89 81       	ldd	r24, Y+1	; 0x01
    16b8:	9a 81       	ldd	r25, Y+2	; 0x02
    16ba:	ab 81       	ldd	r26, Y+3	; 0x03
    16bc:	bc 81       	ldd	r27, Y+4	; 0x04
    16be:	bc 01       	movw	r22, r24
    16c0:	cd 01       	movw	r24, r26
    16c2:	0e 94 56 2d 	call	0x5aac	; 0x5aac <__fixunssfsi>
    16c6:	dc 01       	movw	r26, r24
    16c8:	cb 01       	movw	r24, r22
    16ca:	bc 01       	movw	r22, r24
    16cc:	cd 01       	movw	r24, r26
    16ce:	0f 90       	pop	r0
    16d0:	0f 90       	pop	r0
    16d2:	0f 90       	pop	r0
    16d4:	0f 90       	pop	r0
    16d6:	cf 91       	pop	r28
    16d8:	df 91       	pop	r29
    16da:	08 95       	ret

000016dc <EEPROM_Init>:
    16dc:	df 93       	push	r29
    16de:	cf 93       	push	r28
    16e0:	cd b7       	in	r28, 0x3d	; 61
    16e2:	de b7       	in	r29, 0x3e	; 62
    16e4:	80 e0       	ldi	r24, 0x00	; 0
    16e6:	90 e0       	ldi	r25, 0x00	; 0
    16e8:	0e 94 82 31 	call	0x6304	; 0x6304 <__eerd_word_m32a>
    16ec:	21 e0       	ldi	r18, 0x01	; 1
    16ee:	82 30       	cpi	r24, 0x02	; 2
    16f0:	92 07       	cpc	r25, r18
    16f2:	e1 f5       	brne	.+120    	; 0x176c <EEPROM_Init+0x90>
    16f4:	82 e0       	ldi	r24, 0x02	; 2
    16f6:	90 e0       	ldi	r25, 0x00	; 0
    16f8:	0e 94 74 31 	call	0x62e8	; 0x62e8 <__eerd_byte_m32a>
    16fc:	80 93 7a 03 	sts	0x037A, r24
    1700:	87 e0       	ldi	r24, 0x07	; 7
    1702:	90 e0       	ldi	r25, 0x00	; 0
    1704:	0e 94 7c 31 	call	0x62f8	; 0x62f8 <__eerd_dword_m32a>
    1708:	dc 01       	movw	r26, r24
    170a:	cb 01       	movw	r24, r22
    170c:	80 93 40 03 	sts	0x0340, r24
    1710:	90 93 41 03 	sts	0x0341, r25
    1714:	a0 93 42 03 	sts	0x0342, r26
    1718:	b0 93 43 03 	sts	0x0343, r27
    171c:	8b e0       	ldi	r24, 0x0B	; 11
    171e:	90 e0       	ldi	r25, 0x00	; 0
    1720:	0e 94 7c 31 	call	0x62f8	; 0x62f8 <__eerd_dword_m32a>
    1724:	dc 01       	movw	r26, r24
    1726:	cb 01       	movw	r24, r22
    1728:	80 93 44 03 	sts	0x0344, r24
    172c:	90 93 45 03 	sts	0x0345, r25
    1730:	a0 93 46 03 	sts	0x0346, r26
    1734:	b0 93 47 03 	sts	0x0347, r27
    1738:	83 e0       	ldi	r24, 0x03	; 3
    173a:	90 e0       	ldi	r25, 0x00	; 0
    173c:	0e 94 82 31 	call	0x6304	; 0x6304 <__eerd_word_m32a>
    1740:	cc 01       	movw	r24, r24
    1742:	a0 e0       	ldi	r26, 0x00	; 0
    1744:	b0 e0       	ldi	r27, 0x00	; 0
    1746:	2c e3       	ldi	r18, 0x3C	; 60
    1748:	30 e0       	ldi	r19, 0x00	; 0
    174a:	40 e0       	ldi	r20, 0x00	; 0
    174c:	50 e0       	ldi	r21, 0x00	; 0
    174e:	bc 01       	movw	r22, r24
    1750:	cd 01       	movw	r24, r26
    1752:	0e 94 9b 2e 	call	0x5d36	; 0x5d36 <__mulsi3>
    1756:	dc 01       	movw	r26, r24
    1758:	cb 01       	movw	r24, r22
    175a:	80 93 ce 00 	sts	0x00CE, r24
    175e:	90 93 cf 00 	sts	0x00CF, r25
    1762:	a0 93 d0 00 	sts	0x00D0, r26
    1766:	b0 93 d1 00 	sts	0x00D1, r27
    176a:	02 c0       	rjmp	.+4      	; 0x1770 <EEPROM_Init+0x94>
    176c:	0e 94 bb 0b 	call	0x1776	; 0x1776 <EEPROM_Write_Defaults>
    1770:	cf 91       	pop	r28
    1772:	df 91       	pop	r29
    1774:	08 95       	ret

00001776 <EEPROM_Write_Defaults>:
    1776:	df 93       	push	r29
    1778:	cf 93       	push	r28
    177a:	cd b7       	in	r28, 0x3d	; 61
    177c:	de b7       	in	r29, 0x3e	; 62
    177e:	80 e0       	ldi	r24, 0x00	; 0
    1780:	90 e0       	ldi	r25, 0x00	; 0
    1782:	62 e0       	ldi	r22, 0x02	; 2
    1784:	71 e0       	ldi	r23, 0x01	; 1
    1786:	0e 94 9d 31 	call	0x633a	; 0x633a <__eewr_word_m32a>
    178a:	82 e0       	ldi	r24, 0x02	; 2
    178c:	90 e0       	ldi	r25, 0x00	; 0
    178e:	60 e0       	ldi	r22, 0x00	; 0
    1790:	0e 94 88 31 	call	0x6310	; 0x6310 <__eewr_byte_m32a>
    1794:	80 91 ce 00 	lds	r24, 0x00CE
    1798:	90 91 cf 00 	lds	r25, 0x00CF
    179c:	a0 91 d0 00 	lds	r26, 0x00D0
    17a0:	b0 91 d1 00 	lds	r27, 0x00D1
    17a4:	2c e3       	ldi	r18, 0x3C	; 60
    17a6:	30 e0       	ldi	r19, 0x00	; 0
    17a8:	40 e0       	ldi	r20, 0x00	; 0
    17aa:	50 e0       	ldi	r21, 0x00	; 0
    17ac:	bc 01       	movw	r22, r24
    17ae:	cd 01       	movw	r24, r26
    17b0:	0e 94 da 2e 	call	0x5db4	; 0x5db4 <__udivmodsi4>
    17b4:	da 01       	movw	r26, r20
    17b6:	c9 01       	movw	r24, r18
    17b8:	9c 01       	movw	r18, r24
    17ba:	83 e0       	ldi	r24, 0x03	; 3
    17bc:	90 e0       	ldi	r25, 0x00	; 0
    17be:	b9 01       	movw	r22, r18
    17c0:	0e 94 9d 31 	call	0x633a	; 0x633a <__eewr_word_m32a>
    17c4:	87 e0       	ldi	r24, 0x07	; 7
    17c6:	90 e0       	ldi	r25, 0x00	; 0
    17c8:	40 e0       	ldi	r20, 0x00	; 0
    17ca:	50 e0       	ldi	r21, 0x00	; 0
    17cc:	ba 01       	movw	r22, r20
    17ce:	0e 94 95 31 	call	0x632a	; 0x632a <__eewr_dword_m32a>
    17d2:	8b e0       	ldi	r24, 0x0B	; 11
    17d4:	90 e0       	ldi	r25, 0x00	; 0
    17d6:	40 e0       	ldi	r20, 0x00	; 0
    17d8:	50 e0       	ldi	r21, 0x00	; 0
    17da:	60 e4       	ldi	r22, 0x40	; 64
    17dc:	7f e3       	ldi	r23, 0x3F	; 63
    17de:	0e 94 95 31 	call	0x632a	; 0x632a <__eewr_dword_m32a>
    17e2:	cf 91       	pop	r28
    17e4:	df 91       	pop	r29
    17e6:	08 95       	ret

000017e8 <EEPROM_Write_Units>:
    17e8:	df 93       	push	r29
    17ea:	cf 93       	push	r28
    17ec:	cd b7       	in	r28, 0x3d	; 61
    17ee:	de b7       	in	r29, 0x3e	; 62
    17f0:	20 91 7a 03 	lds	r18, 0x037A
    17f4:	82 e0       	ldi	r24, 0x02	; 2
    17f6:	90 e0       	ldi	r25, 0x00	; 0
    17f8:	62 2f       	mov	r22, r18
    17fa:	0e 94 88 31 	call	0x6310	; 0x6310 <__eewr_byte_m32a>
    17fe:	cf 91       	pop	r28
    1800:	df 91       	pop	r29
    1802:	08 95       	ret

00001804 <EEPROM_Write_Filter>:
    1804:	df 93       	push	r29
    1806:	cf 93       	push	r28
    1808:	00 d0       	rcall	.+0      	; 0x180a <EEPROM_Write_Filter+0x6>
    180a:	cd b7       	in	r28, 0x3d	; 61
    180c:	de b7       	in	r29, 0x3e	; 62
    180e:	80 91 ce 00 	lds	r24, 0x00CE
    1812:	90 91 cf 00 	lds	r25, 0x00CF
    1816:	a0 91 d0 00 	lds	r26, 0x00D0
    181a:	b0 91 d1 00 	lds	r27, 0x00D1
    181e:	2c e3       	ldi	r18, 0x3C	; 60
    1820:	30 e0       	ldi	r19, 0x00	; 0
    1822:	40 e0       	ldi	r20, 0x00	; 0
    1824:	50 e0       	ldi	r21, 0x00	; 0
    1826:	bc 01       	movw	r22, r24
    1828:	cd 01       	movw	r24, r26
    182a:	0e 94 da 2e 	call	0x5db4	; 0x5db4 <__udivmodsi4>
    182e:	da 01       	movw	r26, r20
    1830:	c9 01       	movw	r24, r18
    1832:	9a 83       	std	Y+2, r25	; 0x02
    1834:	89 83       	std	Y+1, r24	; 0x01
    1836:	83 e0       	ldi	r24, 0x03	; 3
    1838:	90 e0       	ldi	r25, 0x00	; 0
    183a:	29 81       	ldd	r18, Y+1	; 0x01
    183c:	3a 81       	ldd	r19, Y+2	; 0x02
    183e:	b9 01       	movw	r22, r18
    1840:	0e 94 9d 31 	call	0x633a	; 0x633a <__eewr_word_m32a>
    1844:	0f 90       	pop	r0
    1846:	0f 90       	pop	r0
    1848:	cf 91       	pop	r28
    184a:	df 91       	pop	r29
    184c:	08 95       	ret

0000184e <EEPROM_Write_Temperature>:
    184e:	df 93       	push	r29
    1850:	cf 93       	push	r28
    1852:	cd b7       	in	r28, 0x3d	; 61
    1854:	de b7       	in	r29, 0x3e	; 62
    1856:	20 91 40 03 	lds	r18, 0x0340
    185a:	30 91 41 03 	lds	r19, 0x0341
    185e:	40 91 42 03 	lds	r20, 0x0342
    1862:	50 91 43 03 	lds	r21, 0x0343
    1866:	87 e0       	ldi	r24, 0x07	; 7
    1868:	90 e0       	ldi	r25, 0x00	; 0
    186a:	ba 01       	movw	r22, r20
    186c:	a9 01       	movw	r20, r18
    186e:	0e 94 95 31 	call	0x632a	; 0x632a <__eewr_dword_m32a>
    1872:	20 91 44 03 	lds	r18, 0x0344
    1876:	30 91 45 03 	lds	r19, 0x0345
    187a:	40 91 46 03 	lds	r20, 0x0346
    187e:	50 91 47 03 	lds	r21, 0x0347
    1882:	8b e0       	ldi	r24, 0x0B	; 11
    1884:	90 e0       	ldi	r25, 0x00	; 0
    1886:	ba 01       	movw	r22, r20
    1888:	a9 01       	movw	r20, r18
    188a:	0e 94 95 31 	call	0x632a	; 0x632a <__eewr_dword_m32a>
    188e:	83 e0       	ldi	r24, 0x03	; 3
    1890:	0e 94 1d 0f 	call	0x1e3a	; 0x1e3a <GLCD_GoToLine>
    1894:	80 91 44 03 	lds	r24, 0x0344
    1898:	90 91 45 03 	lds	r25, 0x0345
    189c:	a0 91 46 03 	lds	r26, 0x0346
    18a0:	b0 91 47 03 	lds	r27, 0x0347
    18a4:	bc 01       	movw	r22, r24
    18a6:	cd 01       	movw	r24, r26
    18a8:	0e 94 64 11 	call	0x22c8	; 0x22c8 <GLCD_DisplayFloatNumber>
    18ac:	84 e0       	ldi	r24, 0x04	; 4
    18ae:	0e 94 1d 0f 	call	0x1e3a	; 0x1e3a <GLCD_GoToLine>
    18b2:	80 91 40 03 	lds	r24, 0x0340
    18b6:	90 91 41 03 	lds	r25, 0x0341
    18ba:	a0 91 42 03 	lds	r26, 0x0342
    18be:	b0 91 43 03 	lds	r27, 0x0343
    18c2:	bc 01       	movw	r22, r24
    18c4:	cd 01       	movw	r24, r26
    18c6:	0e 94 64 11 	call	0x22c8	; 0x22c8 <GLCD_DisplayFloatNumber>
    18ca:	cf 91       	pop	r28
    18cc:	df 91       	pop	r29
    18ce:	08 95       	ret

000018d0 <EEPROM_Read_Temperature>:
    18d0:	df 93       	push	r29
    18d2:	cf 93       	push	r28
    18d4:	cd b7       	in	r28, 0x3d	; 61
    18d6:	de b7       	in	r29, 0x3e	; 62
    18d8:	87 e0       	ldi	r24, 0x07	; 7
    18da:	90 e0       	ldi	r25, 0x00	; 0
    18dc:	0e 94 7c 31 	call	0x62f8	; 0x62f8 <__eerd_dword_m32a>
    18e0:	dc 01       	movw	r26, r24
    18e2:	cb 01       	movw	r24, r22
    18e4:	80 93 40 03 	sts	0x0340, r24
    18e8:	90 93 41 03 	sts	0x0341, r25
    18ec:	a0 93 42 03 	sts	0x0342, r26
    18f0:	b0 93 43 03 	sts	0x0343, r27
    18f4:	8b e0       	ldi	r24, 0x0B	; 11
    18f6:	90 e0       	ldi	r25, 0x00	; 0
    18f8:	0e 94 7c 31 	call	0x62f8	; 0x62f8 <__eerd_dword_m32a>
    18fc:	dc 01       	movw	r26, r24
    18fe:	cb 01       	movw	r24, r22
    1900:	80 93 44 03 	sts	0x0344, r24
    1904:	90 93 45 03 	sts	0x0345, r25
    1908:	a0 93 46 03 	sts	0x0346, r26
    190c:	b0 93 47 03 	sts	0x0347, r27
    1910:	cf 91       	pop	r28
    1912:	df 91       	pop	r29
    1914:	08 95       	ret

00001916 <ERROR_Check>:
    1916:	df 93       	push	r29
    1918:	cf 93       	push	r28
    191a:	0f 92       	push	r0
    191c:	cd b7       	in	r28, 0x3d	; 61
    191e:	de b7       	in	r29, 0x3e	; 62
    1920:	80 91 7d 03 	lds	r24, 0x037D
    1924:	90 91 7e 03 	lds	r25, 0x037E
    1928:	01 96       	adiw	r24, 0x01	; 1
    192a:	90 93 7e 03 	sts	0x037E, r25
    192e:	80 93 7d 03 	sts	0x037D, r24
    1932:	80 91 7d 03 	lds	r24, 0x037D
    1936:	90 91 7e 03 	lds	r25, 0x037E
    193a:	86 30       	cpi	r24, 0x06	; 6
    193c:	91 05       	cpc	r25, r1
    193e:	0c f4       	brge	.+2      	; 0x1942 <ERROR_Check+0x2c>
    1940:	3e c0       	rjmp	.+124    	; 0x19be <ERROR_Check+0xa8>
    1942:	80 91 7f 03 	lds	r24, 0x037F
    1946:	8f 5f       	subi	r24, 0xFF	; 255
    1948:	80 93 7f 03 	sts	0x037F, r24
    194c:	80 91 7f 03 	lds	r24, 0x037F
    1950:	89 83       	std	Y+1, r24	; 0x01
    1952:	07 c0       	rjmp	.+14     	; 0x1962 <ERROR_Check+0x4c>
    1954:	89 81       	ldd	r24, Y+1	; 0x01
    1956:	8f 5f       	subi	r24, 0xFF	; 255
    1958:	89 83       	std	Y+1, r24	; 0x01
    195a:	89 81       	ldd	r24, Y+1	; 0x01
    195c:	89 30       	cpi	r24, 0x09	; 9
    195e:	08 f0       	brcs	.+2      	; 0x1962 <ERROR_Check+0x4c>
    1960:	19 82       	std	Y+1, r1	; 0x01
    1962:	80 91 7c 03 	lds	r24, 0x037C
    1966:	88 2f       	mov	r24, r24
    1968:	90 e0       	ldi	r25, 0x00	; 0
    196a:	29 81       	ldd	r18, Y+1	; 0x01
    196c:	22 2f       	mov	r18, r18
    196e:	30 e0       	ldi	r19, 0x00	; 0
    1970:	02 2e       	mov	r0, r18
    1972:	02 c0       	rjmp	.+4      	; 0x1978 <ERROR_Check+0x62>
    1974:	95 95       	asr	r25
    1976:	87 95       	ror	r24
    1978:	0a 94       	dec	r0
    197a:	e2 f7       	brpl	.-8      	; 0x1974 <ERROR_Check+0x5e>
    197c:	81 70       	andi	r24, 0x01	; 1
    197e:	90 70       	andi	r25, 0x00	; 0
    1980:	00 97       	sbiw	r24, 0x00	; 0
    1982:	41 f3       	breq	.-48     	; 0x1954 <ERROR_Check+0x3e>
    1984:	89 81       	ldd	r24, Y+1	; 0x01
    1986:	80 93 7f 03 	sts	0x037F, r24
    198a:	81 e0       	ldi	r24, 0x01	; 1
    198c:	90 e0       	ldi	r25, 0x00	; 0
    198e:	0e 94 1d 0f 	call	0x1e3a	; 0x1e3a <GLCD_GoToLine>
    1992:	22 ed       	ldi	r18, 0xD2	; 210
    1994:	30 e0       	ldi	r19, 0x00	; 0
    1996:	89 81       	ldd	r24, Y+1	; 0x01
    1998:	88 2f       	mov	r24, r24
    199a:	90 e0       	ldi	r25, 0x00	; 0
    199c:	88 0f       	add	r24, r24
    199e:	99 1f       	adc	r25, r25
    19a0:	ac 01       	movw	r20, r24
    19a2:	44 0f       	add	r20, r20
    19a4:	55 1f       	adc	r21, r21
    19a6:	44 0f       	add	r20, r20
    19a8:	55 1f       	adc	r21, r21
    19aa:	84 0f       	add	r24, r20
    19ac:	95 1f       	adc	r25, r21
    19ae:	82 0f       	add	r24, r18
    19b0:	93 1f       	adc	r25, r19
    19b2:	0e 94 bd 0f 	call	0x1f7a	; 0x1f7a <GLCD_DisplayString>
    19b6:	10 92 7e 03 	sts	0x037E, r1
    19ba:	10 92 7d 03 	sts	0x037D, r1
    19be:	0f 90       	pop	r0
    19c0:	cf 91       	pop	r28
    19c2:	df 91       	pop	r29
    19c4:	08 95       	ret

000019c6 <ERROR_Check_Grade>:
    19c6:	df 93       	push	r29
    19c8:	cf 93       	push	r28
    19ca:	00 d0       	rcall	.+0      	; 0x19cc <ERROR_Check_Grade+0x6>
    19cc:	00 d0       	rcall	.+0      	; 0x19ce <ERROR_Check_Grade+0x8>
    19ce:	cd b7       	in	r28, 0x3d	; 61
    19d0:	de b7       	in	r29, 0x3e	; 62
    19d2:	0e 94 40 09 	call	0x1280	; 0x1280 <COND_Get_Kohm>
    19d6:	dc 01       	movw	r26, r24
    19d8:	cb 01       	movw	r24, r22
    19da:	89 83       	std	Y+1, r24	; 0x01
    19dc:	9a 83       	std	Y+2, r25	; 0x02
    19de:	ab 83       	std	Y+3, r26	; 0x03
    19e0:	bc 83       	std	Y+4, r27	; 0x04
    19e2:	89 81       	ldd	r24, Y+1	; 0x01
    19e4:	9a 81       	ldd	r25, Y+2	; 0x02
    19e6:	ab 81       	ldd	r26, Y+3	; 0x03
    19e8:	bc 81       	ldd	r27, Y+4	; 0x04
    19ea:	80 3d       	cpi	r24, 0xD0	; 208
    19ec:	27 e0       	ldi	r18, 0x07	; 7
    19ee:	92 07       	cpc	r25, r18
    19f0:	20 e0       	ldi	r18, 0x00	; 0
    19f2:	a2 07       	cpc	r26, r18
    19f4:	20 e0       	ldi	r18, 0x00	; 0
    19f6:	b2 07       	cpc	r27, r18
    19f8:	48 f4       	brcc	.+18     	; 0x1a0c <ERROR_Check_Grade+0x46>
    19fa:	80 91 71 00 	lds	r24, 0x0071
    19fe:	81 30       	cpi	r24, 0x01	; 1
    1a00:	29 f4       	brne	.+10     	; 0x1a0c <ERROR_Check_Grade+0x46>
    1a02:	80 91 7c 03 	lds	r24, 0x037C
    1a06:	81 60       	ori	r24, 0x01	; 1
    1a08:	80 93 7c 03 	sts	0x037C, r24
    1a0c:	0f 90       	pop	r0
    1a0e:	0f 90       	pop	r0
    1a10:	0f 90       	pop	r0
    1a12:	0f 90       	pop	r0
    1a14:	cf 91       	pop	r28
    1a16:	df 91       	pop	r29
    1a18:	08 95       	ret

00001a1a <GLCD_Init>:
    1a1a:	0f 93       	push	r16
    1a1c:	1f 93       	push	r17
    1a1e:	df 93       	push	r29
    1a20:	cf 93       	push	r28
    1a22:	cd b7       	in	r28, 0x3d	; 61
    1a24:	de b7       	in	r29, 0x3e	; 62
    1a26:	6d 97       	sbiw	r28, 0x1d	; 29
    1a28:	0f b6       	in	r0, 0x3f	; 63
    1a2a:	f8 94       	cli
    1a2c:	de bf       	out	0x3e, r29	; 62
    1a2e:	0f be       	out	0x3f, r0	; 63
    1a30:	cd bf       	out	0x3d, r28	; 61
    1a32:	8a e3       	ldi	r24, 0x3A	; 58
    1a34:	90 e0       	ldi	r25, 0x00	; 0
    1a36:	2a e3       	ldi	r18, 0x3A	; 58
    1a38:	30 e0       	ldi	r19, 0x00	; 0
    1a3a:	f9 01       	movw	r30, r18
    1a3c:	20 81       	ld	r18, Z
    1a3e:	20 6f       	ori	r18, 0xF0	; 240
    1a40:	fc 01       	movw	r30, r24
    1a42:	20 83       	st	Z, r18
    1a44:	84 e3       	ldi	r24, 0x34	; 52
    1a46:	90 e0       	ldi	r25, 0x00	; 0
    1a48:	fc 01       	movw	r30, r24
    1a4a:	80 81       	ld	r24, Z
    1a4c:	84 e3       	ldi	r24, 0x34	; 52
    1a4e:	90 e0       	ldi	r25, 0x00	; 0
    1a50:	2f ef       	ldi	r18, 0xFF	; 255
    1a52:	fc 01       	movw	r30, r24
    1a54:	20 83       	st	Z, r18
    1a56:	87 e3       	ldi	r24, 0x37	; 55
    1a58:	90 e0       	ldi	r25, 0x00	; 0
    1a5a:	27 e3       	ldi	r18, 0x37	; 55
    1a5c:	30 e0       	ldi	r19, 0x00	; 0
    1a5e:	f9 01       	movw	r30, r18
    1a60:	20 81       	ld	r18, Z
    1a62:	22 60       	ori	r18, 0x02	; 2
    1a64:	fc 01       	movw	r30, r24
    1a66:	20 83       	st	Z, r18
    1a68:	0e 94 16 19 	call	0x322c	; 0x322c <glcd_SelectPage0>
    1a6c:	8f e3       	ldi	r24, 0x3F	; 63
    1a6e:	0e 94 c5 14 	call	0x298a	; 0x298a <glcd_CmdWrite>
    1a72:	0e 94 fd 18 	call	0x31fa	; 0x31fa <glcd_SelectPage1>
    1a76:	8f e3       	ldi	r24, 0x3F	; 63
    1a78:	0e 94 c5 14 	call	0x298a	; 0x298a <glcd_CmdWrite>
    1a7c:	80 e0       	ldi	r24, 0x00	; 0
    1a7e:	90 e0       	ldi	r25, 0x00	; 0
    1a80:	a0 e2       	ldi	r26, 0x20	; 32
    1a82:	b1 e4       	ldi	r27, 0x41	; 65
    1a84:	8a 83       	std	Y+2, r24	; 0x02
    1a86:	9b 83       	std	Y+3, r25	; 0x03
    1a88:	ac 83       	std	Y+4, r26	; 0x04
    1a8a:	bd 83       	std	Y+5, r27	; 0x05
    1a8c:	6a 81       	ldd	r22, Y+2	; 0x02
    1a8e:	7b 81       	ldd	r23, Y+3	; 0x03
    1a90:	8c 81       	ldd	r24, Y+4	; 0x04
    1a92:	9d 81       	ldd	r25, Y+5	; 0x05
    1a94:	20 e0       	ldi	r18, 0x00	; 0
    1a96:	30 e0       	ldi	r19, 0x00	; 0
    1a98:	4a e7       	ldi	r20, 0x7A	; 122
    1a9a:	53 e4       	ldi	r21, 0x43	; 67
    1a9c:	0e 94 38 2e 	call	0x5c70	; 0x5c70 <__mulsf3>
    1aa0:	dc 01       	movw	r26, r24
    1aa2:	cb 01       	movw	r24, r22
    1aa4:	8e 83       	std	Y+6, r24	; 0x06
    1aa6:	9f 83       	std	Y+7, r25	; 0x07
    1aa8:	a8 87       	std	Y+8, r26	; 0x08
    1aaa:	b9 87       	std	Y+9, r27	; 0x09
    1aac:	11 e0       	ldi	r17, 0x01	; 1
    1aae:	6e 81       	ldd	r22, Y+6	; 0x06
    1ab0:	7f 81       	ldd	r23, Y+7	; 0x07
    1ab2:	88 85       	ldd	r24, Y+8	; 0x08
    1ab4:	99 85       	ldd	r25, Y+9	; 0x09
    1ab6:	20 e0       	ldi	r18, 0x00	; 0
    1ab8:	30 e0       	ldi	r19, 0x00	; 0
    1aba:	40 e8       	ldi	r20, 0x80	; 128
    1abc:	5f e3       	ldi	r21, 0x3F	; 63
    1abe:	0e 94 ea 2c 	call	0x59d4	; 0x59d4 <__cmpsf2>
    1ac2:	88 23       	and	r24, r24
    1ac4:	0c f0       	brlt	.+2      	; 0x1ac8 <GLCD_Init+0xae>
    1ac6:	10 e0       	ldi	r17, 0x00	; 0
    1ac8:	11 23       	and	r17, r17
    1aca:	29 f0       	breq	.+10     	; 0x1ad6 <GLCD_Init+0xbc>
    1acc:	81 e0       	ldi	r24, 0x01	; 1
    1ace:	90 e0       	ldi	r25, 0x00	; 0
    1ad0:	9b 87       	std	Y+11, r25	; 0x0b
    1ad2:	8a 87       	std	Y+10, r24	; 0x0a
    1ad4:	46 c0       	rjmp	.+140    	; 0x1b62 <GLCD_Init+0x148>
    1ad6:	11 e0       	ldi	r17, 0x01	; 1
    1ad8:	6e 81       	ldd	r22, Y+6	; 0x06
    1ada:	7f 81       	ldd	r23, Y+7	; 0x07
    1adc:	88 85       	ldd	r24, Y+8	; 0x08
    1ade:	99 85       	ldd	r25, Y+9	; 0x09
    1ae0:	20 e0       	ldi	r18, 0x00	; 0
    1ae2:	3f ef       	ldi	r19, 0xFF	; 255
    1ae4:	4f e7       	ldi	r20, 0x7F	; 127
    1ae6:	57 e4       	ldi	r21, 0x47	; 71
    1ae8:	0e 94 34 2e 	call	0x5c68	; 0x5c68 <__gesf2>
    1aec:	18 16       	cp	r1, r24
    1aee:	0c f0       	brlt	.+2      	; 0x1af2 <GLCD_Init+0xd8>
    1af0:	10 e0       	ldi	r17, 0x00	; 0
    1af2:	11 23       	and	r17, r17
    1af4:	61 f1       	breq	.+88     	; 0x1b4e <GLCD_Init+0x134>
    1af6:	6a 81       	ldd	r22, Y+2	; 0x02
    1af8:	7b 81       	ldd	r23, Y+3	; 0x03
    1afa:	8c 81       	ldd	r24, Y+4	; 0x04
    1afc:	9d 81       	ldd	r25, Y+5	; 0x05
    1afe:	20 e0       	ldi	r18, 0x00	; 0
    1b00:	30 e0       	ldi	r19, 0x00	; 0
    1b02:	40 e2       	ldi	r20, 0x20	; 32
    1b04:	51 e4       	ldi	r21, 0x41	; 65
    1b06:	0e 94 38 2e 	call	0x5c70	; 0x5c70 <__mulsf3>
    1b0a:	dc 01       	movw	r26, r24
    1b0c:	cb 01       	movw	r24, r22
    1b0e:	bc 01       	movw	r22, r24
    1b10:	cd 01       	movw	r24, r26
    1b12:	0e 94 56 2d 	call	0x5aac	; 0x5aac <__fixunssfsi>
    1b16:	dc 01       	movw	r26, r24
    1b18:	cb 01       	movw	r24, r22
    1b1a:	9b 87       	std	Y+11, r25	; 0x0b
    1b1c:	8a 87       	std	Y+10, r24	; 0x0a
    1b1e:	12 c0       	rjmp	.+36     	; 0x1b44 <GLCD_Init+0x12a>
    1b20:	89 e1       	ldi	r24, 0x19	; 25
    1b22:	90 e0       	ldi	r25, 0x00	; 0
    1b24:	9d 87       	std	Y+13, r25	; 0x0d
    1b26:	8c 87       	std	Y+12, r24	; 0x0c
    1b28:	8c 85       	ldd	r24, Y+12	; 0x0c
    1b2a:	9d 85       	ldd	r25, Y+13	; 0x0d
    1b2c:	8c 01       	movw	r16, r24
    1b2e:	c8 01       	movw	r24, r16
    1b30:	01 97       	sbiw	r24, 0x01	; 1
    1b32:	f1 f7       	brne	.-4      	; 0x1b30 <GLCD_Init+0x116>
    1b34:	8c 01       	movw	r16, r24
    1b36:	1d 87       	std	Y+13, r17	; 0x0d
    1b38:	0c 87       	std	Y+12, r16	; 0x0c
    1b3a:	8a 85       	ldd	r24, Y+10	; 0x0a
    1b3c:	9b 85       	ldd	r25, Y+11	; 0x0b
    1b3e:	01 97       	sbiw	r24, 0x01	; 1
    1b40:	9b 87       	std	Y+11, r25	; 0x0b
    1b42:	8a 87       	std	Y+10, r24	; 0x0a
    1b44:	8a 85       	ldd	r24, Y+10	; 0x0a
    1b46:	9b 85       	ldd	r25, Y+11	; 0x0b
    1b48:	00 97       	sbiw	r24, 0x00	; 0
    1b4a:	51 f7       	brne	.-44     	; 0x1b20 <GLCD_Init+0x106>
    1b4c:	17 c0       	rjmp	.+46     	; 0x1b7c <GLCD_Init+0x162>
    1b4e:	6e 81       	ldd	r22, Y+6	; 0x06
    1b50:	7f 81       	ldd	r23, Y+7	; 0x07
    1b52:	88 85       	ldd	r24, Y+8	; 0x08
    1b54:	99 85       	ldd	r25, Y+9	; 0x09
    1b56:	0e 94 56 2d 	call	0x5aac	; 0x5aac <__fixunssfsi>
    1b5a:	dc 01       	movw	r26, r24
    1b5c:	cb 01       	movw	r24, r22
    1b5e:	9b 87       	std	Y+11, r25	; 0x0b
    1b60:	8a 87       	std	Y+10, r24	; 0x0a
    1b62:	8a 85       	ldd	r24, Y+10	; 0x0a
    1b64:	9b 85       	ldd	r25, Y+11	; 0x0b
    1b66:	9f 87       	std	Y+15, r25	; 0x0f
    1b68:	8e 87       	std	Y+14, r24	; 0x0e
    1b6a:	8e 85       	ldd	r24, Y+14	; 0x0e
    1b6c:	9f 85       	ldd	r25, Y+15	; 0x0f
    1b6e:	8c 01       	movw	r16, r24
    1b70:	f8 01       	movw	r30, r16
    1b72:	31 97       	sbiw	r30, 0x01	; 1
    1b74:	f1 f7       	brne	.-4      	; 0x1b72 <GLCD_Init+0x158>
    1b76:	8f 01       	movw	r16, r30
    1b78:	1f 87       	std	Y+15, r17	; 0x0f
    1b7a:	0e 87       	std	Y+14, r16	; 0x0e
    1b7c:	0e 94 16 19 	call	0x322c	; 0x322c <glcd_SelectPage0>
    1b80:	80 ec       	ldi	r24, 0xC0	; 192
    1b82:	0e 94 c5 14 	call	0x298a	; 0x298a <glcd_CmdWrite>
    1b86:	0e 94 fd 18 	call	0x31fa	; 0x31fa <glcd_SelectPage1>
    1b8a:	80 ec       	ldi	r24, 0xC0	; 192
    1b8c:	0e 94 c5 14 	call	0x298a	; 0x298a <glcd_CmdWrite>
    1b90:	0e 94 66 0e 	call	0x1ccc	; 0x1ccc <GLCD_Clear>
    1b94:	83 e0       	ldi	r24, 0x03	; 3
    1b96:	0e 94 1d 0f 	call	0x1e3a	; 0x1e3a <GLCD_GoToLine>
    1b9a:	80 ef       	ldi	r24, 0xF0	; 240
    1b9c:	90 e0       	ldi	r25, 0x00	; 0
    1b9e:	0e 94 bd 0f 	call	0x1f7a	; 0x1f7a <GLCD_DisplayString>
    1ba2:	81 e0       	ldi	r24, 0x01	; 1
    1ba4:	89 83       	std	Y+1, r24	; 0x01
    1ba6:	83 c0       	rjmp	.+262    	; 0x1cae <GLCD_Init+0x294>
    1ba8:	80 e0       	ldi	r24, 0x00	; 0
    1baa:	90 e0       	ldi	r25, 0x00	; 0
    1bac:	a0 e2       	ldi	r26, 0x20	; 32
    1bae:	b1 e4       	ldi	r27, 0x41	; 65
    1bb0:	88 8b       	std	Y+16, r24	; 0x10
    1bb2:	99 8b       	std	Y+17, r25	; 0x11
    1bb4:	aa 8b       	std	Y+18, r26	; 0x12
    1bb6:	bb 8b       	std	Y+19, r27	; 0x13
    1bb8:	68 89       	ldd	r22, Y+16	; 0x10
    1bba:	79 89       	ldd	r23, Y+17	; 0x11
    1bbc:	8a 89       	ldd	r24, Y+18	; 0x12
    1bbe:	9b 89       	ldd	r25, Y+19	; 0x13
    1bc0:	20 e0       	ldi	r18, 0x00	; 0
    1bc2:	30 e0       	ldi	r19, 0x00	; 0
    1bc4:	4a e7       	ldi	r20, 0x7A	; 122
    1bc6:	53 e4       	ldi	r21, 0x43	; 67
    1bc8:	0e 94 38 2e 	call	0x5c70	; 0x5c70 <__mulsf3>
    1bcc:	dc 01       	movw	r26, r24
    1bce:	cb 01       	movw	r24, r22
    1bd0:	8c 8b       	std	Y+20, r24	; 0x14
    1bd2:	9d 8b       	std	Y+21, r25	; 0x15
    1bd4:	ae 8b       	std	Y+22, r26	; 0x16
    1bd6:	bf 8b       	std	Y+23, r27	; 0x17
    1bd8:	11 e0       	ldi	r17, 0x01	; 1
    1bda:	6c 89       	ldd	r22, Y+20	; 0x14
    1bdc:	7d 89       	ldd	r23, Y+21	; 0x15
    1bde:	8e 89       	ldd	r24, Y+22	; 0x16
    1be0:	9f 89       	ldd	r25, Y+23	; 0x17
    1be2:	20 e0       	ldi	r18, 0x00	; 0
    1be4:	30 e0       	ldi	r19, 0x00	; 0
    1be6:	40 e8       	ldi	r20, 0x80	; 128
    1be8:	5f e3       	ldi	r21, 0x3F	; 63
    1bea:	0e 94 ea 2c 	call	0x59d4	; 0x59d4 <__cmpsf2>
    1bee:	88 23       	and	r24, r24
    1bf0:	0c f0       	brlt	.+2      	; 0x1bf4 <GLCD_Init+0x1da>
    1bf2:	10 e0       	ldi	r17, 0x00	; 0
    1bf4:	11 23       	and	r17, r17
    1bf6:	29 f0       	breq	.+10     	; 0x1c02 <GLCD_Init+0x1e8>
    1bf8:	81 e0       	ldi	r24, 0x01	; 1
    1bfa:	90 e0       	ldi	r25, 0x00	; 0
    1bfc:	99 8f       	std	Y+25, r25	; 0x19
    1bfe:	88 8f       	std	Y+24, r24	; 0x18
    1c00:	46 c0       	rjmp	.+140    	; 0x1c8e <GLCD_Init+0x274>
    1c02:	11 e0       	ldi	r17, 0x01	; 1
    1c04:	6c 89       	ldd	r22, Y+20	; 0x14
    1c06:	7d 89       	ldd	r23, Y+21	; 0x15
    1c08:	8e 89       	ldd	r24, Y+22	; 0x16
    1c0a:	9f 89       	ldd	r25, Y+23	; 0x17
    1c0c:	20 e0       	ldi	r18, 0x00	; 0
    1c0e:	3f ef       	ldi	r19, 0xFF	; 255
    1c10:	4f e7       	ldi	r20, 0x7F	; 127
    1c12:	57 e4       	ldi	r21, 0x47	; 71
    1c14:	0e 94 34 2e 	call	0x5c68	; 0x5c68 <__gesf2>
    1c18:	18 16       	cp	r1, r24
    1c1a:	0c f0       	brlt	.+2      	; 0x1c1e <GLCD_Init+0x204>
    1c1c:	10 e0       	ldi	r17, 0x00	; 0
    1c1e:	11 23       	and	r17, r17
    1c20:	61 f1       	breq	.+88     	; 0x1c7a <GLCD_Init+0x260>
    1c22:	68 89       	ldd	r22, Y+16	; 0x10
    1c24:	79 89       	ldd	r23, Y+17	; 0x11
    1c26:	8a 89       	ldd	r24, Y+18	; 0x12
    1c28:	9b 89       	ldd	r25, Y+19	; 0x13
    1c2a:	20 e0       	ldi	r18, 0x00	; 0
    1c2c:	30 e0       	ldi	r19, 0x00	; 0
    1c2e:	40 e2       	ldi	r20, 0x20	; 32
    1c30:	51 e4       	ldi	r21, 0x41	; 65
    1c32:	0e 94 38 2e 	call	0x5c70	; 0x5c70 <__mulsf3>
    1c36:	dc 01       	movw	r26, r24
    1c38:	cb 01       	movw	r24, r22
    1c3a:	bc 01       	movw	r22, r24
    1c3c:	cd 01       	movw	r24, r26
    1c3e:	0e 94 56 2d 	call	0x5aac	; 0x5aac <__fixunssfsi>
    1c42:	dc 01       	movw	r26, r24
    1c44:	cb 01       	movw	r24, r22
    1c46:	99 8f       	std	Y+25, r25	; 0x19
    1c48:	88 8f       	std	Y+24, r24	; 0x18
    1c4a:	12 c0       	rjmp	.+36     	; 0x1c70 <GLCD_Init+0x256>
    1c4c:	89 e1       	ldi	r24, 0x19	; 25
    1c4e:	90 e0       	ldi	r25, 0x00	; 0
    1c50:	9b 8f       	std	Y+27, r25	; 0x1b
    1c52:	8a 8f       	std	Y+26, r24	; 0x1a
    1c54:	8a 8d       	ldd	r24, Y+26	; 0x1a
    1c56:	9b 8d       	ldd	r25, Y+27	; 0x1b
    1c58:	8c 01       	movw	r16, r24
    1c5a:	c8 01       	movw	r24, r16
    1c5c:	01 97       	sbiw	r24, 0x01	; 1
    1c5e:	f1 f7       	brne	.-4      	; 0x1c5c <GLCD_Init+0x242>
    1c60:	8c 01       	movw	r16, r24
    1c62:	1b 8f       	std	Y+27, r17	; 0x1b
    1c64:	0a 8f       	std	Y+26, r16	; 0x1a
    1c66:	88 8d       	ldd	r24, Y+24	; 0x18
    1c68:	99 8d       	ldd	r25, Y+25	; 0x19
    1c6a:	01 97       	sbiw	r24, 0x01	; 1
    1c6c:	99 8f       	std	Y+25, r25	; 0x19
    1c6e:	88 8f       	std	Y+24, r24	; 0x18
    1c70:	88 8d       	ldd	r24, Y+24	; 0x18
    1c72:	99 8d       	ldd	r25, Y+25	; 0x19
    1c74:	00 97       	sbiw	r24, 0x00	; 0
    1c76:	51 f7       	brne	.-44     	; 0x1c4c <GLCD_Init+0x232>
    1c78:	17 c0       	rjmp	.+46     	; 0x1ca8 <GLCD_Init+0x28e>
    1c7a:	6c 89       	ldd	r22, Y+20	; 0x14
    1c7c:	7d 89       	ldd	r23, Y+21	; 0x15
    1c7e:	8e 89       	ldd	r24, Y+22	; 0x16
    1c80:	9f 89       	ldd	r25, Y+23	; 0x17
    1c82:	0e 94 56 2d 	call	0x5aac	; 0x5aac <__fixunssfsi>
    1c86:	dc 01       	movw	r26, r24
    1c88:	cb 01       	movw	r24, r22
    1c8a:	99 8f       	std	Y+25, r25	; 0x19
    1c8c:	88 8f       	std	Y+24, r24	; 0x18
    1c8e:	88 8d       	ldd	r24, Y+24	; 0x18
    1c90:	99 8d       	ldd	r25, Y+25	; 0x19
    1c92:	9d 8f       	std	Y+29, r25	; 0x1d
    1c94:	8c 8f       	std	Y+28, r24	; 0x1c
    1c96:	8c 8d       	ldd	r24, Y+28	; 0x1c
    1c98:	9d 8d       	ldd	r25, Y+29	; 0x1d
    1c9a:	8c 01       	movw	r16, r24
    1c9c:	f8 01       	movw	r30, r16
    1c9e:	31 97       	sbiw	r30, 0x01	; 1
    1ca0:	f1 f7       	brne	.-4      	; 0x1c9e <GLCD_Init+0x284>
    1ca2:	8f 01       	movw	r16, r30
    1ca4:	1d 8f       	std	Y+29, r17	; 0x1d
    1ca6:	0c 8f       	std	Y+28, r16	; 0x1c
    1ca8:	89 81       	ldd	r24, Y+1	; 0x01
    1caa:	8f 5f       	subi	r24, 0xFF	; 255
    1cac:	89 83       	std	Y+1, r24	; 0x01
    1cae:	89 81       	ldd	r24, Y+1	; 0x01
    1cb0:	8f 3f       	cpi	r24, 0xFF	; 255
    1cb2:	09 f0       	breq	.+2      	; 0x1cb6 <GLCD_Init+0x29c>
    1cb4:	79 cf       	rjmp	.-270    	; 0x1ba8 <GLCD_Init+0x18e>
    1cb6:	6d 96       	adiw	r28, 0x1d	; 29
    1cb8:	0f b6       	in	r0, 0x3f	; 63
    1cba:	f8 94       	cli
    1cbc:	de bf       	out	0x3e, r29	; 62
    1cbe:	0f be       	out	0x3f, r0	; 63
    1cc0:	cd bf       	out	0x3d, r28	; 61
    1cc2:	cf 91       	pop	r28
    1cc4:	df 91       	pop	r29
    1cc6:	1f 91       	pop	r17
    1cc8:	0f 91       	pop	r16
    1cca:	08 95       	ret

00001ccc <GLCD_Clear>:
    1ccc:	df 93       	push	r29
    1cce:	cf 93       	push	r28
    1cd0:	00 d0       	rcall	.+0      	; 0x1cd2 <GLCD_Clear+0x6>
    1cd2:	0f 92       	push	r0
    1cd4:	cd b7       	in	r28, 0x3d	; 61
    1cd6:	de b7       	in	r29, 0x3e	; 62
    1cd8:	80 91 aa 03 	lds	r24, 0x03AA
    1cdc:	8b 83       	std	Y+3, r24	; 0x03
    1cde:	10 92 aa 03 	sts	0x03AA, r1
    1ce2:	19 82       	std	Y+1, r1	; 0x01
    1ce4:	17 c0       	rjmp	.+46     	; 0x1d14 <GLCD_Clear+0x48>
    1ce6:	89 81       	ldd	r24, Y+1	; 0x01
    1ce8:	0e 94 1d 0f 	call	0x1e3a	; 0x1e3a <GLCD_GoToLine>
    1cec:	1a 82       	std	Y+2, r1	; 0x02
    1cee:	0c c0       	rjmp	.+24     	; 0x1d08 <GLCD_Clear+0x3c>
    1cf0:	8a 81       	ldd	r24, Y+2	; 0x02
    1cf2:	80 34       	cpi	r24, 0x40	; 64
    1cf4:	19 f4       	brne	.+6      	; 0x1cfc <GLCD_Clear+0x30>
    1cf6:	81 e0       	ldi	r24, 0x01	; 1
    1cf8:	0e 94 f7 0e 	call	0x1dee	; 0x1dee <GLCD_GoToPage>
    1cfc:	80 e0       	ldi	r24, 0x00	; 0
    1cfe:	0e 94 dd 15 	call	0x2bba	; 0x2bba <glcd_DataWrite>
    1d02:	8a 81       	ldd	r24, Y+2	; 0x02
    1d04:	8f 5f       	subi	r24, 0xFF	; 255
    1d06:	8a 83       	std	Y+2, r24	; 0x02
    1d08:	8a 81       	ldd	r24, Y+2	; 0x02
    1d0a:	88 23       	and	r24, r24
    1d0c:	8c f7       	brge	.-30     	; 0x1cf0 <GLCD_Clear+0x24>
    1d0e:	89 81       	ldd	r24, Y+1	; 0x01
    1d10:	8f 5f       	subi	r24, 0xFF	; 255
    1d12:	89 83       	std	Y+1, r24	; 0x01
    1d14:	89 81       	ldd	r24, Y+1	; 0x01
    1d16:	88 30       	cpi	r24, 0x08	; 8
    1d18:	30 f3       	brcs	.-52     	; 0x1ce6 <GLCD_Clear+0x1a>
    1d1a:	8b 81       	ldd	r24, Y+3	; 0x03
    1d1c:	80 93 aa 03 	sts	0x03AA, r24
    1d20:	80 e0       	ldi	r24, 0x00	; 0
    1d22:	0e 94 1d 0f 	call	0x1e3a	; 0x1e3a <GLCD_GoToLine>
    1d26:	0f 90       	pop	r0
    1d28:	0f 90       	pop	r0
    1d2a:	0f 90       	pop	r0
    1d2c:	cf 91       	pop	r28
    1d2e:	df 91       	pop	r29
    1d30:	08 95       	ret

00001d32 <GLCD_SetCursor>:
    1d32:	df 93       	push	r29
    1d34:	cf 93       	push	r28
    1d36:	00 d0       	rcall	.+0      	; 0x1d38 <GLCD_SetCursor+0x6>
    1d38:	0f 92       	push	r0
    1d3a:	cd b7       	in	r28, 0x3d	; 61
    1d3c:	de b7       	in	r29, 0x3e	; 62
    1d3e:	89 83       	std	Y+1, r24	; 0x01
    1d40:	6a 83       	std	Y+2, r22	; 0x02
    1d42:	4b 83       	std	Y+3, r20	; 0x03
    1d44:	89 81       	ldd	r24, Y+1	; 0x01
    1d46:	88 23       	and	r24, r24
    1d48:	19 f0       	breq	.+6      	; 0x1d50 <GLCD_SetCursor+0x1e>
    1d4a:	89 81       	ldd	r24, Y+1	; 0x01
    1d4c:	81 30       	cpi	r24, 0x01	; 1
    1d4e:	09 f5       	brne	.+66     	; 0x1d92 <GLCD_SetCursor+0x60>
    1d50:	8a 81       	ldd	r24, Y+2	; 0x02
    1d52:	88 30       	cpi	r24, 0x08	; 8
    1d54:	f0 f4       	brcc	.+60     	; 0x1d92 <GLCD_SetCursor+0x60>
    1d56:	8b 81       	ldd	r24, Y+3	; 0x03
    1d58:	80 34       	cpi	r24, 0x40	; 64
    1d5a:	d8 f4       	brcc	.+54     	; 0x1d92 <GLCD_SetCursor+0x60>
    1d5c:	89 81       	ldd	r24, Y+1	; 0x01
    1d5e:	88 23       	and	r24, r24
    1d60:	19 f4       	brne	.+6      	; 0x1d68 <GLCD_SetCursor+0x36>
    1d62:	0e 94 16 19 	call	0x322c	; 0x322c <glcd_SelectPage0>
    1d66:	02 c0       	rjmp	.+4      	; 0x1d6c <GLCD_SetCursor+0x3a>
    1d68:	0e 94 fd 18 	call	0x31fa	; 0x31fa <glcd_SelectPage1>
    1d6c:	89 81       	ldd	r24, Y+1	; 0x01
    1d6e:	80 93 a7 03 	sts	0x03A7, r24
    1d72:	8a 81       	ldd	r24, Y+2	; 0x02
    1d74:	88 6b       	ori	r24, 0xB8	; 184
    1d76:	80 93 a8 03 	sts	0x03A8, r24
    1d7a:	8b 81       	ldd	r24, Y+3	; 0x03
    1d7c:	80 64       	ori	r24, 0x40	; 64
    1d7e:	80 93 a9 03 	sts	0x03A9, r24
    1d82:	80 91 a9 03 	lds	r24, 0x03A9
    1d86:	0e 94 c5 14 	call	0x298a	; 0x298a <glcd_CmdWrite>
    1d8a:	80 91 a8 03 	lds	r24, 0x03A8
    1d8e:	0e 94 c5 14 	call	0x298a	; 0x298a <glcd_CmdWrite>
    1d92:	0f 90       	pop	r0
    1d94:	0f 90       	pop	r0
    1d96:	0f 90       	pop	r0
    1d98:	cf 91       	pop	r28
    1d9a:	df 91       	pop	r29
    1d9c:	08 95       	ret

00001d9e <GLCD_GetCursor>:
    1d9e:	df 93       	push	r29
    1da0:	cf 93       	push	r28
    1da2:	00 d0       	rcall	.+0      	; 0x1da4 <GLCD_GetCursor+0x6>
    1da4:	00 d0       	rcall	.+0      	; 0x1da6 <GLCD_GetCursor+0x8>
    1da6:	00 d0       	rcall	.+0      	; 0x1da8 <GLCD_GetCursor+0xa>
    1da8:	cd b7       	in	r28, 0x3d	; 61
    1daa:	de b7       	in	r29, 0x3e	; 62
    1dac:	9a 83       	std	Y+2, r25	; 0x02
    1dae:	89 83       	std	Y+1, r24	; 0x01
    1db0:	7c 83       	std	Y+4, r23	; 0x04
    1db2:	6b 83       	std	Y+3, r22	; 0x03
    1db4:	5e 83       	std	Y+6, r21	; 0x06
    1db6:	4d 83       	std	Y+5, r20	; 0x05
    1db8:	20 91 a7 03 	lds	r18, 0x03A7
    1dbc:	89 81       	ldd	r24, Y+1	; 0x01
    1dbe:	9a 81       	ldd	r25, Y+2	; 0x02
    1dc0:	fc 01       	movw	r30, r24
    1dc2:	20 83       	st	Z, r18
    1dc4:	20 91 a8 03 	lds	r18, 0x03A8
    1dc8:	8b 81       	ldd	r24, Y+3	; 0x03
    1dca:	9c 81       	ldd	r25, Y+4	; 0x04
    1dcc:	fc 01       	movw	r30, r24
    1dce:	20 83       	st	Z, r18
    1dd0:	20 91 a9 03 	lds	r18, 0x03A9
    1dd4:	8d 81       	ldd	r24, Y+5	; 0x05
    1dd6:	9e 81       	ldd	r25, Y+6	; 0x06
    1dd8:	fc 01       	movw	r30, r24
    1dda:	20 83       	st	Z, r18
    1ddc:	26 96       	adiw	r28, 0x06	; 6
    1dde:	0f b6       	in	r0, 0x3f	; 63
    1de0:	f8 94       	cli
    1de2:	de bf       	out	0x3e, r29	; 62
    1de4:	0f be       	out	0x3f, r0	; 63
    1de6:	cd bf       	out	0x3d, r28	; 61
    1de8:	cf 91       	pop	r28
    1dea:	df 91       	pop	r29
    1dec:	08 95       	ret

00001dee <GLCD_GoToPage>:
    1dee:	df 93       	push	r29
    1df0:	cf 93       	push	r28
    1df2:	0f 92       	push	r0
    1df4:	cd b7       	in	r28, 0x3d	; 61
    1df6:	de b7       	in	r29, 0x3e	; 62
    1df8:	89 83       	std	Y+1, r24	; 0x01
    1dfa:	89 81       	ldd	r24, Y+1	; 0x01
    1dfc:	88 23       	and	r24, r24
    1dfe:	19 f0       	breq	.+6      	; 0x1e06 <GLCD_GoToPage+0x18>
    1e00:	89 81       	ldd	r24, Y+1	; 0x01
    1e02:	81 30       	cpi	r24, 0x01	; 1
    1e04:	b1 f4       	brne	.+44     	; 0x1e32 <GLCD_GoToPage+0x44>
    1e06:	89 81       	ldd	r24, Y+1	; 0x01
    1e08:	88 23       	and	r24, r24
    1e0a:	19 f4       	brne	.+6      	; 0x1e12 <GLCD_GoToPage+0x24>
    1e0c:	0e 94 16 19 	call	0x322c	; 0x322c <glcd_SelectPage0>
    1e10:	02 c0       	rjmp	.+4      	; 0x1e16 <GLCD_GoToPage+0x28>
    1e12:	0e 94 fd 18 	call	0x31fa	; 0x31fa <glcd_SelectPage1>
    1e16:	89 81       	ldd	r24, Y+1	; 0x01
    1e18:	80 93 a7 03 	sts	0x03A7, r24
    1e1c:	80 e4       	ldi	r24, 0x40	; 64
    1e1e:	80 93 a9 03 	sts	0x03A9, r24
    1e22:	80 91 a8 03 	lds	r24, 0x03A8
    1e26:	0e 94 c5 14 	call	0x298a	; 0x298a <glcd_CmdWrite>
    1e2a:	80 91 a9 03 	lds	r24, 0x03A9
    1e2e:	0e 94 c5 14 	call	0x298a	; 0x298a <glcd_CmdWrite>
    1e32:	0f 90       	pop	r0
    1e34:	cf 91       	pop	r28
    1e36:	df 91       	pop	r29
    1e38:	08 95       	ret

00001e3a <GLCD_GoToLine>:
    1e3a:	df 93       	push	r29
    1e3c:	cf 93       	push	r28
    1e3e:	0f 92       	push	r0
    1e40:	cd b7       	in	r28, 0x3d	; 61
    1e42:	de b7       	in	r29, 0x3e	; 62
    1e44:	89 83       	std	Y+1, r24	; 0x01
    1e46:	89 81       	ldd	r24, Y+1	; 0x01
    1e48:	88 30       	cpi	r24, 0x08	; 8
    1e4a:	38 f4       	brcc	.+14     	; 0x1e5a <GLCD_GoToLine+0x20>
    1e4c:	89 81       	ldd	r24, Y+1	; 0x01
    1e4e:	88 54       	subi	r24, 0x48	; 72
    1e50:	80 93 a8 03 	sts	0x03A8, r24
    1e54:	80 e0       	ldi	r24, 0x00	; 0
    1e56:	0e 94 f7 0e 	call	0x1dee	; 0x1dee <GLCD_GoToPage>
    1e5a:	0f 90       	pop	r0
    1e5c:	cf 91       	pop	r28
    1e5e:	df 91       	pop	r29
    1e60:	08 95       	ret

00001e62 <GLCD_GoToNextLine>:
    1e62:	df 93       	push	r29
    1e64:	cf 93       	push	r28
    1e66:	cd b7       	in	r28, 0x3d	; 61
    1e68:	de b7       	in	r29, 0x3e	; 62
    1e6a:	80 91 a8 03 	lds	r24, 0x03A8
    1e6e:	8f 5f       	subi	r24, 0xFF	; 255
    1e70:	80 93 a8 03 	sts	0x03A8, r24
    1e74:	80 91 a8 03 	lds	r24, 0x03A8
    1e78:	80 3c       	cpi	r24, 0xC0	; 192
    1e7a:	18 f0       	brcs	.+6      	; 0x1e82 <GLCD_GoToNextLine+0x20>
    1e7c:	88 eb       	ldi	r24, 0xB8	; 184
    1e7e:	80 93 a8 03 	sts	0x03A8, r24
    1e82:	80 e0       	ldi	r24, 0x00	; 0
    1e84:	0e 94 f7 0e 	call	0x1dee	; 0x1dee <GLCD_GoToPage>
    1e88:	cf 91       	pop	r28
    1e8a:	df 91       	pop	r29
    1e8c:	08 95       	ret

00001e8e <GLCD_EnableDisplayInversion>:
    1e8e:	df 93       	push	r29
    1e90:	cf 93       	push	r28
    1e92:	cd b7       	in	r28, 0x3d	; 61
    1e94:	de b7       	in	r29, 0x3e	; 62
    1e96:	8f ef       	ldi	r24, 0xFF	; 255
    1e98:	80 93 aa 03 	sts	0x03AA, r24
    1e9c:	cf 91       	pop	r28
    1e9e:	df 91       	pop	r29
    1ea0:	08 95       	ret

00001ea2 <GLCD_DisableDisplayInversion>:
    1ea2:	df 93       	push	r29
    1ea4:	cf 93       	push	r28
    1ea6:	cd b7       	in	r28, 0x3d	; 61
    1ea8:	de b7       	in	r29, 0x3e	; 62
    1eaa:	10 92 aa 03 	sts	0x03AA, r1
    1eae:	cf 91       	pop	r28
    1eb0:	df 91       	pop	r29
    1eb2:	08 95       	ret

00001eb4 <GLCD_DisplayChar>:
    1eb4:	1f 93       	push	r17
    1eb6:	df 93       	push	r29
    1eb8:	cf 93       	push	r28
    1eba:	cd b7       	in	r28, 0x3d	; 61
    1ebc:	de b7       	in	r29, 0x3e	; 62
    1ebe:	27 97       	sbiw	r28, 0x07	; 7
    1ec0:	0f b6       	in	r0, 0x3f	; 63
    1ec2:	f8 94       	cli
    1ec4:	de bf       	out	0x3e, r29	; 62
    1ec6:	0f be       	out	0x3f, r0	; 63
    1ec8:	cd bf       	out	0x3d, r28	; 61
    1eca:	8f 83       	std	Y+7, r24	; 0x07
    1ecc:	80 91 a7 03 	lds	r24, 0x03A7
    1ed0:	81 30       	cpi	r24, 0x01	; 1
    1ed2:	21 f4       	brne	.+8      	; 0x1edc <GLCD_DisplayChar+0x28>
    1ed4:	80 91 a9 03 	lds	r24, 0x03A9
    1ed8:	8c 37       	cpi	r24, 0x7C	; 124
    1eda:	18 f4       	brcc	.+6      	; 0x1ee2 <GLCD_DisplayChar+0x2e>
    1edc:	8f 81       	ldd	r24, Y+7	; 0x07
    1ede:	8a 30       	cpi	r24, 0x0A	; 10
    1ee0:	11 f4       	brne	.+4      	; 0x1ee6 <GLCD_DisplayChar+0x32>
    1ee2:	0e 94 31 0f 	call	0x1e62	; 0x1e62 <GLCD_GoToNextLine>
    1ee6:	8f 81       	ldd	r24, Y+7	; 0x07
    1ee8:	8a 30       	cpi	r24, 0x0A	; 10
    1eea:	09 f4       	brne	.+2      	; 0x1eee <GLCD_DisplayChar+0x3a>
    1eec:	3c c0       	rjmp	.+120    	; 0x1f66 <GLCD_DisplayChar+0xb2>
    1eee:	24 e8       	ldi	r18, 0x84	; 132
    1ef0:	33 e0       	ldi	r19, 0x03	; 3
    1ef2:	8f 81       	ldd	r24, Y+7	; 0x07
    1ef4:	88 2f       	mov	r24, r24
    1ef6:	90 e0       	ldi	r25, 0x00	; 0
    1ef8:	ac 01       	movw	r20, r24
    1efa:	44 0f       	add	r20, r20
    1efc:	55 1f       	adc	r21, r21
    1efe:	44 0f       	add	r20, r20
    1f00:	55 1f       	adc	r21, r21
    1f02:	44 0f       	add	r20, r20
    1f04:	55 1f       	adc	r21, r21
    1f06:	ba 01       	movw	r22, r20
    1f08:	68 1b       	sub	r22, r24
    1f0a:	79 0b       	sbc	r23, r25
    1f0c:	cb 01       	movw	r24, r22
    1f0e:	82 0f       	add	r24, r18
    1f10:	93 1f       	adc	r25, r19
    1f12:	9a 83       	std	Y+2, r25	; 0x02
    1f14:	89 83       	std	Y+1, r24	; 0x01
    1f16:	80 91 a7 03 	lds	r24, 0x03A7
    1f1a:	88 23       	and	r24, r24
    1f1c:	39 f4       	brne	.+14     	; 0x1f2c <GLCD_DisplayChar+0x78>
    1f1e:	80 91 a9 03 	lds	r24, 0x03A9
    1f22:	80 38       	cpi	r24, 0x80	; 128
    1f24:	19 f4       	brne	.+6      	; 0x1f2c <GLCD_DisplayChar+0x78>
    1f26:	81 e0       	ldi	r24, 0x01	; 1
    1f28:	0e 94 f7 0e 	call	0x1dee	; 0x1dee <GLCD_GoToPage>
    1f2c:	89 81       	ldd	r24, Y+1	; 0x01
    1f2e:	9a 81       	ldd	r25, Y+2	; 0x02
    1f30:	9c 83       	std	Y+4, r25	; 0x04
    1f32:	8b 83       	std	Y+3, r24	; 0x03
    1f34:	89 81       	ldd	r24, Y+1	; 0x01
    1f36:	9a 81       	ldd	r25, Y+2	; 0x02
    1f38:	01 96       	adiw	r24, 0x01	; 1
    1f3a:	9a 83       	std	Y+2, r25	; 0x02
    1f3c:	89 83       	std	Y+1, r24	; 0x01
    1f3e:	8b 81       	ldd	r24, Y+3	; 0x03
    1f40:	9c 81       	ldd	r25, Y+4	; 0x04
    1f42:	fc 01       	movw	r30, r24
    1f44:	14 91       	lpm	r17, Z+
    1f46:	1d 83       	std	Y+5, r17	; 0x05
    1f48:	8d 81       	ldd	r24, Y+5	; 0x05
    1f4a:	8e 83       	std	Y+6, r24	; 0x06
    1f4c:	8e 81       	ldd	r24, Y+6	; 0x06
    1f4e:	8f 3f       	cpi	r24, 0xFF	; 255
    1f50:	49 f0       	breq	.+18     	; 0x1f64 <GLCD_DisplayChar+0xb0>
    1f52:	8e 81       	ldd	r24, Y+6	; 0x06
    1f54:	0e 94 dd 15 	call	0x2bba	; 0x2bba <glcd_DataWrite>
    1f58:	80 91 a9 03 	lds	r24, 0x03A9
    1f5c:	8f 5f       	subi	r24, 0xFF	; 255
    1f5e:	80 93 a9 03 	sts	0x03A9, r24
    1f62:	d9 cf       	rjmp	.-78     	; 0x1f16 <GLCD_DisplayChar+0x62>
    1f64:	00 00       	nop
    1f66:	27 96       	adiw	r28, 0x07	; 7
    1f68:	0f b6       	in	r0, 0x3f	; 63
    1f6a:	f8 94       	cli
    1f6c:	de bf       	out	0x3e, r29	; 62
    1f6e:	0f be       	out	0x3f, r0	; 63
    1f70:	cd bf       	out	0x3d, r28	; 61
    1f72:	cf 91       	pop	r28
    1f74:	df 91       	pop	r29
    1f76:	1f 91       	pop	r17
    1f78:	08 95       	ret

00001f7a <GLCD_DisplayString>:
    1f7a:	df 93       	push	r29
    1f7c:	cf 93       	push	r28
    1f7e:	00 d0       	rcall	.+0      	; 0x1f80 <GLCD_DisplayString+0x6>
    1f80:	cd b7       	in	r28, 0x3d	; 61
    1f82:	de b7       	in	r29, 0x3e	; 62
    1f84:	9a 83       	std	Y+2, r25	; 0x02
    1f86:	89 83       	std	Y+1, r24	; 0x01
    1f88:	0c c0       	rjmp	.+24     	; 0x1fa2 <GLCD_DisplayString+0x28>
    1f8a:	89 81       	ldd	r24, Y+1	; 0x01
    1f8c:	9a 81       	ldd	r25, Y+2	; 0x02
    1f8e:	fc 01       	movw	r30, r24
    1f90:	20 81       	ld	r18, Z
    1f92:	89 81       	ldd	r24, Y+1	; 0x01
    1f94:	9a 81       	ldd	r25, Y+2	; 0x02
    1f96:	01 96       	adiw	r24, 0x01	; 1
    1f98:	9a 83       	std	Y+2, r25	; 0x02
    1f9a:	89 83       	std	Y+1, r24	; 0x01
    1f9c:	82 2f       	mov	r24, r18
    1f9e:	0e 94 5a 0f 	call	0x1eb4	; 0x1eb4 <GLCD_DisplayChar>
    1fa2:	89 81       	ldd	r24, Y+1	; 0x01
    1fa4:	9a 81       	ldd	r25, Y+2	; 0x02
    1fa6:	fc 01       	movw	r30, r24
    1fa8:	80 81       	ld	r24, Z
    1faa:	88 23       	and	r24, r24
    1fac:	71 f7       	brne	.-36     	; 0x1f8a <GLCD_DisplayString+0x10>
    1fae:	0f 90       	pop	r0
    1fb0:	0f 90       	pop	r0
    1fb2:	cf 91       	pop	r28
    1fb4:	df 91       	pop	r29
    1fb6:	08 95       	ret

00001fb8 <GLCD_DisplayDecimalNumber>:
    1fb8:	0f 93       	push	r16
    1fba:	1f 93       	push	r17
    1fbc:	df 93       	push	r29
    1fbe:	cf 93       	push	r28
    1fc0:	cd b7       	in	r28, 0x3d	; 61
    1fc2:	de b7       	in	r29, 0x3e	; 62
    1fc4:	60 97       	sbiw	r28, 0x10	; 16
    1fc6:	0f b6       	in	r0, 0x3f	; 63
    1fc8:	f8 94       	cli
    1fca:	de bf       	out	0x3e, r29	; 62
    1fcc:	0f be       	out	0x3f, r0	; 63
    1fce:	cd bf       	out	0x3d, r28	; 61
    1fd0:	6c 87       	std	Y+12, r22	; 0x0c
    1fd2:	7d 87       	std	Y+13, r23	; 0x0d
    1fd4:	8e 87       	std	Y+14, r24	; 0x0e
    1fd6:	9f 87       	std	Y+15, r25	; 0x0f
    1fd8:	48 8b       	std	Y+16, r20	; 0x10
    1fda:	19 82       	std	Y+1, r1	; 0x01
    1fdc:	8c 85       	ldd	r24, Y+12	; 0x0c
    1fde:	9d 85       	ldd	r25, Y+13	; 0x0d
    1fe0:	ae 85       	ldd	r26, Y+14	; 0x0e
    1fe2:	bf 85       	ldd	r27, Y+15	; 0x0f
    1fe4:	00 97       	sbiw	r24, 0x00	; 0
    1fe6:	a1 05       	cpc	r26, r1
    1fe8:	b1 05       	cpc	r27, r1
    1fea:	c1 f4       	brne	.+48     	; 0x201c <GLCD_DisplayDecimalNumber+0x64>
    1fec:	19 82       	std	Y+1, r1	; 0x01
    1fee:	0d c0       	rjmp	.+26     	; 0x200a <GLCD_DisplayDecimalNumber+0x52>
    1ff0:	89 81       	ldd	r24, Y+1	; 0x01
    1ff2:	88 2f       	mov	r24, r24
    1ff4:	90 e0       	ldi	r25, 0x00	; 0
    1ff6:	9e 01       	movw	r18, r28
    1ff8:	2e 5f       	subi	r18, 0xFE	; 254
    1ffa:	3f 4f       	sbci	r19, 0xFF	; 255
    1ffc:	82 0f       	add	r24, r18
    1ffe:	93 1f       	adc	r25, r19
    2000:	fc 01       	movw	r30, r24
    2002:	10 82       	st	Z, r1
    2004:	89 81       	ldd	r24, Y+1	; 0x01
    2006:	8f 5f       	subi	r24, 0xFF	; 255
    2008:	89 83       	std	Y+1, r24	; 0x01
    200a:	99 81       	ldd	r25, Y+1	; 0x01
    200c:	88 89       	ldd	r24, Y+16	; 0x10
    200e:	98 17       	cp	r25, r24
    2010:	08 f0       	brcs	.+2      	; 0x2014 <GLCD_DisplayDecimalNumber+0x5c>
    2012:	61 c0       	rjmp	.+194    	; 0x20d6 <GLCD_DisplayDecimalNumber+0x11e>
    2014:	89 81       	ldd	r24, Y+1	; 0x01
    2016:	8a 30       	cpi	r24, 0x0A	; 10
    2018:	58 f3       	brcs	.-42     	; 0x1ff0 <GLCD_DisplayDecimalNumber+0x38>
    201a:	5d c0       	rjmp	.+186    	; 0x20d6 <GLCD_DisplayDecimalNumber+0x11e>
    201c:	19 82       	std	Y+1, r1	; 0x01
    201e:	44 c0       	rjmp	.+136    	; 0x20a8 <GLCD_DisplayDecimalNumber+0xf0>
    2020:	8c 85       	ldd	r24, Y+12	; 0x0c
    2022:	9d 85       	ldd	r25, Y+13	; 0x0d
    2024:	ae 85       	ldd	r26, Y+14	; 0x0e
    2026:	bf 85       	ldd	r27, Y+15	; 0x0f
    2028:	00 97       	sbiw	r24, 0x00	; 0
    202a:	a1 05       	cpc	r26, r1
    202c:	b1 05       	cpc	r27, r1
    202e:	49 f1       	breq	.+82     	; 0x2082 <GLCD_DisplayDecimalNumber+0xca>
    2030:	89 81       	ldd	r24, Y+1	; 0x01
    2032:	08 2f       	mov	r16, r24
    2034:	10 e0       	ldi	r17, 0x00	; 0
    2036:	8c 85       	ldd	r24, Y+12	; 0x0c
    2038:	9d 85       	ldd	r25, Y+13	; 0x0d
    203a:	ae 85       	ldd	r26, Y+14	; 0x0e
    203c:	bf 85       	ldd	r27, Y+15	; 0x0f
    203e:	2a e0       	ldi	r18, 0x0A	; 10
    2040:	30 e0       	ldi	r19, 0x00	; 0
    2042:	40 e0       	ldi	r20, 0x00	; 0
    2044:	50 e0       	ldi	r21, 0x00	; 0
    2046:	bc 01       	movw	r22, r24
    2048:	cd 01       	movw	r24, r26
    204a:	0e 94 da 2e 	call	0x5db4	; 0x5db4 <__udivmodsi4>
    204e:	dc 01       	movw	r26, r24
    2050:	cb 01       	movw	r24, r22
    2052:	28 2f       	mov	r18, r24
    2054:	ce 01       	movw	r24, r28
    2056:	02 96       	adiw	r24, 0x02	; 2
    2058:	80 0f       	add	r24, r16
    205a:	91 1f       	adc	r25, r17
    205c:	fc 01       	movw	r30, r24
    205e:	20 83       	st	Z, r18
    2060:	8c 85       	ldd	r24, Y+12	; 0x0c
    2062:	9d 85       	ldd	r25, Y+13	; 0x0d
    2064:	ae 85       	ldd	r26, Y+14	; 0x0e
    2066:	bf 85       	ldd	r27, Y+15	; 0x0f
    2068:	2a e0       	ldi	r18, 0x0A	; 10
    206a:	30 e0       	ldi	r19, 0x00	; 0
    206c:	40 e0       	ldi	r20, 0x00	; 0
    206e:	50 e0       	ldi	r21, 0x00	; 0
    2070:	bc 01       	movw	r22, r24
    2072:	cd 01       	movw	r24, r26
    2074:	0e 94 da 2e 	call	0x5db4	; 0x5db4 <__udivmodsi4>
    2078:	2c 87       	std	Y+12, r18	; 0x0c
    207a:	3d 87       	std	Y+13, r19	; 0x0d
    207c:	4e 87       	std	Y+14, r20	; 0x0e
    207e:	5f 87       	std	Y+15, r21	; 0x0f
    2080:	10 c0       	rjmp	.+32     	; 0x20a2 <GLCD_DisplayDecimalNumber+0xea>
    2082:	88 89       	ldd	r24, Y+16	; 0x10
    2084:	8f 3f       	cpi	r24, 0xFF	; 255
    2086:	39 f1       	breq	.+78     	; 0x20d6 <GLCD_DisplayDecimalNumber+0x11e>
    2088:	88 89       	ldd	r24, Y+16	; 0x10
    208a:	8b 30       	cpi	r24, 0x0B	; 11
    208c:	20 f5       	brcc	.+72     	; 0x20d6 <GLCD_DisplayDecimalNumber+0x11e>
    208e:	89 81       	ldd	r24, Y+1	; 0x01
    2090:	88 2f       	mov	r24, r24
    2092:	90 e0       	ldi	r25, 0x00	; 0
    2094:	9e 01       	movw	r18, r28
    2096:	2e 5f       	subi	r18, 0xFE	; 254
    2098:	3f 4f       	sbci	r19, 0xFF	; 255
    209a:	82 0f       	add	r24, r18
    209c:	93 1f       	adc	r25, r19
    209e:	fc 01       	movw	r30, r24
    20a0:	10 82       	st	Z, r1
    20a2:	89 81       	ldd	r24, Y+1	; 0x01
    20a4:	8f 5f       	subi	r24, 0xFF	; 255
    20a6:	89 83       	std	Y+1, r24	; 0x01
    20a8:	99 81       	ldd	r25, Y+1	; 0x01
    20aa:	88 89       	ldd	r24, Y+16	; 0x10
    20ac:	98 17       	cp	r25, r24
    20ae:	08 f4       	brcc	.+2      	; 0x20b2 <GLCD_DisplayDecimalNumber+0xfa>
    20b0:	b7 cf       	rjmp	.-146    	; 0x2020 <GLCD_DisplayDecimalNumber+0x68>
    20b2:	11 c0       	rjmp	.+34     	; 0x20d6 <GLCD_DisplayDecimalNumber+0x11e>
    20b4:	89 81       	ldd	r24, Y+1	; 0x01
    20b6:	88 2f       	mov	r24, r24
    20b8:	90 e0       	ldi	r25, 0x00	; 0
    20ba:	01 97       	sbiw	r24, 0x01	; 1
    20bc:	9e 01       	movw	r18, r28
    20be:	2e 5f       	subi	r18, 0xFE	; 254
    20c0:	3f 4f       	sbci	r19, 0xFF	; 255
    20c2:	82 0f       	add	r24, r18
    20c4:	93 1f       	adc	r25, r19
    20c6:	fc 01       	movw	r30, r24
    20c8:	80 81       	ld	r24, Z
    20ca:	80 5d       	subi	r24, 0xD0	; 208
    20cc:	0e 94 5a 0f 	call	0x1eb4	; 0x1eb4 <GLCD_DisplayChar>
    20d0:	89 81       	ldd	r24, Y+1	; 0x01
    20d2:	81 50       	subi	r24, 0x01	; 1
    20d4:	89 83       	std	Y+1, r24	; 0x01
    20d6:	89 81       	ldd	r24, Y+1	; 0x01
    20d8:	88 23       	and	r24, r24
    20da:	61 f7       	brne	.-40     	; 0x20b4 <GLCD_DisplayDecimalNumber+0xfc>
    20dc:	60 96       	adiw	r28, 0x10	; 16
    20de:	0f b6       	in	r0, 0x3f	; 63
    20e0:	f8 94       	cli
    20e2:	de bf       	out	0x3e, r29	; 62
    20e4:	0f be       	out	0x3f, r0	; 63
    20e6:	cd bf       	out	0x3d, r28	; 61
    20e8:	cf 91       	pop	r28
    20ea:	df 91       	pop	r29
    20ec:	1f 91       	pop	r17
    20ee:	0f 91       	pop	r16
    20f0:	08 95       	ret

000020f2 <GLCD_DisplayHexNumber>:
    20f2:	df 93       	push	r29
    20f4:	cf 93       	push	r28
    20f6:	cd b7       	in	r28, 0x3d	; 61
    20f8:	de b7       	in	r29, 0x3e	; 62
    20fa:	60 97       	sbiw	r28, 0x10	; 16
    20fc:	0f b6       	in	r0, 0x3f	; 63
    20fe:	f8 94       	cli
    2100:	de bf       	out	0x3e, r29	; 62
    2102:	0f be       	out	0x3f, r0	; 63
    2104:	cd bf       	out	0x3d, r28	; 61
    2106:	6c 87       	std	Y+12, r22	; 0x0c
    2108:	7d 87       	std	Y+13, r23	; 0x0d
    210a:	8e 87       	std	Y+14, r24	; 0x0e
    210c:	9f 87       	std	Y+15, r25	; 0x0f
    210e:	48 8b       	std	Y+16, r20	; 0x10
    2110:	19 82       	std	Y+1, r1	; 0x01
    2112:	8c 85       	ldd	r24, Y+12	; 0x0c
    2114:	9d 85       	ldd	r25, Y+13	; 0x0d
    2116:	ae 85       	ldd	r26, Y+14	; 0x0e
    2118:	bf 85       	ldd	r27, Y+15	; 0x0f
    211a:	00 97       	sbiw	r24, 0x00	; 0
    211c:	a1 05       	cpc	r26, r1
    211e:	b1 05       	cpc	r27, r1
    2120:	c1 f4       	brne	.+48     	; 0x2152 <GLCD_DisplayHexNumber+0x60>
    2122:	19 82       	std	Y+1, r1	; 0x01
    2124:	0d c0       	rjmp	.+26     	; 0x2140 <GLCD_DisplayHexNumber+0x4e>
    2126:	89 81       	ldd	r24, Y+1	; 0x01
    2128:	88 2f       	mov	r24, r24
    212a:	90 e0       	ldi	r25, 0x00	; 0
    212c:	9e 01       	movw	r18, r28
    212e:	2e 5f       	subi	r18, 0xFE	; 254
    2130:	3f 4f       	sbci	r19, 0xFF	; 255
    2132:	82 0f       	add	r24, r18
    2134:	93 1f       	adc	r25, r19
    2136:	fc 01       	movw	r30, r24
    2138:	10 82       	st	Z, r1
    213a:	89 81       	ldd	r24, Y+1	; 0x01
    213c:	8f 5f       	subi	r24, 0xFF	; 255
    213e:	89 83       	std	Y+1, r24	; 0x01
    2140:	99 81       	ldd	r25, Y+1	; 0x01
    2142:	88 89       	ldd	r24, Y+16	; 0x10
    2144:	98 17       	cp	r25, r24
    2146:	08 f0       	brcs	.+2      	; 0x214a <GLCD_DisplayHexNumber+0x58>
    2148:	72 c0       	rjmp	.+228    	; 0x222e <GLCD_DisplayHexNumber+0x13c>
    214a:	89 81       	ldd	r24, Y+1	; 0x01
    214c:	8a 30       	cpi	r24, 0x0A	; 10
    214e:	58 f3       	brcs	.-42     	; 0x2126 <GLCD_DisplayHexNumber+0x34>
    2150:	6e c0       	rjmp	.+220    	; 0x222e <GLCD_DisplayHexNumber+0x13c>
    2152:	19 82       	std	Y+1, r1	; 0x01
    2154:	3b c0       	rjmp	.+118    	; 0x21cc <GLCD_DisplayHexNumber+0xda>
    2156:	8c 85       	ldd	r24, Y+12	; 0x0c
    2158:	9d 85       	ldd	r25, Y+13	; 0x0d
    215a:	ae 85       	ldd	r26, Y+14	; 0x0e
    215c:	bf 85       	ldd	r27, Y+15	; 0x0f
    215e:	00 97       	sbiw	r24, 0x00	; 0
    2160:	a1 05       	cpc	r26, r1
    2162:	b1 05       	cpc	r27, r1
    2164:	f1 f0       	breq	.+60     	; 0x21a2 <GLCD_DisplayHexNumber+0xb0>
    2166:	89 81       	ldd	r24, Y+1	; 0x01
    2168:	88 2f       	mov	r24, r24
    216a:	90 e0       	ldi	r25, 0x00	; 0
    216c:	2c 85       	ldd	r18, Y+12	; 0x0c
    216e:	42 2f       	mov	r20, r18
    2170:	4f 70       	andi	r20, 0x0F	; 15
    2172:	9e 01       	movw	r18, r28
    2174:	2e 5f       	subi	r18, 0xFE	; 254
    2176:	3f 4f       	sbci	r19, 0xFF	; 255
    2178:	82 0f       	add	r24, r18
    217a:	93 1f       	adc	r25, r19
    217c:	fc 01       	movw	r30, r24
    217e:	40 83       	st	Z, r20
    2180:	8c 85       	ldd	r24, Y+12	; 0x0c
    2182:	9d 85       	ldd	r25, Y+13	; 0x0d
    2184:	ae 85       	ldd	r26, Y+14	; 0x0e
    2186:	bf 85       	ldd	r27, Y+15	; 0x0f
    2188:	68 94       	set
    218a:	13 f8       	bld	r1, 3
    218c:	b6 95       	lsr	r27
    218e:	a7 95       	ror	r26
    2190:	97 95       	ror	r25
    2192:	87 95       	ror	r24
    2194:	16 94       	lsr	r1
    2196:	d1 f7       	brne	.-12     	; 0x218c <GLCD_DisplayHexNumber+0x9a>
    2198:	8c 87       	std	Y+12, r24	; 0x0c
    219a:	9d 87       	std	Y+13, r25	; 0x0d
    219c:	ae 87       	std	Y+14, r26	; 0x0e
    219e:	bf 87       	std	Y+15, r27	; 0x0f
    21a0:	12 c0       	rjmp	.+36     	; 0x21c6 <GLCD_DisplayHexNumber+0xd4>
    21a2:	88 89       	ldd	r24, Y+16	; 0x10
    21a4:	8f 3f       	cpi	r24, 0xFF	; 255
    21a6:	09 f4       	brne	.+2      	; 0x21aa <GLCD_DisplayHexNumber+0xb8>
    21a8:	42 c0       	rjmp	.+132    	; 0x222e <GLCD_DisplayHexNumber+0x13c>
    21aa:	88 89       	ldd	r24, Y+16	; 0x10
    21ac:	8b 30       	cpi	r24, 0x0B	; 11
    21ae:	08 f0       	brcs	.+2      	; 0x21b2 <GLCD_DisplayHexNumber+0xc0>
    21b0:	3e c0       	rjmp	.+124    	; 0x222e <GLCD_DisplayHexNumber+0x13c>
    21b2:	89 81       	ldd	r24, Y+1	; 0x01
    21b4:	88 2f       	mov	r24, r24
    21b6:	90 e0       	ldi	r25, 0x00	; 0
    21b8:	9e 01       	movw	r18, r28
    21ba:	2e 5f       	subi	r18, 0xFE	; 254
    21bc:	3f 4f       	sbci	r19, 0xFF	; 255
    21be:	82 0f       	add	r24, r18
    21c0:	93 1f       	adc	r25, r19
    21c2:	fc 01       	movw	r30, r24
    21c4:	10 82       	st	Z, r1
    21c6:	89 81       	ldd	r24, Y+1	; 0x01
    21c8:	8f 5f       	subi	r24, 0xFF	; 255
    21ca:	89 83       	std	Y+1, r24	; 0x01
    21cc:	99 81       	ldd	r25, Y+1	; 0x01
    21ce:	88 89       	ldd	r24, Y+16	; 0x10
    21d0:	98 17       	cp	r25, r24
    21d2:	08 f4       	brcc	.+2      	; 0x21d6 <GLCD_DisplayHexNumber+0xe4>
    21d4:	c0 cf       	rjmp	.-128    	; 0x2156 <GLCD_DisplayHexNumber+0x64>
    21d6:	2b c0       	rjmp	.+86     	; 0x222e <GLCD_DisplayHexNumber+0x13c>
    21d8:	89 81       	ldd	r24, Y+1	; 0x01
    21da:	88 2f       	mov	r24, r24
    21dc:	90 e0       	ldi	r25, 0x00	; 0
    21de:	01 97       	sbiw	r24, 0x01	; 1
    21e0:	9e 01       	movw	r18, r28
    21e2:	2e 5f       	subi	r18, 0xFE	; 254
    21e4:	3f 4f       	sbci	r19, 0xFF	; 255
    21e6:	82 0f       	add	r24, r18
    21e8:	93 1f       	adc	r25, r19
    21ea:	fc 01       	movw	r30, r24
    21ec:	80 81       	ld	r24, Z
    21ee:	8a 30       	cpi	r24, 0x0A	; 10
    21f0:	68 f0       	brcs	.+26     	; 0x220c <GLCD_DisplayHexNumber+0x11a>
    21f2:	89 81       	ldd	r24, Y+1	; 0x01
    21f4:	88 2f       	mov	r24, r24
    21f6:	90 e0       	ldi	r25, 0x00	; 0
    21f8:	01 97       	sbiw	r24, 0x01	; 1
    21fa:	9e 01       	movw	r18, r28
    21fc:	2e 5f       	subi	r18, 0xFE	; 254
    21fe:	3f 4f       	sbci	r19, 0xFF	; 255
    2200:	82 0f       	add	r24, r18
    2202:	93 1f       	adc	r25, r19
    2204:	fc 01       	movw	r30, r24
    2206:	80 81       	ld	r24, Z
    2208:	89 5c       	subi	r24, 0xC9	; 201
    220a:	0c c0       	rjmp	.+24     	; 0x2224 <GLCD_DisplayHexNumber+0x132>
    220c:	89 81       	ldd	r24, Y+1	; 0x01
    220e:	88 2f       	mov	r24, r24
    2210:	90 e0       	ldi	r25, 0x00	; 0
    2212:	01 97       	sbiw	r24, 0x01	; 1
    2214:	9e 01       	movw	r18, r28
    2216:	2e 5f       	subi	r18, 0xFE	; 254
    2218:	3f 4f       	sbci	r19, 0xFF	; 255
    221a:	82 0f       	add	r24, r18
    221c:	93 1f       	adc	r25, r19
    221e:	fc 01       	movw	r30, r24
    2220:	80 81       	ld	r24, Z
    2222:	80 5d       	subi	r24, 0xD0	; 208
    2224:	0e 94 5a 0f 	call	0x1eb4	; 0x1eb4 <GLCD_DisplayChar>
    2228:	89 81       	ldd	r24, Y+1	; 0x01
    222a:	81 50       	subi	r24, 0x01	; 1
    222c:	89 83       	std	Y+1, r24	; 0x01
    222e:	89 81       	ldd	r24, Y+1	; 0x01
    2230:	88 23       	and	r24, r24
    2232:	91 f6       	brne	.-92     	; 0x21d8 <GLCD_DisplayHexNumber+0xe6>
    2234:	60 96       	adiw	r28, 0x10	; 16
    2236:	0f b6       	in	r0, 0x3f	; 63
    2238:	f8 94       	cli
    223a:	de bf       	out	0x3e, r29	; 62
    223c:	0f be       	out	0x3f, r0	; 63
    223e:	cd bf       	out	0x3d, r28	; 61
    2240:	cf 91       	pop	r28
    2242:	df 91       	pop	r29
    2244:	08 95       	ret

00002246 <GLCD_DisplayBinaryNumber>:
    2246:	df 93       	push	r29
    2248:	cf 93       	push	r28
    224a:	00 d0       	rcall	.+0      	; 0x224c <GLCD_DisplayBinaryNumber+0x6>
    224c:	00 d0       	rcall	.+0      	; 0x224e <GLCD_DisplayBinaryNumber+0x8>
    224e:	00 d0       	rcall	.+0      	; 0x2250 <GLCD_DisplayBinaryNumber+0xa>
    2250:	cd b7       	in	r28, 0x3d	; 61
    2252:	de b7       	in	r29, 0x3e	; 62
    2254:	6a 83       	std	Y+2, r22	; 0x02
    2256:	7b 83       	std	Y+3, r23	; 0x03
    2258:	8c 83       	std	Y+4, r24	; 0x04
    225a:	9d 83       	std	Y+5, r25	; 0x05
    225c:	4e 83       	std	Y+6, r20	; 0x06
    225e:	28 c0       	rjmp	.+80     	; 0x22b0 <GLCD_DisplayBinaryNumber+0x6a>
    2260:	8e 81       	ldd	r24, Y+6	; 0x06
    2262:	88 2f       	mov	r24, r24
    2264:	90 e0       	ldi	r25, 0x00	; 0
    2266:	9c 01       	movw	r18, r24
    2268:	21 50       	subi	r18, 0x01	; 1
    226a:	30 40       	sbci	r19, 0x00	; 0
    226c:	81 e0       	ldi	r24, 0x01	; 1
    226e:	90 e0       	ldi	r25, 0x00	; 0
    2270:	02 c0       	rjmp	.+4      	; 0x2276 <GLCD_DisplayBinaryNumber+0x30>
    2272:	88 0f       	add	r24, r24
    2274:	99 1f       	adc	r25, r25
    2276:	2a 95       	dec	r18
    2278:	e2 f7       	brpl	.-8      	; 0x2272 <GLCD_DisplayBinaryNumber+0x2c>
    227a:	9c 01       	movw	r18, r24
    227c:	44 27       	eor	r20, r20
    227e:	37 fd       	sbrc	r19, 7
    2280:	40 95       	com	r20
    2282:	54 2f       	mov	r21, r20
    2284:	8a 81       	ldd	r24, Y+2	; 0x02
    2286:	9b 81       	ldd	r25, Y+3	; 0x03
    2288:	ac 81       	ldd	r26, Y+4	; 0x04
    228a:	bd 81       	ldd	r27, Y+5	; 0x05
    228c:	82 23       	and	r24, r18
    228e:	93 23       	and	r25, r19
    2290:	a4 23       	and	r26, r20
    2292:	b5 23       	and	r27, r21
    2294:	21 e0       	ldi	r18, 0x01	; 1
    2296:	00 97       	sbiw	r24, 0x00	; 0
    2298:	a1 05       	cpc	r26, r1
    229a:	b1 05       	cpc	r27, r1
    229c:	09 f4       	brne	.+2      	; 0x22a0 <GLCD_DisplayBinaryNumber+0x5a>
    229e:	20 e0       	ldi	r18, 0x00	; 0
    22a0:	29 83       	std	Y+1, r18	; 0x01
    22a2:	89 81       	ldd	r24, Y+1	; 0x01
    22a4:	80 5d       	subi	r24, 0xD0	; 208
    22a6:	0e 94 5a 0f 	call	0x1eb4	; 0x1eb4 <GLCD_DisplayChar>
    22aa:	8e 81       	ldd	r24, Y+6	; 0x06
    22ac:	81 50       	subi	r24, 0x01	; 1
    22ae:	8e 83       	std	Y+6, r24	; 0x06
    22b0:	8e 81       	ldd	r24, Y+6	; 0x06
    22b2:	88 23       	and	r24, r24
    22b4:	a9 f6       	brne	.-86     	; 0x2260 <GLCD_DisplayBinaryNumber+0x1a>
    22b6:	26 96       	adiw	r28, 0x06	; 6
    22b8:	0f b6       	in	r0, 0x3f	; 63
    22ba:	f8 94       	cli
    22bc:	de bf       	out	0x3e, r29	; 62
    22be:	0f be       	out	0x3f, r0	; 63
    22c0:	cd bf       	out	0x3d, r28	; 61
    22c2:	cf 91       	pop	r28
    22c4:	df 91       	pop	r29
    22c6:	08 95       	ret

000022c8 <GLCD_DisplayFloatNumber>:
    22c8:	1f 93       	push	r17
    22ca:	df 93       	push	r29
    22cc:	cf 93       	push	r28
    22ce:	cd b7       	in	r28, 0x3d	; 61
    22d0:	de b7       	in	r29, 0x3e	; 62
    22d2:	28 97       	sbiw	r28, 0x08	; 8
    22d4:	0f b6       	in	r0, 0x3f	; 63
    22d6:	f8 94       	cli
    22d8:	de bf       	out	0x3e, r29	; 62
    22da:	0f be       	out	0x3f, r0	; 63
    22dc:	cd bf       	out	0x3d, r28	; 61
    22de:	6d 83       	std	Y+5, r22	; 0x05
    22e0:	7e 83       	std	Y+6, r23	; 0x06
    22e2:	8f 83       	std	Y+7, r24	; 0x07
    22e4:	98 87       	std	Y+8, r25	; 0x08
    22e6:	11 e0       	ldi	r17, 0x01	; 1
    22e8:	6d 81       	ldd	r22, Y+5	; 0x05
    22ea:	7e 81       	ldd	r23, Y+6	; 0x06
    22ec:	8f 81       	ldd	r24, Y+7	; 0x07
    22ee:	98 85       	ldd	r25, Y+8	; 0x08
    22f0:	20 e0       	ldi	r18, 0x00	; 0
    22f2:	30 e0       	ldi	r19, 0x00	; 0
    22f4:	a9 01       	movw	r20, r18
    22f6:	0e 94 ea 2c 	call	0x59d4	; 0x59d4 <__cmpsf2>
    22fa:	88 23       	and	r24, r24
    22fc:	0c f0       	brlt	.+2      	; 0x2300 <GLCD_DisplayFloatNumber+0x38>
    22fe:	10 e0       	ldi	r17, 0x00	; 0
    2300:	11 23       	and	r17, r17
    2302:	61 f0       	breq	.+24     	; 0x231c <GLCD_DisplayFloatNumber+0x54>
    2304:	8d e2       	ldi	r24, 0x2D	; 45
    2306:	0e 94 5a 0f 	call	0x1eb4	; 0x1eb4 <GLCD_DisplayChar>
    230a:	8d 81       	ldd	r24, Y+5	; 0x05
    230c:	9e 81       	ldd	r25, Y+6	; 0x06
    230e:	af 81       	ldd	r26, Y+7	; 0x07
    2310:	b8 85       	ldd	r27, Y+8	; 0x08
    2312:	bf 77       	andi	r27, 0x7F	; 127
    2314:	8d 83       	std	Y+5, r24	; 0x05
    2316:	9e 83       	std	Y+6, r25	; 0x06
    2318:	af 83       	std	Y+7, r26	; 0x07
    231a:	b8 87       	std	Y+8, r27	; 0x08
    231c:	6d 81       	ldd	r22, Y+5	; 0x05
    231e:	7e 81       	ldd	r23, Y+6	; 0x06
    2320:	8f 81       	ldd	r24, Y+7	; 0x07
    2322:	98 85       	ldd	r25, Y+8	; 0x08
    2324:	0e 94 56 2d 	call	0x5aac	; 0x5aac <__fixunssfsi>
    2328:	dc 01       	movw	r26, r24
    232a:	cb 01       	movw	r24, r22
    232c:	89 83       	std	Y+1, r24	; 0x01
    232e:	9a 83       	std	Y+2, r25	; 0x02
    2330:	ab 83       	std	Y+3, r26	; 0x03
    2332:	bc 83       	std	Y+4, r27	; 0x04
    2334:	89 81       	ldd	r24, Y+1	; 0x01
    2336:	9a 81       	ldd	r25, Y+2	; 0x02
    2338:	ab 81       	ldd	r26, Y+3	; 0x03
    233a:	bc 81       	ldd	r27, Y+4	; 0x04
    233c:	bc 01       	movw	r22, r24
    233e:	cd 01       	movw	r24, r26
    2340:	4f ef       	ldi	r20, 0xFF	; 255
    2342:	0e 94 dc 0f 	call	0x1fb8	; 0x1fb8 <GLCD_DisplayDecimalNumber>
    2346:	8e e2       	ldi	r24, 0x2E	; 46
    2348:	0e 94 5a 0f 	call	0x1eb4	; 0x1eb4 <GLCD_DisplayChar>
    234c:	69 81       	ldd	r22, Y+1	; 0x01
    234e:	7a 81       	ldd	r23, Y+2	; 0x02
    2350:	8b 81       	ldd	r24, Y+3	; 0x03
    2352:	9c 81       	ldd	r25, Y+4	; 0x04
    2354:	0e 94 82 2d 	call	0x5b04	; 0x5b04 <__floatunsisf>
    2358:	9b 01       	movw	r18, r22
    235a:	ac 01       	movw	r20, r24
    235c:	6d 81       	ldd	r22, Y+5	; 0x05
    235e:	7e 81       	ldd	r23, Y+6	; 0x06
    2360:	8f 81       	ldd	r24, Y+7	; 0x07
    2362:	98 85       	ldd	r25, Y+8	; 0x08
    2364:	0e 94 85 2c 	call	0x590a	; 0x590a <__subsf3>
    2368:	dc 01       	movw	r26, r24
    236a:	cb 01       	movw	r24, r22
    236c:	8d 83       	std	Y+5, r24	; 0x05
    236e:	9e 83       	std	Y+6, r25	; 0x06
    2370:	af 83       	std	Y+7, r26	; 0x07
    2372:	b8 87       	std	Y+8, r27	; 0x08
    2374:	6d 81       	ldd	r22, Y+5	; 0x05
    2376:	7e 81       	ldd	r23, Y+6	; 0x06
    2378:	8f 81       	ldd	r24, Y+7	; 0x07
    237a:	98 85       	ldd	r25, Y+8	; 0x08
    237c:	20 e0       	ldi	r18, 0x00	; 0
    237e:	34 e2       	ldi	r19, 0x24	; 36
    2380:	44 e7       	ldi	r20, 0x74	; 116
    2382:	59 e4       	ldi	r21, 0x49	; 73
    2384:	0e 94 38 2e 	call	0x5c70	; 0x5c70 <__mulsf3>
    2388:	dc 01       	movw	r26, r24
    238a:	cb 01       	movw	r24, r22
    238c:	bc 01       	movw	r22, r24
    238e:	cd 01       	movw	r24, r26
    2390:	0e 94 56 2d 	call	0x5aac	; 0x5aac <__fixunssfsi>
    2394:	dc 01       	movw	r26, r24
    2396:	cb 01       	movw	r24, r22
    2398:	89 83       	std	Y+1, r24	; 0x01
    239a:	9a 83       	std	Y+2, r25	; 0x02
    239c:	ab 83       	std	Y+3, r26	; 0x03
    239e:	bc 83       	std	Y+4, r27	; 0x04
    23a0:	89 81       	ldd	r24, Y+1	; 0x01
    23a2:	9a 81       	ldd	r25, Y+2	; 0x02
    23a4:	ab 81       	ldd	r26, Y+3	; 0x03
    23a6:	bc 81       	ldd	r27, Y+4	; 0x04
    23a8:	bc 01       	movw	r22, r24
    23aa:	cd 01       	movw	r24, r26
    23ac:	4f ef       	ldi	r20, 0xFF	; 255
    23ae:	0e 94 dc 0f 	call	0x1fb8	; 0x1fb8 <GLCD_DisplayDecimalNumber>
    23b2:	28 96       	adiw	r28, 0x08	; 8
    23b4:	0f b6       	in	r0, 0x3f	; 63
    23b6:	f8 94       	cli
    23b8:	de bf       	out	0x3e, r29	; 62
    23ba:	0f be       	out	0x3f, r0	; 63
    23bc:	cd bf       	out	0x3d, r28	; 61
    23be:	cf 91       	pop	r28
    23c0:	df 91       	pop	r29
    23c2:	1f 91       	pop	r17
    23c4:	08 95       	ret

000023c6 <GLCD_Printf>:
    23c6:	df 93       	push	r29
    23c8:	cf 93       	push	r28
    23ca:	cd b7       	in	r28, 0x3d	; 61
    23cc:	de b7       	in	r29, 0x3e	; 62
    23ce:	68 97       	sbiw	r28, 0x18	; 24
    23d0:	0f b6       	in	r0, 0x3f	; 63
    23d2:	f8 94       	cli
    23d4:	de bf       	out	0x3e, r29	; 62
    23d6:	0f be       	out	0x3f, r0	; 63
    23d8:	cd bf       	out	0x3d, r28	; 61
    23da:	ce 01       	movw	r24, r28
    23dc:	4f 96       	adiw	r24, 0x1f	; 31
    23de:	98 8f       	std	Y+24, r25	; 0x18
    23e0:	8f 8b       	std	Y+23, r24	; 0x17
    23e2:	8d 8d       	ldd	r24, Y+29	; 0x1d
    23e4:	9e 8d       	ldd	r25, Y+30	; 0x1e
    23e6:	9a 83       	std	Y+2, r25	; 0x02
    23e8:	89 83       	std	Y+1, r24	; 0x01
    23ea:	be c1       	rjmp	.+892    	; 0x2768 <GLCD_Printf+0x3a2>
    23ec:	89 81       	ldd	r24, Y+1	; 0x01
    23ee:	9a 81       	ldd	r25, Y+2	; 0x02
    23f0:	fc 01       	movw	r30, r24
    23f2:	80 81       	ld	r24, Z
    23f4:	89 87       	std	Y+9, r24	; 0x09
    23f6:	89 85       	ldd	r24, Y+9	; 0x09
    23f8:	85 32       	cpi	r24, 0x25	; 37
    23fa:	09 f0       	breq	.+2      	; 0x23fe <GLCD_Printf+0x38>
    23fc:	ad c1       	rjmp	.+858    	; 0x2758 <GLCD_Printf+0x392>
    23fe:	89 81       	ldd	r24, Y+1	; 0x01
    2400:	9a 81       	ldd	r25, Y+2	; 0x02
    2402:	01 96       	adiw	r24, 0x01	; 1
    2404:	9a 83       	std	Y+2, r25	; 0x02
    2406:	89 83       	std	Y+1, r24	; 0x01
    2408:	89 81       	ldd	r24, Y+1	; 0x01
    240a:	9a 81       	ldd	r25, Y+2	; 0x02
    240c:	fc 01       	movw	r30, r24
    240e:	80 81       	ld	r24, Z
    2410:	89 87       	std	Y+9, r24	; 0x09
    2412:	89 85       	ldd	r24, Y+9	; 0x09
    2414:	80 33       	cpi	r24, 0x30	; 48
    2416:	00 f1       	brcs	.+64     	; 0x2458 <GLCD_Printf+0x92>
    2418:	89 85       	ldd	r24, Y+9	; 0x09
    241a:	8a 33       	cpi	r24, 0x3A	; 58
    241c:	e8 f4       	brcc	.+58     	; 0x2458 <GLCD_Printf+0x92>
    241e:	1a 86       	std	Y+10, r1	; 0x0a
    2420:	14 c0       	rjmp	.+40     	; 0x244a <GLCD_Printf+0x84>
    2422:	8a 85       	ldd	r24, Y+10	; 0x0a
    2424:	88 0f       	add	r24, r24
    2426:	98 2f       	mov	r25, r24
    2428:	99 0f       	add	r25, r25
    242a:	99 0f       	add	r25, r25
    242c:	98 0f       	add	r25, r24
    242e:	89 85       	ldd	r24, Y+9	; 0x09
    2430:	89 0f       	add	r24, r25
    2432:	80 53       	subi	r24, 0x30	; 48
    2434:	8a 87       	std	Y+10, r24	; 0x0a
    2436:	89 81       	ldd	r24, Y+1	; 0x01
    2438:	9a 81       	ldd	r25, Y+2	; 0x02
    243a:	01 96       	adiw	r24, 0x01	; 1
    243c:	9a 83       	std	Y+2, r25	; 0x02
    243e:	89 83       	std	Y+1, r24	; 0x01
    2440:	89 81       	ldd	r24, Y+1	; 0x01
    2442:	9a 81       	ldd	r25, Y+2	; 0x02
    2444:	fc 01       	movw	r30, r24
    2446:	80 81       	ld	r24, Z
    2448:	89 87       	std	Y+9, r24	; 0x09
    244a:	89 85       	ldd	r24, Y+9	; 0x09
    244c:	80 33       	cpi	r24, 0x30	; 48
    244e:	38 f0       	brcs	.+14     	; 0x245e <GLCD_Printf+0x98>
    2450:	89 85       	ldd	r24, Y+9	; 0x09
    2452:	8a 33       	cpi	r24, 0x3A	; 58
    2454:	30 f3       	brcs	.-52     	; 0x2422 <GLCD_Printf+0x5c>
    2456:	04 c0       	rjmp	.+8      	; 0x2460 <GLCD_Printf+0x9a>
    2458:	8f ef       	ldi	r24, 0xFF	; 255
    245a:	8a 87       	std	Y+10, r24	; 0x0a
    245c:	01 c0       	rjmp	.+2      	; 0x2460 <GLCD_Printf+0x9a>
    245e:	00 00       	nop
    2460:	89 85       	ldd	r24, Y+9	; 0x09
    2462:	88 2f       	mov	r24, r24
    2464:	90 e0       	ldi	r25, 0x00	; 0
    2466:	88 35       	cpi	r24, 0x58	; 88
    2468:	91 05       	cpc	r25, r1
    246a:	09 f4       	brne	.+2      	; 0x246e <GLCD_Printf+0xa8>
    246c:	f1 c0       	rjmp	.+482    	; 0x2650 <GLCD_Printf+0x28a>
    246e:	89 35       	cpi	r24, 0x59	; 89
    2470:	91 05       	cpc	r25, r1
    2472:	04 f5       	brge	.+64     	; 0x24b4 <GLCD_Printf+0xee>
    2474:	84 34       	cpi	r24, 0x44	; 68
    2476:	91 05       	cpc	r25, r1
    2478:	09 f4       	brne	.+2      	; 0x247c <GLCD_Printf+0xb6>
    247a:	70 c0       	rjmp	.+224    	; 0x255c <GLCD_Printf+0x196>
    247c:	85 34       	cpi	r24, 0x45	; 69
    247e:	91 05       	cpc	r25, r1
    2480:	64 f4       	brge	.+24     	; 0x249a <GLCD_Printf+0xd4>
    2482:	82 34       	cpi	r24, 0x42	; 66
    2484:	91 05       	cpc	r25, r1
    2486:	09 f4       	brne	.+2      	; 0x248a <GLCD_Printf+0xc4>
    2488:	19 c1       	rjmp	.+562    	; 0x26bc <GLCD_Printf+0x2f6>
    248a:	83 34       	cpi	r24, 0x43	; 67
    248c:	91 05       	cpc	r25, r1
    248e:	8c f5       	brge	.+98     	; 0x24f2 <GLCD_Printf+0x12c>
    2490:	85 32       	cpi	r24, 0x25	; 37
    2492:	91 05       	cpc	r25, r1
    2494:	09 f4       	brne	.+2      	; 0x2498 <GLCD_Printf+0xd2>
    2496:	5c c1       	rjmp	.+696    	; 0x2750 <GLCD_Printf+0x38a>
    2498:	62 c1       	rjmp	.+708    	; 0x275e <GLCD_Printf+0x398>
    249a:	83 35       	cpi	r24, 0x53	; 83
    249c:	91 05       	cpc	r25, r1
    249e:	09 f4       	brne	.+2      	; 0x24a2 <GLCD_Printf+0xdc>
    24a0:	45 c1       	rjmp	.+650    	; 0x272c <GLCD_Printf+0x366>
    24a2:	85 35       	cpi	r24, 0x55	; 85
    24a4:	91 05       	cpc	r25, r1
    24a6:	09 f4       	brne	.+2      	; 0x24aa <GLCD_Printf+0xe4>
    24a8:	a2 c0       	rjmp	.+324    	; 0x25ee <GLCD_Printf+0x228>
    24aa:	86 34       	cpi	r24, 0x46	; 70
    24ac:	91 05       	cpc	r25, r1
    24ae:	09 f4       	brne	.+2      	; 0x24b2 <GLCD_Printf+0xec>
    24b0:	24 c1       	rjmp	.+584    	; 0x26fa <GLCD_Printf+0x334>
    24b2:	55 c1       	rjmp	.+682    	; 0x275e <GLCD_Printf+0x398>
    24b4:	86 36       	cpi	r24, 0x66	; 102
    24b6:	91 05       	cpc	r25, r1
    24b8:	09 f4       	brne	.+2      	; 0x24bc <GLCD_Printf+0xf6>
    24ba:	1f c1       	rjmp	.+574    	; 0x26fa <GLCD_Printf+0x334>
    24bc:	87 36       	cpi	r24, 0x67	; 103
    24be:	91 05       	cpc	r25, r1
    24c0:	5c f4       	brge	.+22     	; 0x24d8 <GLCD_Printf+0x112>
    24c2:	83 36       	cpi	r24, 0x63	; 99
    24c4:	91 05       	cpc	r25, r1
    24c6:	a9 f0       	breq	.+42     	; 0x24f2 <GLCD_Printf+0x12c>
    24c8:	84 36       	cpi	r24, 0x64	; 100
    24ca:	91 05       	cpc	r25, r1
    24cc:	09 f1       	breq	.+66     	; 0x2510 <GLCD_Printf+0x14a>
    24ce:	82 36       	cpi	r24, 0x62	; 98
    24d0:	91 05       	cpc	r25, r1
    24d2:	09 f4       	brne	.+2      	; 0x24d6 <GLCD_Printf+0x110>
    24d4:	d7 c0       	rjmp	.+430    	; 0x2684 <GLCD_Printf+0x2be>
    24d6:	43 c1       	rjmp	.+646    	; 0x275e <GLCD_Printf+0x398>
    24d8:	85 37       	cpi	r24, 0x75	; 117
    24da:	91 05       	cpc	r25, r1
    24dc:	09 f4       	brne	.+2      	; 0x24e0 <GLCD_Printf+0x11a>
    24de:	70 c0       	rjmp	.+224    	; 0x25c0 <GLCD_Printf+0x1fa>
    24e0:	88 37       	cpi	r24, 0x78	; 120
    24e2:	91 05       	cpc	r25, r1
    24e4:	09 f4       	brne	.+2      	; 0x24e8 <GLCD_Printf+0x122>
    24e6:	9d c0       	rjmp	.+314    	; 0x2622 <GLCD_Printf+0x25c>
    24e8:	83 37       	cpi	r24, 0x73	; 115
    24ea:	91 05       	cpc	r25, r1
    24ec:	09 f4       	brne	.+2      	; 0x24f0 <GLCD_Printf+0x12a>
    24ee:	1e c1       	rjmp	.+572    	; 0x272c <GLCD_Printf+0x366>
    24f0:	36 c1       	rjmp	.+620    	; 0x275e <GLCD_Printf+0x398>
    24f2:	8f 89       	ldd	r24, Y+23	; 0x17
    24f4:	98 8d       	ldd	r25, Y+24	; 0x18
    24f6:	9c 01       	movw	r18, r24
    24f8:	2e 5f       	subi	r18, 0xFE	; 254
    24fa:	3f 4f       	sbci	r19, 0xFF	; 255
    24fc:	38 8f       	std	Y+24, r19	; 0x18
    24fe:	2f 8b       	std	Y+23, r18	; 0x17
    2500:	fc 01       	movw	r30, r24
    2502:	80 81       	ld	r24, Z
    2504:	91 81       	ldd	r25, Z+1	; 0x01
    2506:	89 87       	std	Y+9, r24	; 0x09
    2508:	89 85       	ldd	r24, Y+9	; 0x09
    250a:	0e 94 5a 0f 	call	0x1eb4	; 0x1eb4 <GLCD_DisplayChar>
    250e:	27 c1       	rjmp	.+590    	; 0x275e <GLCD_Printf+0x398>
    2510:	8f 89       	ldd	r24, Y+23	; 0x17
    2512:	98 8d       	ldd	r25, Y+24	; 0x18
    2514:	9c 01       	movw	r18, r24
    2516:	2e 5f       	subi	r18, 0xFE	; 254
    2518:	3f 4f       	sbci	r19, 0xFF	; 255
    251a:	38 8f       	std	Y+24, r19	; 0x18
    251c:	2f 8b       	std	Y+23, r18	; 0x17
    251e:	fc 01       	movw	r30, r24
    2520:	80 81       	ld	r24, Z
    2522:	91 81       	ldd	r25, Z+1	; 0x01
    2524:	9c 83       	std	Y+4, r25	; 0x04
    2526:	8b 83       	std	Y+3, r24	; 0x03
    2528:	8b 81       	ldd	r24, Y+3	; 0x03
    252a:	9c 81       	ldd	r25, Y+4	; 0x04
    252c:	99 23       	and	r25, r25
    252e:	54 f4       	brge	.+20     	; 0x2544 <GLCD_Printf+0x17e>
    2530:	8b 81       	ldd	r24, Y+3	; 0x03
    2532:	9c 81       	ldd	r25, Y+4	; 0x04
    2534:	90 95       	com	r25
    2536:	81 95       	neg	r24
    2538:	9f 4f       	sbci	r25, 0xFF	; 255
    253a:	9c 83       	std	Y+4, r25	; 0x04
    253c:	8b 83       	std	Y+3, r24	; 0x03
    253e:	8d e2       	ldi	r24, 0x2D	; 45
    2540:	0e 94 5a 0f 	call	0x1eb4	; 0x1eb4 <GLCD_DisplayChar>
    2544:	8b 81       	ldd	r24, Y+3	; 0x03
    2546:	9c 81       	ldd	r25, Y+4	; 0x04
    2548:	aa 27       	eor	r26, r26
    254a:	97 fd       	sbrc	r25, 7
    254c:	a0 95       	com	r26
    254e:	ba 2f       	mov	r27, r26
    2550:	bc 01       	movw	r22, r24
    2552:	cd 01       	movw	r24, r26
    2554:	4a 85       	ldd	r20, Y+10	; 0x0a
    2556:	0e 94 dc 0f 	call	0x1fb8	; 0x1fb8 <GLCD_DisplayDecimalNumber>
    255a:	01 c1       	rjmp	.+514    	; 0x275e <GLCD_Printf+0x398>
    255c:	8f 89       	ldd	r24, Y+23	; 0x17
    255e:	98 8d       	ldd	r25, Y+24	; 0x18
    2560:	9c 01       	movw	r18, r24
    2562:	2c 5f       	subi	r18, 0xFC	; 252
    2564:	3f 4f       	sbci	r19, 0xFF	; 255
    2566:	38 8f       	std	Y+24, r19	; 0x18
    2568:	2f 8b       	std	Y+23, r18	; 0x17
    256a:	fc 01       	movw	r30, r24
    256c:	80 81       	ld	r24, Z
    256e:	91 81       	ldd	r25, Z+1	; 0x01
    2570:	a2 81       	ldd	r26, Z+2	; 0x02
    2572:	b3 81       	ldd	r27, Z+3	; 0x03
    2574:	8d 83       	std	Y+5, r24	; 0x05
    2576:	9e 83       	std	Y+6, r25	; 0x06
    2578:	af 83       	std	Y+7, r26	; 0x07
    257a:	b8 87       	std	Y+8, r27	; 0x08
    257c:	8d 81       	ldd	r24, Y+5	; 0x05
    257e:	9e 81       	ldd	r25, Y+6	; 0x06
    2580:	af 81       	ldd	r26, Y+7	; 0x07
    2582:	b8 85       	ldd	r27, Y+8	; 0x08
    2584:	bb 23       	and	r27, r27
    2586:	94 f4       	brge	.+36     	; 0x25ac <GLCD_Printf+0x1e6>
    2588:	8d 81       	ldd	r24, Y+5	; 0x05
    258a:	9e 81       	ldd	r25, Y+6	; 0x06
    258c:	af 81       	ldd	r26, Y+7	; 0x07
    258e:	b8 85       	ldd	r27, Y+8	; 0x08
    2590:	b0 95       	com	r27
    2592:	a0 95       	com	r26
    2594:	90 95       	com	r25
    2596:	81 95       	neg	r24
    2598:	9f 4f       	sbci	r25, 0xFF	; 255
    259a:	af 4f       	sbci	r26, 0xFF	; 255
    259c:	bf 4f       	sbci	r27, 0xFF	; 255
    259e:	8d 83       	std	Y+5, r24	; 0x05
    25a0:	9e 83       	std	Y+6, r25	; 0x06
    25a2:	af 83       	std	Y+7, r26	; 0x07
    25a4:	b8 87       	std	Y+8, r27	; 0x08
    25a6:	8d e2       	ldi	r24, 0x2D	; 45
    25a8:	0e 94 5a 0f 	call	0x1eb4	; 0x1eb4 <GLCD_DisplayChar>
    25ac:	8d 81       	ldd	r24, Y+5	; 0x05
    25ae:	9e 81       	ldd	r25, Y+6	; 0x06
    25b0:	af 81       	ldd	r26, Y+7	; 0x07
    25b2:	b8 85       	ldd	r27, Y+8	; 0x08
    25b4:	bc 01       	movw	r22, r24
    25b6:	cd 01       	movw	r24, r26
    25b8:	4a 85       	ldd	r20, Y+10	; 0x0a
    25ba:	0e 94 dc 0f 	call	0x1fb8	; 0x1fb8 <GLCD_DisplayDecimalNumber>
    25be:	cf c0       	rjmp	.+414    	; 0x275e <GLCD_Printf+0x398>
    25c0:	8f 89       	ldd	r24, Y+23	; 0x17
    25c2:	98 8d       	ldd	r25, Y+24	; 0x18
    25c4:	9c 01       	movw	r18, r24
    25c6:	2e 5f       	subi	r18, 0xFE	; 254
    25c8:	3f 4f       	sbci	r19, 0xFF	; 255
    25ca:	38 8f       	std	Y+24, r19	; 0x18
    25cc:	2f 8b       	std	Y+23, r18	; 0x17
    25ce:	fc 01       	movw	r30, r24
    25d0:	80 81       	ld	r24, Z
    25d2:	91 81       	ldd	r25, Z+1	; 0x01
    25d4:	9c 87       	std	Y+12, r25	; 0x0c
    25d6:	8b 87       	std	Y+11, r24	; 0x0b
    25d8:	8b 85       	ldd	r24, Y+11	; 0x0b
    25da:	9c 85       	ldd	r25, Y+12	; 0x0c
    25dc:	cc 01       	movw	r24, r24
    25de:	a0 e0       	ldi	r26, 0x00	; 0
    25e0:	b0 e0       	ldi	r27, 0x00	; 0
    25e2:	bc 01       	movw	r22, r24
    25e4:	cd 01       	movw	r24, r26
    25e6:	4a 85       	ldd	r20, Y+10	; 0x0a
    25e8:	0e 94 dc 0f 	call	0x1fb8	; 0x1fb8 <GLCD_DisplayDecimalNumber>
    25ec:	b8 c0       	rjmp	.+368    	; 0x275e <GLCD_Printf+0x398>
    25ee:	8f 89       	ldd	r24, Y+23	; 0x17
    25f0:	98 8d       	ldd	r25, Y+24	; 0x18
    25f2:	9c 01       	movw	r18, r24
    25f4:	2c 5f       	subi	r18, 0xFC	; 252
    25f6:	3f 4f       	sbci	r19, 0xFF	; 255
    25f8:	38 8f       	std	Y+24, r19	; 0x18
    25fa:	2f 8b       	std	Y+23, r18	; 0x17
    25fc:	fc 01       	movw	r30, r24
    25fe:	80 81       	ld	r24, Z
    2600:	91 81       	ldd	r25, Z+1	; 0x01
    2602:	a2 81       	ldd	r26, Z+2	; 0x02
    2604:	b3 81       	ldd	r27, Z+3	; 0x03
    2606:	8d 87       	std	Y+13, r24	; 0x0d
    2608:	9e 87       	std	Y+14, r25	; 0x0e
    260a:	af 87       	std	Y+15, r26	; 0x0f
    260c:	b8 8b       	std	Y+16, r27	; 0x10
    260e:	8d 85       	ldd	r24, Y+13	; 0x0d
    2610:	9e 85       	ldd	r25, Y+14	; 0x0e
    2612:	af 85       	ldd	r26, Y+15	; 0x0f
    2614:	b8 89       	ldd	r27, Y+16	; 0x10
    2616:	bc 01       	movw	r22, r24
    2618:	cd 01       	movw	r24, r26
    261a:	4a 85       	ldd	r20, Y+10	; 0x0a
    261c:	0e 94 dc 0f 	call	0x1fb8	; 0x1fb8 <GLCD_DisplayDecimalNumber>
    2620:	9e c0       	rjmp	.+316    	; 0x275e <GLCD_Printf+0x398>
    2622:	8f 89       	ldd	r24, Y+23	; 0x17
    2624:	98 8d       	ldd	r25, Y+24	; 0x18
    2626:	9c 01       	movw	r18, r24
    2628:	2e 5f       	subi	r18, 0xFE	; 254
    262a:	3f 4f       	sbci	r19, 0xFF	; 255
    262c:	38 8f       	std	Y+24, r19	; 0x18
    262e:	2f 8b       	std	Y+23, r18	; 0x17
    2630:	fc 01       	movw	r30, r24
    2632:	80 81       	ld	r24, Z
    2634:	91 81       	ldd	r25, Z+1	; 0x01
    2636:	9c 87       	std	Y+12, r25	; 0x0c
    2638:	8b 87       	std	Y+11, r24	; 0x0b
    263a:	8b 85       	ldd	r24, Y+11	; 0x0b
    263c:	9c 85       	ldd	r25, Y+12	; 0x0c
    263e:	cc 01       	movw	r24, r24
    2640:	a0 e0       	ldi	r26, 0x00	; 0
    2642:	b0 e0       	ldi	r27, 0x00	; 0
    2644:	bc 01       	movw	r22, r24
    2646:	cd 01       	movw	r24, r26
    2648:	4a 85       	ldd	r20, Y+10	; 0x0a
    264a:	0e 94 79 10 	call	0x20f2	; 0x20f2 <GLCD_DisplayHexNumber>
    264e:	87 c0       	rjmp	.+270    	; 0x275e <GLCD_Printf+0x398>
    2650:	8f 89       	ldd	r24, Y+23	; 0x17
    2652:	98 8d       	ldd	r25, Y+24	; 0x18
    2654:	9c 01       	movw	r18, r24
    2656:	2c 5f       	subi	r18, 0xFC	; 252
    2658:	3f 4f       	sbci	r19, 0xFF	; 255
    265a:	38 8f       	std	Y+24, r19	; 0x18
    265c:	2f 8b       	std	Y+23, r18	; 0x17
    265e:	fc 01       	movw	r30, r24
    2660:	80 81       	ld	r24, Z
    2662:	91 81       	ldd	r25, Z+1	; 0x01
    2664:	a2 81       	ldd	r26, Z+2	; 0x02
    2666:	b3 81       	ldd	r27, Z+3	; 0x03
    2668:	8d 87       	std	Y+13, r24	; 0x0d
    266a:	9e 87       	std	Y+14, r25	; 0x0e
    266c:	af 87       	std	Y+15, r26	; 0x0f
    266e:	b8 8b       	std	Y+16, r27	; 0x10
    2670:	8d 85       	ldd	r24, Y+13	; 0x0d
    2672:	9e 85       	ldd	r25, Y+14	; 0x0e
    2674:	af 85       	ldd	r26, Y+15	; 0x0f
    2676:	b8 89       	ldd	r27, Y+16	; 0x10
    2678:	bc 01       	movw	r22, r24
    267a:	cd 01       	movw	r24, r26
    267c:	4a 85       	ldd	r20, Y+10	; 0x0a
    267e:	0e 94 79 10 	call	0x20f2	; 0x20f2 <GLCD_DisplayHexNumber>
    2682:	6d c0       	rjmp	.+218    	; 0x275e <GLCD_Printf+0x398>
    2684:	8f 89       	ldd	r24, Y+23	; 0x17
    2686:	98 8d       	ldd	r25, Y+24	; 0x18
    2688:	9c 01       	movw	r18, r24
    268a:	2e 5f       	subi	r18, 0xFE	; 254
    268c:	3f 4f       	sbci	r19, 0xFF	; 255
    268e:	38 8f       	std	Y+24, r19	; 0x18
    2690:	2f 8b       	std	Y+23, r18	; 0x17
    2692:	fc 01       	movw	r30, r24
    2694:	80 81       	ld	r24, Z
    2696:	91 81       	ldd	r25, Z+1	; 0x01
    2698:	9c 87       	std	Y+12, r25	; 0x0c
    269a:	8b 87       	std	Y+11, r24	; 0x0b
    269c:	8a 85       	ldd	r24, Y+10	; 0x0a
    269e:	8f 3f       	cpi	r24, 0xFF	; 255
    26a0:	11 f4       	brne	.+4      	; 0x26a6 <GLCD_Printf+0x2e0>
    26a2:	80 e1       	ldi	r24, 0x10	; 16
    26a4:	8a 87       	std	Y+10, r24	; 0x0a
    26a6:	8b 85       	ldd	r24, Y+11	; 0x0b
    26a8:	9c 85       	ldd	r25, Y+12	; 0x0c
    26aa:	cc 01       	movw	r24, r24
    26ac:	a0 e0       	ldi	r26, 0x00	; 0
    26ae:	b0 e0       	ldi	r27, 0x00	; 0
    26b0:	bc 01       	movw	r22, r24
    26b2:	cd 01       	movw	r24, r26
    26b4:	4a 85       	ldd	r20, Y+10	; 0x0a
    26b6:	0e 94 23 11 	call	0x2246	; 0x2246 <GLCD_DisplayBinaryNumber>
    26ba:	51 c0       	rjmp	.+162    	; 0x275e <GLCD_Printf+0x398>
    26bc:	8f 89       	ldd	r24, Y+23	; 0x17
    26be:	98 8d       	ldd	r25, Y+24	; 0x18
    26c0:	9c 01       	movw	r18, r24
    26c2:	2c 5f       	subi	r18, 0xFC	; 252
    26c4:	3f 4f       	sbci	r19, 0xFF	; 255
    26c6:	38 8f       	std	Y+24, r19	; 0x18
    26c8:	2f 8b       	std	Y+23, r18	; 0x17
    26ca:	fc 01       	movw	r30, r24
    26cc:	80 81       	ld	r24, Z
    26ce:	91 81       	ldd	r25, Z+1	; 0x01
    26d0:	a2 81       	ldd	r26, Z+2	; 0x02
    26d2:	b3 81       	ldd	r27, Z+3	; 0x03
    26d4:	8d 87       	std	Y+13, r24	; 0x0d
    26d6:	9e 87       	std	Y+14, r25	; 0x0e
    26d8:	af 87       	std	Y+15, r26	; 0x0f
    26da:	b8 8b       	std	Y+16, r27	; 0x10
    26dc:	8a 85       	ldd	r24, Y+10	; 0x0a
    26de:	8f 3f       	cpi	r24, 0xFF	; 255
    26e0:	11 f4       	brne	.+4      	; 0x26e6 <GLCD_Printf+0x320>
    26e2:	80 e1       	ldi	r24, 0x10	; 16
    26e4:	8a 87       	std	Y+10, r24	; 0x0a
    26e6:	8d 85       	ldd	r24, Y+13	; 0x0d
    26e8:	9e 85       	ldd	r25, Y+14	; 0x0e
    26ea:	af 85       	ldd	r26, Y+15	; 0x0f
    26ec:	b8 89       	ldd	r27, Y+16	; 0x10
    26ee:	bc 01       	movw	r22, r24
    26f0:	cd 01       	movw	r24, r26
    26f2:	4a 85       	ldd	r20, Y+10	; 0x0a
    26f4:	0e 94 23 11 	call	0x2246	; 0x2246 <GLCD_DisplayBinaryNumber>
    26f8:	32 c0       	rjmp	.+100    	; 0x275e <GLCD_Printf+0x398>
    26fa:	8f 89       	ldd	r24, Y+23	; 0x17
    26fc:	98 8d       	ldd	r25, Y+24	; 0x18
    26fe:	9c 01       	movw	r18, r24
    2700:	2c 5f       	subi	r18, 0xFC	; 252
    2702:	3f 4f       	sbci	r19, 0xFF	; 255
    2704:	38 8f       	std	Y+24, r19	; 0x18
    2706:	2f 8b       	std	Y+23, r18	; 0x17
    2708:	fc 01       	movw	r30, r24
    270a:	80 81       	ld	r24, Z
    270c:	91 81       	ldd	r25, Z+1	; 0x01
    270e:	a2 81       	ldd	r26, Z+2	; 0x02
    2710:	b3 81       	ldd	r27, Z+3	; 0x03
    2712:	89 8b       	std	Y+17, r24	; 0x11
    2714:	9a 8b       	std	Y+18, r25	; 0x12
    2716:	ab 8b       	std	Y+19, r26	; 0x13
    2718:	bc 8b       	std	Y+20, r27	; 0x14
    271a:	89 89       	ldd	r24, Y+17	; 0x11
    271c:	9a 89       	ldd	r25, Y+18	; 0x12
    271e:	ab 89       	ldd	r26, Y+19	; 0x13
    2720:	bc 89       	ldd	r27, Y+20	; 0x14
    2722:	bc 01       	movw	r22, r24
    2724:	cd 01       	movw	r24, r26
    2726:	0e 94 64 11 	call	0x22c8	; 0x22c8 <GLCD_DisplayFloatNumber>
    272a:	19 c0       	rjmp	.+50     	; 0x275e <GLCD_Printf+0x398>
    272c:	8f 89       	ldd	r24, Y+23	; 0x17
    272e:	98 8d       	ldd	r25, Y+24	; 0x18
    2730:	9c 01       	movw	r18, r24
    2732:	2e 5f       	subi	r18, 0xFE	; 254
    2734:	3f 4f       	sbci	r19, 0xFF	; 255
    2736:	38 8f       	std	Y+24, r19	; 0x18
    2738:	2f 8b       	std	Y+23, r18	; 0x17
    273a:	fc 01       	movw	r30, r24
    273c:	80 81       	ld	r24, Z
    273e:	91 81       	ldd	r25, Z+1	; 0x01
    2740:	9e 8b       	std	Y+22, r25	; 0x16
    2742:	8d 8b       	std	Y+21, r24	; 0x15
    2744:	8d 89       	ldd	r24, Y+21	; 0x15
    2746:	9e 89       	ldd	r25, Y+22	; 0x16
    2748:	0e 94 bd 0f 	call	0x1f7a	; 0x1f7a <GLCD_DisplayString>
    274c:	00 00       	nop
    274e:	07 c0       	rjmp	.+14     	; 0x275e <GLCD_Printf+0x398>
    2750:	85 e2       	ldi	r24, 0x25	; 37
    2752:	0e 94 5a 0f 	call	0x1eb4	; 0x1eb4 <GLCD_DisplayChar>
    2756:	03 c0       	rjmp	.+6      	; 0x275e <GLCD_Printf+0x398>
    2758:	89 85       	ldd	r24, Y+9	; 0x09
    275a:	0e 94 5a 0f 	call	0x1eb4	; 0x1eb4 <GLCD_DisplayChar>
    275e:	89 81       	ldd	r24, Y+1	; 0x01
    2760:	9a 81       	ldd	r25, Y+2	; 0x02
    2762:	01 96       	adiw	r24, 0x01	; 1
    2764:	9a 83       	std	Y+2, r25	; 0x02
    2766:	89 83       	std	Y+1, r24	; 0x01
    2768:	89 81       	ldd	r24, Y+1	; 0x01
    276a:	9a 81       	ldd	r25, Y+2	; 0x02
    276c:	fc 01       	movw	r30, r24
    276e:	80 81       	ld	r24, Z
    2770:	88 23       	and	r24, r24
    2772:	09 f0       	breq	.+2      	; 0x2776 <GLCD_Printf+0x3b0>
    2774:	3b ce       	rjmp	.-906    	; 0x23ec <GLCD_Printf+0x26>
    2776:	68 96       	adiw	r28, 0x18	; 24
    2778:	0f b6       	in	r0, 0x3f	; 63
    277a:	f8 94       	cli
    277c:	de bf       	out	0x3e, r29	; 62
    277e:	0f be       	out	0x3f, r0	; 63
    2780:	cd bf       	out	0x3d, r28	; 61
    2782:	cf 91       	pop	r28
    2784:	df 91       	pop	r29
    2786:	08 95       	ret

00002788 <GLCD_DisplayLogo>:
    2788:	df 93       	push	r29
    278a:	cf 93       	push	r28
    278c:	00 d0       	rcall	.+0      	; 0x278e <GLCD_DisplayLogo+0x6>
    278e:	cd b7       	in	r28, 0x3d	; 61
    2790:	de b7       	in	r29, 0x3e	; 62
    2792:	19 82       	std	Y+1, r1	; 0x01
    2794:	16 c0       	rjmp	.+44     	; 0x27c2 <GLCD_DisplayLogo+0x3a>
    2796:	89 81       	ldd	r24, Y+1	; 0x01
    2798:	0e 94 1d 0f 	call	0x1e3a	; 0x1e3a <GLCD_GoToLine>
    279c:	1a 82       	std	Y+2, r1	; 0x02
    279e:	0b c0       	rjmp	.+22     	; 0x27b6 <GLCD_DisplayLogo+0x2e>
    27a0:	8a 81       	ldd	r24, Y+2	; 0x02
    27a2:	80 34       	cpi	r24, 0x40	; 64
    27a4:	11 f4       	brne	.+4      	; 0x27aa <GLCD_DisplayLogo+0x22>
    27a6:	0e 94 fd 18 	call	0x31fa	; 0x31fa <glcd_SelectPage1>
    27aa:	80 e0       	ldi	r24, 0x00	; 0
    27ac:	0e 94 dd 15 	call	0x2bba	; 0x2bba <glcd_DataWrite>
    27b0:	8a 81       	ldd	r24, Y+2	; 0x02
    27b2:	8f 5f       	subi	r24, 0xFF	; 255
    27b4:	8a 83       	std	Y+2, r24	; 0x02
    27b6:	8a 81       	ldd	r24, Y+2	; 0x02
    27b8:	88 23       	and	r24, r24
    27ba:	94 f7       	brge	.-28     	; 0x27a0 <GLCD_DisplayLogo+0x18>
    27bc:	89 81       	ldd	r24, Y+1	; 0x01
    27be:	8f 5f       	subi	r24, 0xFF	; 255
    27c0:	89 83       	std	Y+1, r24	; 0x01
    27c2:	89 81       	ldd	r24, Y+1	; 0x01
    27c4:	88 30       	cpi	r24, 0x08	; 8
    27c6:	38 f3       	brcs	.-50     	; 0x2796 <GLCD_DisplayLogo+0xe>
    27c8:	80 e0       	ldi	r24, 0x00	; 0
    27ca:	0e 94 1d 0f 	call	0x1e3a	; 0x1e3a <GLCD_GoToLine>
    27ce:	0f 90       	pop	r0
    27d0:	0f 90       	pop	r0
    27d2:	cf 91       	pop	r28
    27d4:	df 91       	pop	r29
    27d6:	08 95       	ret

000027d8 <GLCD_DisplayVerticalGraph>:
    27d8:	df 93       	push	r29
    27da:	cf 93       	push	r28
    27dc:	cd b7       	in	r28, 0x3d	; 61
    27de:	de b7       	in	r29, 0x3e	; 62
    27e0:	29 97       	sbiw	r28, 0x09	; 9
    27e2:	0f b6       	in	r0, 0x3f	; 63
    27e4:	f8 94       	cli
    27e6:	de bf       	out	0x3e, r29	; 62
    27e8:	0f be       	out	0x3f, r0	; 63
    27ea:	cd bf       	out	0x3d, r28	; 61
    27ec:	88 87       	std	Y+8, r24	; 0x08
    27ee:	69 87       	std	Y+9, r22	; 0x09
    27f0:	88 85       	ldd	r24, Y+8	; 0x08
    27f2:	84 30       	cpi	r24, 0x04	; 4
    27f4:	08 f0       	brcs	.+2      	; 0x27f8 <GLCD_DisplayVerticalGraph+0x20>
    27f6:	6f c0       	rjmp	.+222    	; 0x28d6 <GLCD_DisplayVerticalGraph+0xfe>
    27f8:	89 85       	ldd	r24, Y+9	; 0x09
    27fa:	85 36       	cpi	r24, 0x65	; 101
    27fc:	08 f0       	brcs	.+2      	; 0x2800 <GLCD_DisplayVerticalGraph+0x28>
    27fe:	6b c0       	rjmp	.+214    	; 0x28d6 <GLCD_DisplayVerticalGraph+0xfe>
    2800:	88 85       	ldd	r24, Y+8	; 0x08
    2802:	82 95       	swap	r24
    2804:	88 0f       	add	r24, r24
    2806:	80 7e       	andi	r24, 0xE0	; 224
    2808:	8b 83       	std	Y+3, r24	; 0x03
    280a:	8b 81       	ldd	r24, Y+3	; 0x03
    280c:	80 34       	cpi	r24, 0x40	; 64
    280e:	10 f4       	brcc	.+4      	; 0x2814 <GLCD_DisplayVerticalGraph+0x3c>
    2810:	1d 82       	std	Y+5, r1	; 0x05
    2812:	05 c0       	rjmp	.+10     	; 0x281e <GLCD_DisplayVerticalGraph+0x46>
    2814:	81 e0       	ldi	r24, 0x01	; 1
    2816:	8d 83       	std	Y+5, r24	; 0x05
    2818:	8b 81       	ldd	r24, Y+3	; 0x03
    281a:	80 54       	subi	r24, 0x40	; 64
    281c:	8b 83       	std	Y+3, r24	; 0x03
    281e:	8b 81       	ldd	r24, Y+3	; 0x03
    2820:	98 2f       	mov	r25, r24
    2822:	98 5f       	subi	r25, 0xF8	; 248
    2824:	8d 81       	ldd	r24, Y+5	; 0x05
    2826:	60 e0       	ldi	r22, 0x00	; 0
    2828:	49 2f       	mov	r20, r25
    282a:	0e 94 99 0e 	call	0x1d32	; 0x1d32 <GLCD_SetCursor>
    282e:	89 85       	ldd	r24, Y+9	; 0x09
    2830:	88 2f       	mov	r24, r24
    2832:	90 e0       	ldi	r25, 0x00	; 0
    2834:	a0 e0       	ldi	r26, 0x00	; 0
    2836:	b0 e0       	ldi	r27, 0x00	; 0
    2838:	bc 01       	movw	r22, r24
    283a:	cd 01       	movw	r24, r26
    283c:	43 e0       	ldi	r20, 0x03	; 3
    283e:	0e 94 dc 0f 	call	0x1fb8	; 0x1fb8 <GLCD_DisplayDecimalNumber>
    2842:	89 85       	ldd	r24, Y+9	; 0x09
    2844:	86 95       	lsr	r24
    2846:	89 87       	std	Y+9, r24	; 0x09
    2848:	89 85       	ldd	r24, Y+9	; 0x09
    284a:	86 95       	lsr	r24
    284c:	86 95       	lsr	r24
    284e:	86 95       	lsr	r24
    2850:	8e 83       	std	Y+6, r24	; 0x06
    2852:	97 e0       	ldi	r25, 0x07	; 7
    2854:	8e 81       	ldd	r24, Y+6	; 0x06
    2856:	29 2f       	mov	r18, r25
    2858:	28 1b       	sub	r18, r24
    285a:	82 2f       	mov	r24, r18
    285c:	8f 83       	std	Y+7, r24	; 0x07
    285e:	81 e0       	ldi	r24, 0x01	; 1
    2860:	89 83       	std	Y+1, r24	; 0x01
    2862:	36 c0       	rjmp	.+108    	; 0x28d0 <GLCD_DisplayVerticalGraph+0xf8>
    2864:	8b 81       	ldd	r24, Y+3	; 0x03
    2866:	98 2f       	mov	r25, r24
    2868:	94 5f       	subi	r25, 0xF4	; 244
    286a:	8d 81       	ldd	r24, Y+5	; 0x05
    286c:	69 81       	ldd	r22, Y+1	; 0x01
    286e:	49 2f       	mov	r20, r25
    2870:	0e 94 99 0e 	call	0x1d32	; 0x1d32 <GLCD_SetCursor>
    2874:	99 81       	ldd	r25, Y+1	; 0x01
    2876:	8f 81       	ldd	r24, Y+7	; 0x07
    2878:	98 17       	cp	r25, r24
    287a:	10 f4       	brcc	.+4      	; 0x2880 <GLCD_DisplayVerticalGraph+0xa8>
    287c:	1c 82       	std	Y+4, r1	; 0x04
    287e:	1a c0       	rjmp	.+52     	; 0x28b4 <GLCD_DisplayVerticalGraph+0xdc>
    2880:	99 81       	ldd	r25, Y+1	; 0x01
    2882:	8f 81       	ldd	r24, Y+7	; 0x07
    2884:	98 17       	cp	r25, r24
    2886:	a1 f4       	brne	.+40     	; 0x28b0 <GLCD_DisplayVerticalGraph+0xd8>
    2888:	89 85       	ldd	r24, Y+9	; 0x09
    288a:	87 70       	andi	r24, 0x07	; 7
    288c:	8c 83       	std	Y+4, r24	; 0x04
    288e:	8c 81       	ldd	r24, Y+4	; 0x04
    2890:	88 2f       	mov	r24, r24
    2892:	90 e0       	ldi	r25, 0x00	; 0
    2894:	28 e0       	ldi	r18, 0x08	; 8
    2896:	30 e0       	ldi	r19, 0x00	; 0
    2898:	28 1b       	sub	r18, r24
    289a:	39 0b       	sbc	r19, r25
    289c:	8f ef       	ldi	r24, 0xFF	; 255
    289e:	90 e0       	ldi	r25, 0x00	; 0
    28a0:	02 2e       	mov	r0, r18
    28a2:	02 c0       	rjmp	.+4      	; 0x28a8 <GLCD_DisplayVerticalGraph+0xd0>
    28a4:	88 0f       	add	r24, r24
    28a6:	99 1f       	adc	r25, r25
    28a8:	0a 94       	dec	r0
    28aa:	e2 f7       	brpl	.-8      	; 0x28a4 <GLCD_DisplayVerticalGraph+0xcc>
    28ac:	8c 83       	std	Y+4, r24	; 0x04
    28ae:	02 c0       	rjmp	.+4      	; 0x28b4 <GLCD_DisplayVerticalGraph+0xdc>
    28b0:	8f ef       	ldi	r24, 0xFF	; 255
    28b2:	8c 83       	std	Y+4, r24	; 0x04
    28b4:	1a 82       	std	Y+2, r1	; 0x02
    28b6:	06 c0       	rjmp	.+12     	; 0x28c4 <GLCD_DisplayVerticalGraph+0xec>
    28b8:	8c 81       	ldd	r24, Y+4	; 0x04
    28ba:	0e 94 dd 15 	call	0x2bba	; 0x2bba <glcd_DataWrite>
    28be:	8a 81       	ldd	r24, Y+2	; 0x02
    28c0:	8f 5f       	subi	r24, 0xFF	; 255
    28c2:	8a 83       	std	Y+2, r24	; 0x02
    28c4:	8a 81       	ldd	r24, Y+2	; 0x02
    28c6:	8c 30       	cpi	r24, 0x0C	; 12
    28c8:	b8 f3       	brcs	.-18     	; 0x28b8 <GLCD_DisplayVerticalGraph+0xe0>
    28ca:	89 81       	ldd	r24, Y+1	; 0x01
    28cc:	8f 5f       	subi	r24, 0xFF	; 255
    28ce:	89 83       	std	Y+1, r24	; 0x01
    28d0:	89 81       	ldd	r24, Y+1	; 0x01
    28d2:	88 30       	cpi	r24, 0x08	; 8
    28d4:	38 f2       	brcs	.-114    	; 0x2864 <GLCD_DisplayVerticalGraph+0x8c>
    28d6:	29 96       	adiw	r28, 0x09	; 9
    28d8:	0f b6       	in	r0, 0x3f	; 63
    28da:	f8 94       	cli
    28dc:	de bf       	out	0x3e, r29	; 62
    28de:	0f be       	out	0x3f, r0	; 63
    28e0:	cd bf       	out	0x3d, r28	; 61
    28e2:	cf 91       	pop	r28
    28e4:	df 91       	pop	r29
    28e6:	08 95       	ret

000028e8 <GLCD_DisplayHorizontalGraph>:
    28e8:	df 93       	push	r29
    28ea:	cf 93       	push	r28
    28ec:	00 d0       	rcall	.+0      	; 0x28ee <GLCD_DisplayHorizontalGraph+0x6>
    28ee:	00 d0       	rcall	.+0      	; 0x28f0 <GLCD_DisplayHorizontalGraph+0x8>
    28f0:	cd b7       	in	r28, 0x3d	; 61
    28f2:	de b7       	in	r29, 0x3e	; 62
    28f4:	8b 83       	std	Y+3, r24	; 0x03
    28f6:	6c 83       	std	Y+4, r22	; 0x04
    28f8:	8b 81       	ldd	r24, Y+3	; 0x03
    28fa:	88 0f       	add	r24, r24
    28fc:	8f 5f       	subi	r24, 0xFF	; 255
    28fe:	8a 83       	std	Y+2, r24	; 0x02
    2900:	8b 81       	ldd	r24, Y+3	; 0x03
    2902:	84 30       	cpi	r24, 0x04	; 4
    2904:	d8 f5       	brcc	.+118    	; 0x297c <GLCD_DisplayHorizontalGraph+0x94>
    2906:	8c 81       	ldd	r24, Y+4	; 0x04
    2908:	85 36       	cpi	r24, 0x65	; 101
    290a:	c0 f5       	brcc	.+112    	; 0x297c <GLCD_DisplayHorizontalGraph+0x94>
    290c:	80 e0       	ldi	r24, 0x00	; 0
    290e:	6a 81       	ldd	r22, Y+2	; 0x02
    2910:	40 e0       	ldi	r20, 0x00	; 0
    2912:	0e 94 99 0e 	call	0x1d32	; 0x1d32 <GLCD_SetCursor>
    2916:	19 82       	std	Y+1, r1	; 0x01
    2918:	0c c0       	rjmp	.+24     	; 0x2932 <GLCD_DisplayHorizontalGraph+0x4a>
    291a:	89 81       	ldd	r24, Y+1	; 0x01
    291c:	80 34       	cpi	r24, 0x40	; 64
    291e:	19 f4       	brne	.+6      	; 0x2926 <GLCD_DisplayHorizontalGraph+0x3e>
    2920:	81 e0       	ldi	r24, 0x01	; 1
    2922:	0e 94 f7 0e 	call	0x1dee	; 0x1dee <GLCD_GoToPage>
    2926:	8f ef       	ldi	r24, 0xFF	; 255
    2928:	0e 94 dd 15 	call	0x2bba	; 0x2bba <glcd_DataWrite>
    292c:	89 81       	ldd	r24, Y+1	; 0x01
    292e:	8f 5f       	subi	r24, 0xFF	; 255
    2930:	89 83       	std	Y+1, r24	; 0x01
    2932:	99 81       	ldd	r25, Y+1	; 0x01
    2934:	8c 81       	ldd	r24, Y+4	; 0x04
    2936:	98 17       	cp	r25, r24
    2938:	80 f3       	brcs	.-32     	; 0x291a <GLCD_DisplayHorizontalGraph+0x32>
    293a:	8c 81       	ldd	r24, Y+4	; 0x04
    293c:	89 83       	std	Y+1, r24	; 0x01
    293e:	0c c0       	rjmp	.+24     	; 0x2958 <GLCD_DisplayHorizontalGraph+0x70>
    2940:	89 81       	ldd	r24, Y+1	; 0x01
    2942:	80 34       	cpi	r24, 0x40	; 64
    2944:	19 f4       	brne	.+6      	; 0x294c <GLCD_DisplayHorizontalGraph+0x64>
    2946:	81 e0       	ldi	r24, 0x01	; 1
    2948:	0e 94 f7 0e 	call	0x1dee	; 0x1dee <GLCD_GoToPage>
    294c:	80 e0       	ldi	r24, 0x00	; 0
    294e:	0e 94 dd 15 	call	0x2bba	; 0x2bba <glcd_DataWrite>
    2952:	89 81       	ldd	r24, Y+1	; 0x01
    2954:	8f 5f       	subi	r24, 0xFF	; 255
    2956:	89 83       	std	Y+1, r24	; 0x01
    2958:	89 81       	ldd	r24, Y+1	; 0x01
    295a:	84 36       	cpi	r24, 0x64	; 100
    295c:	88 f3       	brcs	.-30     	; 0x2940 <GLCD_DisplayHorizontalGraph+0x58>
    295e:	81 e0       	ldi	r24, 0x01	; 1
    2960:	6a 81       	ldd	r22, Y+2	; 0x02
    2962:	4e e6       	ldi	r20, 0x6E	; 110
    2964:	0e 94 99 0e 	call	0x1d32	; 0x1d32 <GLCD_SetCursor>
    2968:	8c 81       	ldd	r24, Y+4	; 0x04
    296a:	88 2f       	mov	r24, r24
    296c:	90 e0       	ldi	r25, 0x00	; 0
    296e:	a0 e0       	ldi	r26, 0x00	; 0
    2970:	b0 e0       	ldi	r27, 0x00	; 0
    2972:	bc 01       	movw	r22, r24
    2974:	cd 01       	movw	r24, r26
    2976:	43 e0       	ldi	r20, 0x03	; 3
    2978:	0e 94 dc 0f 	call	0x1fb8	; 0x1fb8 <GLCD_DisplayDecimalNumber>
    297c:	0f 90       	pop	r0
    297e:	0f 90       	pop	r0
    2980:	0f 90       	pop	r0
    2982:	0f 90       	pop	r0
    2984:	cf 91       	pop	r28
    2986:	df 91       	pop	r29
    2988:	08 95       	ret

0000298a <glcd_CmdWrite>:
    298a:	0f 93       	push	r16
    298c:	1f 93       	push	r17
    298e:	df 93       	push	r29
    2990:	cf 93       	push	r28
    2992:	cd b7       	in	r28, 0x3d	; 61
    2994:	de b7       	in	r29, 0x3e	; 62
    2996:	69 97       	sbiw	r28, 0x19	; 25
    2998:	0f b6       	in	r0, 0x3f	; 63
    299a:	f8 94       	cli
    299c:	de bf       	out	0x3e, r29	; 62
    299e:	0f be       	out	0x3f, r0	; 63
    29a0:	cd bf       	out	0x3d, r28	; 61
    29a2:	89 8f       	std	Y+25, r24	; 0x19
    29a4:	0e 94 f8 16 	call	0x2df0	; 0x2df0 <glcd_BusyCheck>
    29a8:	85 e3       	ldi	r24, 0x35	; 53
    29aa:	90 e0       	ldi	r25, 0x00	; 0
    29ac:	29 8d       	ldd	r18, Y+25	; 0x19
    29ae:	fc 01       	movw	r30, r24
    29b0:	20 83       	st	Z, r18
    29b2:	8b e3       	ldi	r24, 0x3B	; 59
    29b4:	90 e0       	ldi	r25, 0x00	; 0
    29b6:	2b e3       	ldi	r18, 0x3B	; 59
    29b8:	30 e0       	ldi	r19, 0x00	; 0
    29ba:	f9 01       	movw	r30, r18
    29bc:	20 81       	ld	r18, Z
    29be:	2f 77       	andi	r18, 0x7F	; 127
    29c0:	fc 01       	movw	r30, r24
    29c2:	20 83       	st	Z, r18
    29c4:	8b e3       	ldi	r24, 0x3B	; 59
    29c6:	90 e0       	ldi	r25, 0x00	; 0
    29c8:	2b e3       	ldi	r18, 0x3B	; 59
    29ca:	30 e0       	ldi	r19, 0x00	; 0
    29cc:	f9 01       	movw	r30, r18
    29ce:	20 81       	ld	r18, Z
    29d0:	2f 7b       	andi	r18, 0xBF	; 191
    29d2:	fc 01       	movw	r30, r24
    29d4:	20 83       	st	Z, r18
    29d6:	8b e3       	ldi	r24, 0x3B	; 59
    29d8:	90 e0       	ldi	r25, 0x00	; 0
    29da:	2b e3       	ldi	r18, 0x3B	; 59
    29dc:	30 e0       	ldi	r19, 0x00	; 0
    29de:	f9 01       	movw	r30, r18
    29e0:	20 81       	ld	r18, Z
    29e2:	20 62       	ori	r18, 0x20	; 32
    29e4:	fc 01       	movw	r30, r24
    29e6:	20 83       	st	Z, r18
    29e8:	80 e0       	ldi	r24, 0x00	; 0
    29ea:	90 e0       	ldi	r25, 0x00	; 0
    29ec:	a0 e0       	ldi	r26, 0x00	; 0
    29ee:	b0 e4       	ldi	r27, 0x40	; 64
    29f0:	89 83       	std	Y+1, r24	; 0x01
    29f2:	9a 83       	std	Y+2, r25	; 0x02
    29f4:	ab 83       	std	Y+3, r26	; 0x03
    29f6:	bc 83       	std	Y+4, r27	; 0x04
    29f8:	69 81       	ldd	r22, Y+1	; 0x01
    29fa:	7a 81       	ldd	r23, Y+2	; 0x02
    29fc:	8b 81       	ldd	r24, Y+3	; 0x03
    29fe:	9c 81       	ldd	r25, Y+4	; 0x04
    2a00:	2b ea       	ldi	r18, 0xAB	; 171
    2a02:	3a ea       	ldi	r19, 0xAA	; 170
    2a04:	4a ea       	ldi	r20, 0xAA	; 170
    2a06:	5e e3       	ldi	r21, 0x3E	; 62
    2a08:	0e 94 38 2e 	call	0x5c70	; 0x5c70 <__mulsf3>
    2a0c:	dc 01       	movw	r26, r24
    2a0e:	cb 01       	movw	r24, r22
    2a10:	8d 83       	std	Y+5, r24	; 0x05
    2a12:	9e 83       	std	Y+6, r25	; 0x06
    2a14:	af 83       	std	Y+7, r26	; 0x07
    2a16:	b8 87       	std	Y+8, r27	; 0x08
    2a18:	11 e0       	ldi	r17, 0x01	; 1
    2a1a:	6d 81       	ldd	r22, Y+5	; 0x05
    2a1c:	7e 81       	ldd	r23, Y+6	; 0x06
    2a1e:	8f 81       	ldd	r24, Y+7	; 0x07
    2a20:	98 85       	ldd	r25, Y+8	; 0x08
    2a22:	20 e0       	ldi	r18, 0x00	; 0
    2a24:	30 e0       	ldi	r19, 0x00	; 0
    2a26:	40 e8       	ldi	r20, 0x80	; 128
    2a28:	5f e3       	ldi	r21, 0x3F	; 63
    2a2a:	0e 94 ea 2c 	call	0x59d4	; 0x59d4 <__cmpsf2>
    2a2e:	88 23       	and	r24, r24
    2a30:	0c f0       	brlt	.+2      	; 0x2a34 <glcd_CmdWrite+0xaa>
    2a32:	10 e0       	ldi	r17, 0x00	; 0
    2a34:	11 23       	and	r17, r17
    2a36:	19 f0       	breq	.+6      	; 0x2a3e <glcd_CmdWrite+0xb4>
    2a38:	81 e0       	ldi	r24, 0x01	; 1
    2a3a:	89 87       	std	Y+9, r24	; 0x09
    2a3c:	a3 c0       	rjmp	.+326    	; 0x2b84 <glcd_CmdWrite+0x1fa>
    2a3e:	11 e0       	ldi	r17, 0x01	; 1
    2a40:	6d 81       	ldd	r22, Y+5	; 0x05
    2a42:	7e 81       	ldd	r23, Y+6	; 0x06
    2a44:	8f 81       	ldd	r24, Y+7	; 0x07
    2a46:	98 85       	ldd	r25, Y+8	; 0x08
    2a48:	20 e0       	ldi	r18, 0x00	; 0
    2a4a:	30 e0       	ldi	r19, 0x00	; 0
    2a4c:	4f e7       	ldi	r20, 0x7F	; 127
    2a4e:	53 e4       	ldi	r21, 0x43	; 67
    2a50:	0e 94 34 2e 	call	0x5c68	; 0x5c68 <__gesf2>
    2a54:	18 16       	cp	r1, r24
    2a56:	0c f0       	brlt	.+2      	; 0x2a5a <glcd_CmdWrite+0xd0>
    2a58:	10 e0       	ldi	r17, 0x00	; 0
    2a5a:	11 23       	and	r17, r17
    2a5c:	09 f4       	brne	.+2      	; 0x2a60 <glcd_CmdWrite+0xd6>
    2a5e:	89 c0       	rjmp	.+274    	; 0x2b72 <glcd_CmdWrite+0x1e8>
    2a60:	69 81       	ldd	r22, Y+1	; 0x01
    2a62:	7a 81       	ldd	r23, Y+2	; 0x02
    2a64:	8b 81       	ldd	r24, Y+3	; 0x03
    2a66:	9c 81       	ldd	r25, Y+4	; 0x04
    2a68:	20 e0       	ldi	r18, 0x00	; 0
    2a6a:	30 e0       	ldi	r19, 0x00	; 0
    2a6c:	4a e7       	ldi	r20, 0x7A	; 122
    2a6e:	54 e4       	ldi	r21, 0x44	; 68
    2a70:	0e 94 ee 2c 	call	0x59dc	; 0x59dc <__divsf3>
    2a74:	dc 01       	movw	r26, r24
    2a76:	cb 01       	movw	r24, r22
    2a78:	8a 87       	std	Y+10, r24	; 0x0a
    2a7a:	9b 87       	std	Y+11, r25	; 0x0b
    2a7c:	ac 87       	std	Y+12, r26	; 0x0c
    2a7e:	bd 87       	std	Y+13, r27	; 0x0d
    2a80:	6a 85       	ldd	r22, Y+10	; 0x0a
    2a82:	7b 85       	ldd	r23, Y+11	; 0x0b
    2a84:	8c 85       	ldd	r24, Y+12	; 0x0c
    2a86:	9d 85       	ldd	r25, Y+13	; 0x0d
    2a88:	20 e0       	ldi	r18, 0x00	; 0
    2a8a:	30 e0       	ldi	r19, 0x00	; 0
    2a8c:	4a e7       	ldi	r20, 0x7A	; 122
    2a8e:	53 e4       	ldi	r21, 0x43	; 67
    2a90:	0e 94 38 2e 	call	0x5c70	; 0x5c70 <__mulsf3>
    2a94:	dc 01       	movw	r26, r24
    2a96:	cb 01       	movw	r24, r22
    2a98:	8e 87       	std	Y+14, r24	; 0x0e
    2a9a:	9f 87       	std	Y+15, r25	; 0x0f
    2a9c:	a8 8b       	std	Y+16, r26	; 0x10
    2a9e:	b9 8b       	std	Y+17, r27	; 0x11
    2aa0:	11 e0       	ldi	r17, 0x01	; 1
    2aa2:	6e 85       	ldd	r22, Y+14	; 0x0e
    2aa4:	7f 85       	ldd	r23, Y+15	; 0x0f
    2aa6:	88 89       	ldd	r24, Y+16	; 0x10
    2aa8:	99 89       	ldd	r25, Y+17	; 0x11
    2aaa:	20 e0       	ldi	r18, 0x00	; 0
    2aac:	30 e0       	ldi	r19, 0x00	; 0
    2aae:	40 e8       	ldi	r20, 0x80	; 128
    2ab0:	5f e3       	ldi	r21, 0x3F	; 63
    2ab2:	0e 94 ea 2c 	call	0x59d4	; 0x59d4 <__cmpsf2>
    2ab6:	88 23       	and	r24, r24
    2ab8:	0c f0       	brlt	.+2      	; 0x2abc <glcd_CmdWrite+0x132>
    2aba:	10 e0       	ldi	r17, 0x00	; 0
    2abc:	11 23       	and	r17, r17
    2abe:	29 f0       	breq	.+10     	; 0x2aca <glcd_CmdWrite+0x140>
    2ac0:	81 e0       	ldi	r24, 0x01	; 1
    2ac2:	90 e0       	ldi	r25, 0x00	; 0
    2ac4:	9b 8b       	std	Y+19, r25	; 0x13
    2ac6:	8a 8b       	std	Y+18, r24	; 0x12
    2ac8:	46 c0       	rjmp	.+140    	; 0x2b56 <glcd_CmdWrite+0x1cc>
    2aca:	11 e0       	ldi	r17, 0x01	; 1
    2acc:	6e 85       	ldd	r22, Y+14	; 0x0e
    2ace:	7f 85       	ldd	r23, Y+15	; 0x0f
    2ad0:	88 89       	ldd	r24, Y+16	; 0x10
    2ad2:	99 89       	ldd	r25, Y+17	; 0x11
    2ad4:	20 e0       	ldi	r18, 0x00	; 0
    2ad6:	3f ef       	ldi	r19, 0xFF	; 255
    2ad8:	4f e7       	ldi	r20, 0x7F	; 127
    2ada:	57 e4       	ldi	r21, 0x47	; 71
    2adc:	0e 94 34 2e 	call	0x5c68	; 0x5c68 <__gesf2>
    2ae0:	18 16       	cp	r1, r24
    2ae2:	0c f0       	brlt	.+2      	; 0x2ae6 <glcd_CmdWrite+0x15c>
    2ae4:	10 e0       	ldi	r17, 0x00	; 0
    2ae6:	11 23       	and	r17, r17
    2ae8:	61 f1       	breq	.+88     	; 0x2b42 <glcd_CmdWrite+0x1b8>
    2aea:	6a 85       	ldd	r22, Y+10	; 0x0a
    2aec:	7b 85       	ldd	r23, Y+11	; 0x0b
    2aee:	8c 85       	ldd	r24, Y+12	; 0x0c
    2af0:	9d 85       	ldd	r25, Y+13	; 0x0d
    2af2:	20 e0       	ldi	r18, 0x00	; 0
    2af4:	30 e0       	ldi	r19, 0x00	; 0
    2af6:	40 e2       	ldi	r20, 0x20	; 32
    2af8:	51 e4       	ldi	r21, 0x41	; 65
    2afa:	0e 94 38 2e 	call	0x5c70	; 0x5c70 <__mulsf3>
    2afe:	dc 01       	movw	r26, r24
    2b00:	cb 01       	movw	r24, r22
    2b02:	bc 01       	movw	r22, r24
    2b04:	cd 01       	movw	r24, r26
    2b06:	0e 94 56 2d 	call	0x5aac	; 0x5aac <__fixunssfsi>
    2b0a:	dc 01       	movw	r26, r24
    2b0c:	cb 01       	movw	r24, r22
    2b0e:	9b 8b       	std	Y+19, r25	; 0x13
    2b10:	8a 8b       	std	Y+18, r24	; 0x12
    2b12:	12 c0       	rjmp	.+36     	; 0x2b38 <glcd_CmdWrite+0x1ae>
    2b14:	89 e1       	ldi	r24, 0x19	; 25
    2b16:	90 e0       	ldi	r25, 0x00	; 0
    2b18:	9d 8b       	std	Y+21, r25	; 0x15
    2b1a:	8c 8b       	std	Y+20, r24	; 0x14
    2b1c:	8c 89       	ldd	r24, Y+20	; 0x14
    2b1e:	9d 89       	ldd	r25, Y+21	; 0x15
    2b20:	8c 01       	movw	r16, r24
    2b22:	c8 01       	movw	r24, r16
    2b24:	01 97       	sbiw	r24, 0x01	; 1
    2b26:	f1 f7       	brne	.-4      	; 0x2b24 <glcd_CmdWrite+0x19a>
    2b28:	8c 01       	movw	r16, r24
    2b2a:	1d 8b       	std	Y+21, r17	; 0x15
    2b2c:	0c 8b       	std	Y+20, r16	; 0x14
    2b2e:	8a 89       	ldd	r24, Y+18	; 0x12
    2b30:	9b 89       	ldd	r25, Y+19	; 0x13
    2b32:	01 97       	sbiw	r24, 0x01	; 1
    2b34:	9b 8b       	std	Y+19, r25	; 0x13
    2b36:	8a 8b       	std	Y+18, r24	; 0x12
    2b38:	8a 89       	ldd	r24, Y+18	; 0x12
    2b3a:	9b 89       	ldd	r25, Y+19	; 0x13
    2b3c:	00 97       	sbiw	r24, 0x00	; 0
    2b3e:	51 f7       	brne	.-44     	; 0x2b14 <glcd_CmdWrite+0x18a>
    2b40:	28 c0       	rjmp	.+80     	; 0x2b92 <glcd_CmdWrite+0x208>
    2b42:	6e 85       	ldd	r22, Y+14	; 0x0e
    2b44:	7f 85       	ldd	r23, Y+15	; 0x0f
    2b46:	88 89       	ldd	r24, Y+16	; 0x10
    2b48:	99 89       	ldd	r25, Y+17	; 0x11
    2b4a:	0e 94 56 2d 	call	0x5aac	; 0x5aac <__fixunssfsi>
    2b4e:	dc 01       	movw	r26, r24
    2b50:	cb 01       	movw	r24, r22
    2b52:	9b 8b       	std	Y+19, r25	; 0x13
    2b54:	8a 8b       	std	Y+18, r24	; 0x12
    2b56:	8a 89       	ldd	r24, Y+18	; 0x12
    2b58:	9b 89       	ldd	r25, Y+19	; 0x13
    2b5a:	9f 8b       	std	Y+23, r25	; 0x17
    2b5c:	8e 8b       	std	Y+22, r24	; 0x16
    2b5e:	8e 89       	ldd	r24, Y+22	; 0x16
    2b60:	9f 89       	ldd	r25, Y+23	; 0x17
    2b62:	8c 01       	movw	r16, r24
    2b64:	f8 01       	movw	r30, r16
    2b66:	31 97       	sbiw	r30, 0x01	; 1
    2b68:	f1 f7       	brne	.-4      	; 0x2b66 <glcd_CmdWrite+0x1dc>
    2b6a:	8f 01       	movw	r16, r30
    2b6c:	1f 8b       	std	Y+23, r17	; 0x17
    2b6e:	0e 8b       	std	Y+22, r16	; 0x16
    2b70:	10 c0       	rjmp	.+32     	; 0x2b92 <glcd_CmdWrite+0x208>
    2b72:	6d 81       	ldd	r22, Y+5	; 0x05
    2b74:	7e 81       	ldd	r23, Y+6	; 0x06
    2b76:	8f 81       	ldd	r24, Y+7	; 0x07
    2b78:	98 85       	ldd	r25, Y+8	; 0x08
    2b7a:	0e 94 56 2d 	call	0x5aac	; 0x5aac <__fixunssfsi>
    2b7e:	dc 01       	movw	r26, r24
    2b80:	cb 01       	movw	r24, r22
    2b82:	89 87       	std	Y+9, r24	; 0x09
    2b84:	89 85       	ldd	r24, Y+9	; 0x09
    2b86:	88 8f       	std	Y+24, r24	; 0x18
    2b88:	88 8d       	ldd	r24, Y+24	; 0x18
    2b8a:	18 2f       	mov	r17, r24
    2b8c:	1a 95       	dec	r17
    2b8e:	f1 f7       	brne	.-4      	; 0x2b8c <glcd_CmdWrite+0x202>
    2b90:	18 8f       	std	Y+24, r17	; 0x18
    2b92:	8b e3       	ldi	r24, 0x3B	; 59
    2b94:	90 e0       	ldi	r25, 0x00	; 0
    2b96:	2b e3       	ldi	r18, 0x3B	; 59
    2b98:	30 e0       	ldi	r19, 0x00	; 0
    2b9a:	f9 01       	movw	r30, r18
    2b9c:	20 81       	ld	r18, Z
    2b9e:	2f 7d       	andi	r18, 0xDF	; 223
    2ba0:	fc 01       	movw	r30, r24
    2ba2:	20 83       	st	Z, r18
    2ba4:	69 96       	adiw	r28, 0x19	; 25
    2ba6:	0f b6       	in	r0, 0x3f	; 63
    2ba8:	f8 94       	cli
    2baa:	de bf       	out	0x3e, r29	; 62
    2bac:	0f be       	out	0x3f, r0	; 63
    2bae:	cd bf       	out	0x3d, r28	; 61
    2bb0:	cf 91       	pop	r28
    2bb2:	df 91       	pop	r29
    2bb4:	1f 91       	pop	r17
    2bb6:	0f 91       	pop	r16
    2bb8:	08 95       	ret

00002bba <glcd_DataWrite>:
    2bba:	0f 93       	push	r16
    2bbc:	1f 93       	push	r17
    2bbe:	df 93       	push	r29
    2bc0:	cf 93       	push	r28
    2bc2:	cd b7       	in	r28, 0x3d	; 61
    2bc4:	de b7       	in	r29, 0x3e	; 62
    2bc6:	69 97       	sbiw	r28, 0x19	; 25
    2bc8:	0f b6       	in	r0, 0x3f	; 63
    2bca:	f8 94       	cli
    2bcc:	de bf       	out	0x3e, r29	; 62
    2bce:	0f be       	out	0x3f, r0	; 63
    2bd0:	cd bf       	out	0x3d, r28	; 61
    2bd2:	89 8f       	std	Y+25, r24	; 0x19
    2bd4:	0e 94 f8 16 	call	0x2df0	; 0x2df0 <glcd_BusyCheck>
    2bd8:	85 e3       	ldi	r24, 0x35	; 53
    2bda:	90 e0       	ldi	r25, 0x00	; 0
    2bdc:	30 91 aa 03 	lds	r19, 0x03AA
    2be0:	29 8d       	ldd	r18, Y+25	; 0x19
    2be2:	23 27       	eor	r18, r19
    2be4:	fc 01       	movw	r30, r24
    2be6:	20 83       	st	Z, r18
    2be8:	8b e3       	ldi	r24, 0x3B	; 59
    2bea:	90 e0       	ldi	r25, 0x00	; 0
    2bec:	2b e3       	ldi	r18, 0x3B	; 59
    2bee:	30 e0       	ldi	r19, 0x00	; 0
    2bf0:	f9 01       	movw	r30, r18
    2bf2:	20 81       	ld	r18, Z
    2bf4:	20 68       	ori	r18, 0x80	; 128
    2bf6:	fc 01       	movw	r30, r24
    2bf8:	20 83       	st	Z, r18
    2bfa:	8b e3       	ldi	r24, 0x3B	; 59
    2bfc:	90 e0       	ldi	r25, 0x00	; 0
    2bfe:	2b e3       	ldi	r18, 0x3B	; 59
    2c00:	30 e0       	ldi	r19, 0x00	; 0
    2c02:	f9 01       	movw	r30, r18
    2c04:	20 81       	ld	r18, Z
    2c06:	2f 7b       	andi	r18, 0xBF	; 191
    2c08:	fc 01       	movw	r30, r24
    2c0a:	20 83       	st	Z, r18
    2c0c:	8b e3       	ldi	r24, 0x3B	; 59
    2c0e:	90 e0       	ldi	r25, 0x00	; 0
    2c10:	2b e3       	ldi	r18, 0x3B	; 59
    2c12:	30 e0       	ldi	r19, 0x00	; 0
    2c14:	f9 01       	movw	r30, r18
    2c16:	20 81       	ld	r18, Z
    2c18:	20 62       	ori	r18, 0x20	; 32
    2c1a:	fc 01       	movw	r30, r24
    2c1c:	20 83       	st	Z, r18
    2c1e:	80 e0       	ldi	r24, 0x00	; 0
    2c20:	90 e0       	ldi	r25, 0x00	; 0
    2c22:	a0 e0       	ldi	r26, 0x00	; 0
    2c24:	b0 e4       	ldi	r27, 0x40	; 64
    2c26:	89 83       	std	Y+1, r24	; 0x01
    2c28:	9a 83       	std	Y+2, r25	; 0x02
    2c2a:	ab 83       	std	Y+3, r26	; 0x03
    2c2c:	bc 83       	std	Y+4, r27	; 0x04
    2c2e:	69 81       	ldd	r22, Y+1	; 0x01
    2c30:	7a 81       	ldd	r23, Y+2	; 0x02
    2c32:	8b 81       	ldd	r24, Y+3	; 0x03
    2c34:	9c 81       	ldd	r25, Y+4	; 0x04
    2c36:	2b ea       	ldi	r18, 0xAB	; 171
    2c38:	3a ea       	ldi	r19, 0xAA	; 170
    2c3a:	4a ea       	ldi	r20, 0xAA	; 170
    2c3c:	5e e3       	ldi	r21, 0x3E	; 62
    2c3e:	0e 94 38 2e 	call	0x5c70	; 0x5c70 <__mulsf3>
    2c42:	dc 01       	movw	r26, r24
    2c44:	cb 01       	movw	r24, r22
    2c46:	8d 83       	std	Y+5, r24	; 0x05
    2c48:	9e 83       	std	Y+6, r25	; 0x06
    2c4a:	af 83       	std	Y+7, r26	; 0x07
    2c4c:	b8 87       	std	Y+8, r27	; 0x08
    2c4e:	11 e0       	ldi	r17, 0x01	; 1
    2c50:	6d 81       	ldd	r22, Y+5	; 0x05
    2c52:	7e 81       	ldd	r23, Y+6	; 0x06
    2c54:	8f 81       	ldd	r24, Y+7	; 0x07
    2c56:	98 85       	ldd	r25, Y+8	; 0x08
    2c58:	20 e0       	ldi	r18, 0x00	; 0
    2c5a:	30 e0       	ldi	r19, 0x00	; 0
    2c5c:	40 e8       	ldi	r20, 0x80	; 128
    2c5e:	5f e3       	ldi	r21, 0x3F	; 63
    2c60:	0e 94 ea 2c 	call	0x59d4	; 0x59d4 <__cmpsf2>
    2c64:	88 23       	and	r24, r24
    2c66:	0c f0       	brlt	.+2      	; 0x2c6a <glcd_DataWrite+0xb0>
    2c68:	10 e0       	ldi	r17, 0x00	; 0
    2c6a:	11 23       	and	r17, r17
    2c6c:	19 f0       	breq	.+6      	; 0x2c74 <glcd_DataWrite+0xba>
    2c6e:	81 e0       	ldi	r24, 0x01	; 1
    2c70:	89 87       	std	Y+9, r24	; 0x09
    2c72:	a3 c0       	rjmp	.+326    	; 0x2dba <glcd_DataWrite+0x200>
    2c74:	11 e0       	ldi	r17, 0x01	; 1
    2c76:	6d 81       	ldd	r22, Y+5	; 0x05
    2c78:	7e 81       	ldd	r23, Y+6	; 0x06
    2c7a:	8f 81       	ldd	r24, Y+7	; 0x07
    2c7c:	98 85       	ldd	r25, Y+8	; 0x08
    2c7e:	20 e0       	ldi	r18, 0x00	; 0
    2c80:	30 e0       	ldi	r19, 0x00	; 0
    2c82:	4f e7       	ldi	r20, 0x7F	; 127
    2c84:	53 e4       	ldi	r21, 0x43	; 67
    2c86:	0e 94 34 2e 	call	0x5c68	; 0x5c68 <__gesf2>
    2c8a:	18 16       	cp	r1, r24
    2c8c:	0c f0       	brlt	.+2      	; 0x2c90 <glcd_DataWrite+0xd6>
    2c8e:	10 e0       	ldi	r17, 0x00	; 0
    2c90:	11 23       	and	r17, r17
    2c92:	09 f4       	brne	.+2      	; 0x2c96 <glcd_DataWrite+0xdc>
    2c94:	89 c0       	rjmp	.+274    	; 0x2da8 <glcd_DataWrite+0x1ee>
    2c96:	69 81       	ldd	r22, Y+1	; 0x01
    2c98:	7a 81       	ldd	r23, Y+2	; 0x02
    2c9a:	8b 81       	ldd	r24, Y+3	; 0x03
    2c9c:	9c 81       	ldd	r25, Y+4	; 0x04
    2c9e:	20 e0       	ldi	r18, 0x00	; 0
    2ca0:	30 e0       	ldi	r19, 0x00	; 0
    2ca2:	4a e7       	ldi	r20, 0x7A	; 122
    2ca4:	54 e4       	ldi	r21, 0x44	; 68
    2ca6:	0e 94 ee 2c 	call	0x59dc	; 0x59dc <__divsf3>
    2caa:	dc 01       	movw	r26, r24
    2cac:	cb 01       	movw	r24, r22
    2cae:	8a 87       	std	Y+10, r24	; 0x0a
    2cb0:	9b 87       	std	Y+11, r25	; 0x0b
    2cb2:	ac 87       	std	Y+12, r26	; 0x0c
    2cb4:	bd 87       	std	Y+13, r27	; 0x0d
    2cb6:	6a 85       	ldd	r22, Y+10	; 0x0a
    2cb8:	7b 85       	ldd	r23, Y+11	; 0x0b
    2cba:	8c 85       	ldd	r24, Y+12	; 0x0c
    2cbc:	9d 85       	ldd	r25, Y+13	; 0x0d
    2cbe:	20 e0       	ldi	r18, 0x00	; 0
    2cc0:	30 e0       	ldi	r19, 0x00	; 0
    2cc2:	4a e7       	ldi	r20, 0x7A	; 122
    2cc4:	53 e4       	ldi	r21, 0x43	; 67
    2cc6:	0e 94 38 2e 	call	0x5c70	; 0x5c70 <__mulsf3>
    2cca:	dc 01       	movw	r26, r24
    2ccc:	cb 01       	movw	r24, r22
    2cce:	8e 87       	std	Y+14, r24	; 0x0e
    2cd0:	9f 87       	std	Y+15, r25	; 0x0f
    2cd2:	a8 8b       	std	Y+16, r26	; 0x10
    2cd4:	b9 8b       	std	Y+17, r27	; 0x11
    2cd6:	11 e0       	ldi	r17, 0x01	; 1
    2cd8:	6e 85       	ldd	r22, Y+14	; 0x0e
    2cda:	7f 85       	ldd	r23, Y+15	; 0x0f
    2cdc:	88 89       	ldd	r24, Y+16	; 0x10
    2cde:	99 89       	ldd	r25, Y+17	; 0x11
    2ce0:	20 e0       	ldi	r18, 0x00	; 0
    2ce2:	30 e0       	ldi	r19, 0x00	; 0
    2ce4:	40 e8       	ldi	r20, 0x80	; 128
    2ce6:	5f e3       	ldi	r21, 0x3F	; 63
    2ce8:	0e 94 ea 2c 	call	0x59d4	; 0x59d4 <__cmpsf2>
    2cec:	88 23       	and	r24, r24
    2cee:	0c f0       	brlt	.+2      	; 0x2cf2 <glcd_DataWrite+0x138>
    2cf0:	10 e0       	ldi	r17, 0x00	; 0
    2cf2:	11 23       	and	r17, r17
    2cf4:	29 f0       	breq	.+10     	; 0x2d00 <glcd_DataWrite+0x146>
    2cf6:	81 e0       	ldi	r24, 0x01	; 1
    2cf8:	90 e0       	ldi	r25, 0x00	; 0
    2cfa:	9b 8b       	std	Y+19, r25	; 0x13
    2cfc:	8a 8b       	std	Y+18, r24	; 0x12
    2cfe:	46 c0       	rjmp	.+140    	; 0x2d8c <glcd_DataWrite+0x1d2>
    2d00:	11 e0       	ldi	r17, 0x01	; 1
    2d02:	6e 85       	ldd	r22, Y+14	; 0x0e
    2d04:	7f 85       	ldd	r23, Y+15	; 0x0f
    2d06:	88 89       	ldd	r24, Y+16	; 0x10
    2d08:	99 89       	ldd	r25, Y+17	; 0x11
    2d0a:	20 e0       	ldi	r18, 0x00	; 0
    2d0c:	3f ef       	ldi	r19, 0xFF	; 255
    2d0e:	4f e7       	ldi	r20, 0x7F	; 127
    2d10:	57 e4       	ldi	r21, 0x47	; 71
    2d12:	0e 94 34 2e 	call	0x5c68	; 0x5c68 <__gesf2>
    2d16:	18 16       	cp	r1, r24
    2d18:	0c f0       	brlt	.+2      	; 0x2d1c <glcd_DataWrite+0x162>
    2d1a:	10 e0       	ldi	r17, 0x00	; 0
    2d1c:	11 23       	and	r17, r17
    2d1e:	61 f1       	breq	.+88     	; 0x2d78 <glcd_DataWrite+0x1be>
    2d20:	6a 85       	ldd	r22, Y+10	; 0x0a
    2d22:	7b 85       	ldd	r23, Y+11	; 0x0b
    2d24:	8c 85       	ldd	r24, Y+12	; 0x0c
    2d26:	9d 85       	ldd	r25, Y+13	; 0x0d
    2d28:	20 e0       	ldi	r18, 0x00	; 0
    2d2a:	30 e0       	ldi	r19, 0x00	; 0
    2d2c:	40 e2       	ldi	r20, 0x20	; 32
    2d2e:	51 e4       	ldi	r21, 0x41	; 65
    2d30:	0e 94 38 2e 	call	0x5c70	; 0x5c70 <__mulsf3>
    2d34:	dc 01       	movw	r26, r24
    2d36:	cb 01       	movw	r24, r22
    2d38:	bc 01       	movw	r22, r24
    2d3a:	cd 01       	movw	r24, r26
    2d3c:	0e 94 56 2d 	call	0x5aac	; 0x5aac <__fixunssfsi>
    2d40:	dc 01       	movw	r26, r24
    2d42:	cb 01       	movw	r24, r22
    2d44:	9b 8b       	std	Y+19, r25	; 0x13
    2d46:	8a 8b       	std	Y+18, r24	; 0x12
    2d48:	12 c0       	rjmp	.+36     	; 0x2d6e <glcd_DataWrite+0x1b4>
    2d4a:	89 e1       	ldi	r24, 0x19	; 25
    2d4c:	90 e0       	ldi	r25, 0x00	; 0
    2d4e:	9d 8b       	std	Y+21, r25	; 0x15
    2d50:	8c 8b       	std	Y+20, r24	; 0x14
    2d52:	8c 89       	ldd	r24, Y+20	; 0x14
    2d54:	9d 89       	ldd	r25, Y+21	; 0x15
    2d56:	8c 01       	movw	r16, r24
    2d58:	c8 01       	movw	r24, r16
    2d5a:	01 97       	sbiw	r24, 0x01	; 1
    2d5c:	f1 f7       	brne	.-4      	; 0x2d5a <glcd_DataWrite+0x1a0>
    2d5e:	8c 01       	movw	r16, r24
    2d60:	1d 8b       	std	Y+21, r17	; 0x15
    2d62:	0c 8b       	std	Y+20, r16	; 0x14
    2d64:	8a 89       	ldd	r24, Y+18	; 0x12
    2d66:	9b 89       	ldd	r25, Y+19	; 0x13
    2d68:	01 97       	sbiw	r24, 0x01	; 1
    2d6a:	9b 8b       	std	Y+19, r25	; 0x13
    2d6c:	8a 8b       	std	Y+18, r24	; 0x12
    2d6e:	8a 89       	ldd	r24, Y+18	; 0x12
    2d70:	9b 89       	ldd	r25, Y+19	; 0x13
    2d72:	00 97       	sbiw	r24, 0x00	; 0
    2d74:	51 f7       	brne	.-44     	; 0x2d4a <glcd_DataWrite+0x190>
    2d76:	28 c0       	rjmp	.+80     	; 0x2dc8 <glcd_DataWrite+0x20e>
    2d78:	6e 85       	ldd	r22, Y+14	; 0x0e
    2d7a:	7f 85       	ldd	r23, Y+15	; 0x0f
    2d7c:	88 89       	ldd	r24, Y+16	; 0x10
    2d7e:	99 89       	ldd	r25, Y+17	; 0x11
    2d80:	0e 94 56 2d 	call	0x5aac	; 0x5aac <__fixunssfsi>
    2d84:	dc 01       	movw	r26, r24
    2d86:	cb 01       	movw	r24, r22
    2d88:	9b 8b       	std	Y+19, r25	; 0x13
    2d8a:	8a 8b       	std	Y+18, r24	; 0x12
    2d8c:	8a 89       	ldd	r24, Y+18	; 0x12
    2d8e:	9b 89       	ldd	r25, Y+19	; 0x13
    2d90:	9f 8b       	std	Y+23, r25	; 0x17
    2d92:	8e 8b       	std	Y+22, r24	; 0x16
    2d94:	8e 89       	ldd	r24, Y+22	; 0x16
    2d96:	9f 89       	ldd	r25, Y+23	; 0x17
    2d98:	8c 01       	movw	r16, r24
    2d9a:	f8 01       	movw	r30, r16
    2d9c:	31 97       	sbiw	r30, 0x01	; 1
    2d9e:	f1 f7       	brne	.-4      	; 0x2d9c <glcd_DataWrite+0x1e2>
    2da0:	8f 01       	movw	r16, r30
    2da2:	1f 8b       	std	Y+23, r17	; 0x17
    2da4:	0e 8b       	std	Y+22, r16	; 0x16
    2da6:	10 c0       	rjmp	.+32     	; 0x2dc8 <glcd_DataWrite+0x20e>
    2da8:	6d 81       	ldd	r22, Y+5	; 0x05
    2daa:	7e 81       	ldd	r23, Y+6	; 0x06
    2dac:	8f 81       	ldd	r24, Y+7	; 0x07
    2dae:	98 85       	ldd	r25, Y+8	; 0x08
    2db0:	0e 94 56 2d 	call	0x5aac	; 0x5aac <__fixunssfsi>
    2db4:	dc 01       	movw	r26, r24
    2db6:	cb 01       	movw	r24, r22
    2db8:	89 87       	std	Y+9, r24	; 0x09
    2dba:	89 85       	ldd	r24, Y+9	; 0x09
    2dbc:	88 8f       	std	Y+24, r24	; 0x18
    2dbe:	88 8d       	ldd	r24, Y+24	; 0x18
    2dc0:	18 2f       	mov	r17, r24
    2dc2:	1a 95       	dec	r17
    2dc4:	f1 f7       	brne	.-4      	; 0x2dc2 <glcd_DataWrite+0x208>
    2dc6:	18 8f       	std	Y+24, r17	; 0x18
    2dc8:	8b e3       	ldi	r24, 0x3B	; 59
    2dca:	90 e0       	ldi	r25, 0x00	; 0
    2dcc:	2b e3       	ldi	r18, 0x3B	; 59
    2dce:	30 e0       	ldi	r19, 0x00	; 0
    2dd0:	f9 01       	movw	r30, r18
    2dd2:	20 81       	ld	r18, Z
    2dd4:	2f 7d       	andi	r18, 0xDF	; 223
    2dd6:	fc 01       	movw	r30, r24
    2dd8:	20 83       	st	Z, r18
    2dda:	69 96       	adiw	r28, 0x19	; 25
    2ddc:	0f b6       	in	r0, 0x3f	; 63
    2dde:	f8 94       	cli
    2de0:	de bf       	out	0x3e, r29	; 62
    2de2:	0f be       	out	0x3f, r0	; 63
    2de4:	cd bf       	out	0x3d, r28	; 61
    2de6:	cf 91       	pop	r28
    2de8:	df 91       	pop	r29
    2dea:	1f 91       	pop	r17
    2dec:	0f 91       	pop	r16
    2dee:	08 95       	ret

00002df0 <glcd_BusyCheck>:
    2df0:	0f 93       	push	r16
    2df2:	1f 93       	push	r17
    2df4:	df 93       	push	r29
    2df6:	cf 93       	push	r28
    2df8:	cd b7       	in	r28, 0x3d	; 61
    2dfa:	de b7       	in	r29, 0x3e	; 62
    2dfc:	e2 97       	sbiw	r28, 0x32	; 50
    2dfe:	0f b6       	in	r0, 0x3f	; 63
    2e00:	f8 94       	cli
    2e02:	de bf       	out	0x3e, r29	; 62
    2e04:	0f be       	out	0x3f, r0	; 63
    2e06:	cd bf       	out	0x3d, r28	; 61
    2e08:	8a e0       	ldi	r24, 0x0A	; 10
    2e0a:	89 83       	std	Y+1, r24	; 0x01
    2e0c:	84 e3       	ldi	r24, 0x34	; 52
    2e0e:	90 e0       	ldi	r25, 0x00	; 0
    2e10:	24 e3       	ldi	r18, 0x34	; 52
    2e12:	30 e0       	ldi	r19, 0x00	; 0
    2e14:	f9 01       	movw	r30, r18
    2e16:	20 81       	ld	r18, Z
    2e18:	2f 77       	andi	r18, 0x7F	; 127
    2e1a:	fc 01       	movw	r30, r24
    2e1c:	20 83       	st	Z, r18
    2e1e:	8b e3       	ldi	r24, 0x3B	; 59
    2e20:	90 e0       	ldi	r25, 0x00	; 0
    2e22:	2b e3       	ldi	r18, 0x3B	; 59
    2e24:	30 e0       	ldi	r19, 0x00	; 0
    2e26:	f9 01       	movw	r30, r18
    2e28:	20 81       	ld	r18, Z
    2e2a:	2f 77       	andi	r18, 0x7F	; 127
    2e2c:	fc 01       	movw	r30, r24
    2e2e:	20 83       	st	Z, r18
    2e30:	8b e3       	ldi	r24, 0x3B	; 59
    2e32:	90 e0       	ldi	r25, 0x00	; 0
    2e34:	2b e3       	ldi	r18, 0x3B	; 59
    2e36:	30 e0       	ldi	r19, 0x00	; 0
    2e38:	f9 01       	movw	r30, r18
    2e3a:	20 81       	ld	r18, Z
    2e3c:	20 64       	ori	r18, 0x40	; 64
    2e3e:	fc 01       	movw	r30, r24
    2e40:	20 83       	st	Z, r18
    2e42:	8b e3       	ldi	r24, 0x3B	; 59
    2e44:	90 e0       	ldi	r25, 0x00	; 0
    2e46:	2b e3       	ldi	r18, 0x3B	; 59
    2e48:	30 e0       	ldi	r19, 0x00	; 0
    2e4a:	f9 01       	movw	r30, r18
    2e4c:	20 81       	ld	r18, Z
    2e4e:	2f 7d       	andi	r18, 0xDF	; 223
    2e50:	fc 01       	movw	r30, r24
    2e52:	20 83       	st	Z, r18
    2e54:	80 e0       	ldi	r24, 0x00	; 0
    2e56:	90 e0       	ldi	r25, 0x00	; 0
    2e58:	a0 e0       	ldi	r26, 0x00	; 0
    2e5a:	b0 e4       	ldi	r27, 0x40	; 64
    2e5c:	8b 83       	std	Y+3, r24	; 0x03
    2e5e:	9c 83       	std	Y+4, r25	; 0x04
    2e60:	ad 83       	std	Y+5, r26	; 0x05
    2e62:	be 83       	std	Y+6, r27	; 0x06
    2e64:	6b 81       	ldd	r22, Y+3	; 0x03
    2e66:	7c 81       	ldd	r23, Y+4	; 0x04
    2e68:	8d 81       	ldd	r24, Y+5	; 0x05
    2e6a:	9e 81       	ldd	r25, Y+6	; 0x06
    2e6c:	2b ea       	ldi	r18, 0xAB	; 171
    2e6e:	3a ea       	ldi	r19, 0xAA	; 170
    2e70:	4a ea       	ldi	r20, 0xAA	; 170
    2e72:	5e e3       	ldi	r21, 0x3E	; 62
    2e74:	0e 94 38 2e 	call	0x5c70	; 0x5c70 <__mulsf3>
    2e78:	dc 01       	movw	r26, r24
    2e7a:	cb 01       	movw	r24, r22
    2e7c:	8f 83       	std	Y+7, r24	; 0x07
    2e7e:	98 87       	std	Y+8, r25	; 0x08
    2e80:	a9 87       	std	Y+9, r26	; 0x09
    2e82:	ba 87       	std	Y+10, r27	; 0x0a
    2e84:	11 e0       	ldi	r17, 0x01	; 1
    2e86:	6f 81       	ldd	r22, Y+7	; 0x07
    2e88:	78 85       	ldd	r23, Y+8	; 0x08
    2e8a:	89 85       	ldd	r24, Y+9	; 0x09
    2e8c:	9a 85       	ldd	r25, Y+10	; 0x0a
    2e8e:	20 e0       	ldi	r18, 0x00	; 0
    2e90:	30 e0       	ldi	r19, 0x00	; 0
    2e92:	40 e8       	ldi	r20, 0x80	; 128
    2e94:	5f e3       	ldi	r21, 0x3F	; 63
    2e96:	0e 94 ea 2c 	call	0x59d4	; 0x59d4 <__cmpsf2>
    2e9a:	88 23       	and	r24, r24
    2e9c:	0c f0       	brlt	.+2      	; 0x2ea0 <glcd_BusyCheck+0xb0>
    2e9e:	10 e0       	ldi	r17, 0x00	; 0
    2ea0:	11 23       	and	r17, r17
    2ea2:	19 f0       	breq	.+6      	; 0x2eaa <glcd_BusyCheck+0xba>
    2ea4:	81 e0       	ldi	r24, 0x01	; 1
    2ea6:	8b 87       	std	Y+11, r24	; 0x0b
    2ea8:	a3 c0       	rjmp	.+326    	; 0x2ff0 <glcd_BusyCheck+0x200>
    2eaa:	11 e0       	ldi	r17, 0x01	; 1
    2eac:	6f 81       	ldd	r22, Y+7	; 0x07
    2eae:	78 85       	ldd	r23, Y+8	; 0x08
    2eb0:	89 85       	ldd	r24, Y+9	; 0x09
    2eb2:	9a 85       	ldd	r25, Y+10	; 0x0a
    2eb4:	20 e0       	ldi	r18, 0x00	; 0
    2eb6:	30 e0       	ldi	r19, 0x00	; 0
    2eb8:	4f e7       	ldi	r20, 0x7F	; 127
    2eba:	53 e4       	ldi	r21, 0x43	; 67
    2ebc:	0e 94 34 2e 	call	0x5c68	; 0x5c68 <__gesf2>
    2ec0:	18 16       	cp	r1, r24
    2ec2:	0c f0       	brlt	.+2      	; 0x2ec6 <glcd_BusyCheck+0xd6>
    2ec4:	10 e0       	ldi	r17, 0x00	; 0
    2ec6:	11 23       	and	r17, r17
    2ec8:	09 f4       	brne	.+2      	; 0x2ecc <glcd_BusyCheck+0xdc>
    2eca:	89 c0       	rjmp	.+274    	; 0x2fde <glcd_BusyCheck+0x1ee>
    2ecc:	6b 81       	ldd	r22, Y+3	; 0x03
    2ece:	7c 81       	ldd	r23, Y+4	; 0x04
    2ed0:	8d 81       	ldd	r24, Y+5	; 0x05
    2ed2:	9e 81       	ldd	r25, Y+6	; 0x06
    2ed4:	20 e0       	ldi	r18, 0x00	; 0
    2ed6:	30 e0       	ldi	r19, 0x00	; 0
    2ed8:	4a e7       	ldi	r20, 0x7A	; 122
    2eda:	54 e4       	ldi	r21, 0x44	; 68
    2edc:	0e 94 ee 2c 	call	0x59dc	; 0x59dc <__divsf3>
    2ee0:	dc 01       	movw	r26, r24
    2ee2:	cb 01       	movw	r24, r22
    2ee4:	8c 87       	std	Y+12, r24	; 0x0c
    2ee6:	9d 87       	std	Y+13, r25	; 0x0d
    2ee8:	ae 87       	std	Y+14, r26	; 0x0e
    2eea:	bf 87       	std	Y+15, r27	; 0x0f
    2eec:	6c 85       	ldd	r22, Y+12	; 0x0c
    2eee:	7d 85       	ldd	r23, Y+13	; 0x0d
    2ef0:	8e 85       	ldd	r24, Y+14	; 0x0e
    2ef2:	9f 85       	ldd	r25, Y+15	; 0x0f
    2ef4:	20 e0       	ldi	r18, 0x00	; 0
    2ef6:	30 e0       	ldi	r19, 0x00	; 0
    2ef8:	4a e7       	ldi	r20, 0x7A	; 122
    2efa:	53 e4       	ldi	r21, 0x43	; 67
    2efc:	0e 94 38 2e 	call	0x5c70	; 0x5c70 <__mulsf3>
    2f00:	dc 01       	movw	r26, r24
    2f02:	cb 01       	movw	r24, r22
    2f04:	88 8b       	std	Y+16, r24	; 0x10
    2f06:	99 8b       	std	Y+17, r25	; 0x11
    2f08:	aa 8b       	std	Y+18, r26	; 0x12
    2f0a:	bb 8b       	std	Y+19, r27	; 0x13
    2f0c:	11 e0       	ldi	r17, 0x01	; 1
    2f0e:	68 89       	ldd	r22, Y+16	; 0x10
    2f10:	79 89       	ldd	r23, Y+17	; 0x11
    2f12:	8a 89       	ldd	r24, Y+18	; 0x12
    2f14:	9b 89       	ldd	r25, Y+19	; 0x13
    2f16:	20 e0       	ldi	r18, 0x00	; 0
    2f18:	30 e0       	ldi	r19, 0x00	; 0
    2f1a:	40 e8       	ldi	r20, 0x80	; 128
    2f1c:	5f e3       	ldi	r21, 0x3F	; 63
    2f1e:	0e 94 ea 2c 	call	0x59d4	; 0x59d4 <__cmpsf2>
    2f22:	88 23       	and	r24, r24
    2f24:	0c f0       	brlt	.+2      	; 0x2f28 <glcd_BusyCheck+0x138>
    2f26:	10 e0       	ldi	r17, 0x00	; 0
    2f28:	11 23       	and	r17, r17
    2f2a:	29 f0       	breq	.+10     	; 0x2f36 <glcd_BusyCheck+0x146>
    2f2c:	81 e0       	ldi	r24, 0x01	; 1
    2f2e:	90 e0       	ldi	r25, 0x00	; 0
    2f30:	9d 8b       	std	Y+21, r25	; 0x15
    2f32:	8c 8b       	std	Y+20, r24	; 0x14
    2f34:	46 c0       	rjmp	.+140    	; 0x2fc2 <glcd_BusyCheck+0x1d2>
    2f36:	11 e0       	ldi	r17, 0x01	; 1
    2f38:	68 89       	ldd	r22, Y+16	; 0x10
    2f3a:	79 89       	ldd	r23, Y+17	; 0x11
    2f3c:	8a 89       	ldd	r24, Y+18	; 0x12
    2f3e:	9b 89       	ldd	r25, Y+19	; 0x13
    2f40:	20 e0       	ldi	r18, 0x00	; 0
    2f42:	3f ef       	ldi	r19, 0xFF	; 255
    2f44:	4f e7       	ldi	r20, 0x7F	; 127
    2f46:	57 e4       	ldi	r21, 0x47	; 71
    2f48:	0e 94 34 2e 	call	0x5c68	; 0x5c68 <__gesf2>
    2f4c:	18 16       	cp	r1, r24
    2f4e:	0c f0       	brlt	.+2      	; 0x2f52 <glcd_BusyCheck+0x162>
    2f50:	10 e0       	ldi	r17, 0x00	; 0
    2f52:	11 23       	and	r17, r17
    2f54:	61 f1       	breq	.+88     	; 0x2fae <glcd_BusyCheck+0x1be>
    2f56:	6c 85       	ldd	r22, Y+12	; 0x0c
    2f58:	7d 85       	ldd	r23, Y+13	; 0x0d
    2f5a:	8e 85       	ldd	r24, Y+14	; 0x0e
    2f5c:	9f 85       	ldd	r25, Y+15	; 0x0f
    2f5e:	20 e0       	ldi	r18, 0x00	; 0
    2f60:	30 e0       	ldi	r19, 0x00	; 0
    2f62:	40 e2       	ldi	r20, 0x20	; 32
    2f64:	51 e4       	ldi	r21, 0x41	; 65
    2f66:	0e 94 38 2e 	call	0x5c70	; 0x5c70 <__mulsf3>
    2f6a:	dc 01       	movw	r26, r24
    2f6c:	cb 01       	movw	r24, r22
    2f6e:	bc 01       	movw	r22, r24
    2f70:	cd 01       	movw	r24, r26
    2f72:	0e 94 56 2d 	call	0x5aac	; 0x5aac <__fixunssfsi>
    2f76:	dc 01       	movw	r26, r24
    2f78:	cb 01       	movw	r24, r22
    2f7a:	9d 8b       	std	Y+21, r25	; 0x15
    2f7c:	8c 8b       	std	Y+20, r24	; 0x14
    2f7e:	12 c0       	rjmp	.+36     	; 0x2fa4 <glcd_BusyCheck+0x1b4>
    2f80:	89 e1       	ldi	r24, 0x19	; 25
    2f82:	90 e0       	ldi	r25, 0x00	; 0
    2f84:	9f 8b       	std	Y+23, r25	; 0x17
    2f86:	8e 8b       	std	Y+22, r24	; 0x16
    2f88:	8e 89       	ldd	r24, Y+22	; 0x16
    2f8a:	9f 89       	ldd	r25, Y+23	; 0x17
    2f8c:	8c 01       	movw	r16, r24
    2f8e:	c8 01       	movw	r24, r16
    2f90:	01 97       	sbiw	r24, 0x01	; 1
    2f92:	f1 f7       	brne	.-4      	; 0x2f90 <glcd_BusyCheck+0x1a0>
    2f94:	8c 01       	movw	r16, r24
    2f96:	1f 8b       	std	Y+23, r17	; 0x17
    2f98:	0e 8b       	std	Y+22, r16	; 0x16
    2f9a:	8c 89       	ldd	r24, Y+20	; 0x14
    2f9c:	9d 89       	ldd	r25, Y+21	; 0x15
    2f9e:	01 97       	sbiw	r24, 0x01	; 1
    2fa0:	9d 8b       	std	Y+21, r25	; 0x15
    2fa2:	8c 8b       	std	Y+20, r24	; 0x14
    2fa4:	8c 89       	ldd	r24, Y+20	; 0x14
    2fa6:	9d 89       	ldd	r25, Y+21	; 0x15
    2fa8:	00 97       	sbiw	r24, 0x00	; 0
    2faa:	51 f7       	brne	.-44     	; 0x2f80 <glcd_BusyCheck+0x190>
    2fac:	28 c0       	rjmp	.+80     	; 0x2ffe <glcd_BusyCheck+0x20e>
    2fae:	68 89       	ldd	r22, Y+16	; 0x10
    2fb0:	79 89       	ldd	r23, Y+17	; 0x11
    2fb2:	8a 89       	ldd	r24, Y+18	; 0x12
    2fb4:	9b 89       	ldd	r25, Y+19	; 0x13
    2fb6:	0e 94 56 2d 	call	0x5aac	; 0x5aac <__fixunssfsi>
    2fba:	dc 01       	movw	r26, r24
    2fbc:	cb 01       	movw	r24, r22
    2fbe:	9d 8b       	std	Y+21, r25	; 0x15
    2fc0:	8c 8b       	std	Y+20, r24	; 0x14
    2fc2:	8c 89       	ldd	r24, Y+20	; 0x14
    2fc4:	9d 89       	ldd	r25, Y+21	; 0x15
    2fc6:	99 8f       	std	Y+25, r25	; 0x19
    2fc8:	88 8f       	std	Y+24, r24	; 0x18
    2fca:	88 8d       	ldd	r24, Y+24	; 0x18
    2fcc:	99 8d       	ldd	r25, Y+25	; 0x19
    2fce:	8c 01       	movw	r16, r24
    2fd0:	f8 01       	movw	r30, r16
    2fd2:	31 97       	sbiw	r30, 0x01	; 1
    2fd4:	f1 f7       	brne	.-4      	; 0x2fd2 <glcd_BusyCheck+0x1e2>
    2fd6:	8f 01       	movw	r16, r30
    2fd8:	19 8f       	std	Y+25, r17	; 0x19
    2fda:	08 8f       	std	Y+24, r16	; 0x18
    2fdc:	10 c0       	rjmp	.+32     	; 0x2ffe <glcd_BusyCheck+0x20e>
    2fde:	6f 81       	ldd	r22, Y+7	; 0x07
    2fe0:	78 85       	ldd	r23, Y+8	; 0x08
    2fe2:	89 85       	ldd	r24, Y+9	; 0x09
    2fe4:	9a 85       	ldd	r25, Y+10	; 0x0a
    2fe6:	0e 94 56 2d 	call	0x5aac	; 0x5aac <__fixunssfsi>
    2fea:	dc 01       	movw	r26, r24
    2fec:	cb 01       	movw	r24, r22
    2fee:	8b 87       	std	Y+11, r24	; 0x0b
    2ff0:	8b 85       	ldd	r24, Y+11	; 0x0b
    2ff2:	8a 8f       	std	Y+26, r24	; 0x1a
    2ff4:	8a 8d       	ldd	r24, Y+26	; 0x1a
    2ff6:	18 2f       	mov	r17, r24
    2ff8:	1a 95       	dec	r17
    2ffa:	f1 f7       	brne	.-4      	; 0x2ff8 <glcd_BusyCheck+0x208>
    2ffc:	1a 8f       	std	Y+26, r17	; 0x1a
    2ffe:	8b e3       	ldi	r24, 0x3B	; 59
    3000:	90 e0       	ldi	r25, 0x00	; 0
    3002:	2b e3       	ldi	r18, 0x3B	; 59
    3004:	30 e0       	ldi	r19, 0x00	; 0
    3006:	f9 01       	movw	r30, r18
    3008:	20 81       	ld	r18, Z
    300a:	20 62       	ori	r18, 0x20	; 32
    300c:	fc 01       	movw	r30, r24
    300e:	20 83       	st	Z, r18
    3010:	80 e0       	ldi	r24, 0x00	; 0
    3012:	90 e0       	ldi	r25, 0x00	; 0
    3014:	a0 e0       	ldi	r26, 0x00	; 0
    3016:	b0 e4       	ldi	r27, 0x40	; 64
    3018:	8b 8f       	std	Y+27, r24	; 0x1b
    301a:	9c 8f       	std	Y+28, r25	; 0x1c
    301c:	ad 8f       	std	Y+29, r26	; 0x1d
    301e:	be 8f       	std	Y+30, r27	; 0x1e
    3020:	6b 8d       	ldd	r22, Y+27	; 0x1b
    3022:	7c 8d       	ldd	r23, Y+28	; 0x1c
    3024:	8d 8d       	ldd	r24, Y+29	; 0x1d
    3026:	9e 8d       	ldd	r25, Y+30	; 0x1e
    3028:	2b ea       	ldi	r18, 0xAB	; 171
    302a:	3a ea       	ldi	r19, 0xAA	; 170
    302c:	4a ea       	ldi	r20, 0xAA	; 170
    302e:	5e e3       	ldi	r21, 0x3E	; 62
    3030:	0e 94 38 2e 	call	0x5c70	; 0x5c70 <__mulsf3>
    3034:	dc 01       	movw	r26, r24
    3036:	cb 01       	movw	r24, r22
    3038:	8f 8f       	std	Y+31, r24	; 0x1f
    303a:	98 a3       	std	Y+32, r25	; 0x20
    303c:	a9 a3       	std	Y+33, r26	; 0x21
    303e:	ba a3       	std	Y+34, r27	; 0x22
    3040:	11 e0       	ldi	r17, 0x01	; 1
    3042:	6f 8d       	ldd	r22, Y+31	; 0x1f
    3044:	78 a1       	ldd	r23, Y+32	; 0x20
    3046:	89 a1       	ldd	r24, Y+33	; 0x21
    3048:	9a a1       	ldd	r25, Y+34	; 0x22
    304a:	20 e0       	ldi	r18, 0x00	; 0
    304c:	30 e0       	ldi	r19, 0x00	; 0
    304e:	40 e8       	ldi	r20, 0x80	; 128
    3050:	5f e3       	ldi	r21, 0x3F	; 63
    3052:	0e 94 ea 2c 	call	0x59d4	; 0x59d4 <__cmpsf2>
    3056:	88 23       	and	r24, r24
    3058:	0c f0       	brlt	.+2      	; 0x305c <glcd_BusyCheck+0x26c>
    305a:	10 e0       	ldi	r17, 0x00	; 0
    305c:	11 23       	and	r17, r17
    305e:	19 f0       	breq	.+6      	; 0x3066 <glcd_BusyCheck+0x276>
    3060:	81 e0       	ldi	r24, 0x01	; 1
    3062:	8b a3       	std	Y+35, r24	; 0x23
    3064:	a3 c0       	rjmp	.+326    	; 0x31ac <glcd_BusyCheck+0x3bc>
    3066:	11 e0       	ldi	r17, 0x01	; 1
    3068:	6f 8d       	ldd	r22, Y+31	; 0x1f
    306a:	78 a1       	ldd	r23, Y+32	; 0x20
    306c:	89 a1       	ldd	r24, Y+33	; 0x21
    306e:	9a a1       	ldd	r25, Y+34	; 0x22
    3070:	20 e0       	ldi	r18, 0x00	; 0
    3072:	30 e0       	ldi	r19, 0x00	; 0
    3074:	4f e7       	ldi	r20, 0x7F	; 127
    3076:	53 e4       	ldi	r21, 0x43	; 67
    3078:	0e 94 34 2e 	call	0x5c68	; 0x5c68 <__gesf2>
    307c:	18 16       	cp	r1, r24
    307e:	0c f0       	brlt	.+2      	; 0x3082 <glcd_BusyCheck+0x292>
    3080:	10 e0       	ldi	r17, 0x00	; 0
    3082:	11 23       	and	r17, r17
    3084:	09 f4       	brne	.+2      	; 0x3088 <glcd_BusyCheck+0x298>
    3086:	89 c0       	rjmp	.+274    	; 0x319a <glcd_BusyCheck+0x3aa>
    3088:	6b 8d       	ldd	r22, Y+27	; 0x1b
    308a:	7c 8d       	ldd	r23, Y+28	; 0x1c
    308c:	8d 8d       	ldd	r24, Y+29	; 0x1d
    308e:	9e 8d       	ldd	r25, Y+30	; 0x1e
    3090:	20 e0       	ldi	r18, 0x00	; 0
    3092:	30 e0       	ldi	r19, 0x00	; 0
    3094:	4a e7       	ldi	r20, 0x7A	; 122
    3096:	54 e4       	ldi	r21, 0x44	; 68
    3098:	0e 94 ee 2c 	call	0x59dc	; 0x59dc <__divsf3>
    309c:	dc 01       	movw	r26, r24
    309e:	cb 01       	movw	r24, r22
    30a0:	8c a3       	std	Y+36, r24	; 0x24
    30a2:	9d a3       	std	Y+37, r25	; 0x25
    30a4:	ae a3       	std	Y+38, r26	; 0x26
    30a6:	bf a3       	std	Y+39, r27	; 0x27
    30a8:	6c a1       	ldd	r22, Y+36	; 0x24
    30aa:	7d a1       	ldd	r23, Y+37	; 0x25
    30ac:	8e a1       	ldd	r24, Y+38	; 0x26
    30ae:	9f a1       	ldd	r25, Y+39	; 0x27
    30b0:	20 e0       	ldi	r18, 0x00	; 0
    30b2:	30 e0       	ldi	r19, 0x00	; 0
    30b4:	4a e7       	ldi	r20, 0x7A	; 122
    30b6:	53 e4       	ldi	r21, 0x43	; 67
    30b8:	0e 94 38 2e 	call	0x5c70	; 0x5c70 <__mulsf3>
    30bc:	dc 01       	movw	r26, r24
    30be:	cb 01       	movw	r24, r22
    30c0:	88 a7       	std	Y+40, r24	; 0x28
    30c2:	99 a7       	std	Y+41, r25	; 0x29
    30c4:	aa a7       	std	Y+42, r26	; 0x2a
    30c6:	bb a7       	std	Y+43, r27	; 0x2b
    30c8:	11 e0       	ldi	r17, 0x01	; 1
    30ca:	68 a5       	ldd	r22, Y+40	; 0x28
    30cc:	79 a5       	ldd	r23, Y+41	; 0x29
    30ce:	8a a5       	ldd	r24, Y+42	; 0x2a
    30d0:	9b a5       	ldd	r25, Y+43	; 0x2b
    30d2:	20 e0       	ldi	r18, 0x00	; 0
    30d4:	30 e0       	ldi	r19, 0x00	; 0
    30d6:	40 e8       	ldi	r20, 0x80	; 128
    30d8:	5f e3       	ldi	r21, 0x3F	; 63
    30da:	0e 94 ea 2c 	call	0x59d4	; 0x59d4 <__cmpsf2>
    30de:	88 23       	and	r24, r24
    30e0:	0c f0       	brlt	.+2      	; 0x30e4 <glcd_BusyCheck+0x2f4>
    30e2:	10 e0       	ldi	r17, 0x00	; 0
    30e4:	11 23       	and	r17, r17
    30e6:	29 f0       	breq	.+10     	; 0x30f2 <glcd_BusyCheck+0x302>
    30e8:	81 e0       	ldi	r24, 0x01	; 1
    30ea:	90 e0       	ldi	r25, 0x00	; 0
    30ec:	9d a7       	std	Y+45, r25	; 0x2d
    30ee:	8c a7       	std	Y+44, r24	; 0x2c
    30f0:	46 c0       	rjmp	.+140    	; 0x317e <glcd_BusyCheck+0x38e>
    30f2:	11 e0       	ldi	r17, 0x01	; 1
    30f4:	68 a5       	ldd	r22, Y+40	; 0x28
    30f6:	79 a5       	ldd	r23, Y+41	; 0x29
    30f8:	8a a5       	ldd	r24, Y+42	; 0x2a
    30fa:	9b a5       	ldd	r25, Y+43	; 0x2b
    30fc:	20 e0       	ldi	r18, 0x00	; 0
    30fe:	3f ef       	ldi	r19, 0xFF	; 255
    3100:	4f e7       	ldi	r20, 0x7F	; 127
    3102:	57 e4       	ldi	r21, 0x47	; 71
    3104:	0e 94 34 2e 	call	0x5c68	; 0x5c68 <__gesf2>
    3108:	18 16       	cp	r1, r24
    310a:	0c f0       	brlt	.+2      	; 0x310e <glcd_BusyCheck+0x31e>
    310c:	10 e0       	ldi	r17, 0x00	; 0
    310e:	11 23       	and	r17, r17
    3110:	61 f1       	breq	.+88     	; 0x316a <glcd_BusyCheck+0x37a>
    3112:	6c a1       	ldd	r22, Y+36	; 0x24
    3114:	7d a1       	ldd	r23, Y+37	; 0x25
    3116:	8e a1       	ldd	r24, Y+38	; 0x26
    3118:	9f a1       	ldd	r25, Y+39	; 0x27
    311a:	20 e0       	ldi	r18, 0x00	; 0
    311c:	30 e0       	ldi	r19, 0x00	; 0
    311e:	40 e2       	ldi	r20, 0x20	; 32
    3120:	51 e4       	ldi	r21, 0x41	; 65
    3122:	0e 94 38 2e 	call	0x5c70	; 0x5c70 <__mulsf3>
    3126:	dc 01       	movw	r26, r24
    3128:	cb 01       	movw	r24, r22
    312a:	bc 01       	movw	r22, r24
    312c:	cd 01       	movw	r24, r26
    312e:	0e 94 56 2d 	call	0x5aac	; 0x5aac <__fixunssfsi>
    3132:	dc 01       	movw	r26, r24
    3134:	cb 01       	movw	r24, r22
    3136:	9d a7       	std	Y+45, r25	; 0x2d
    3138:	8c a7       	std	Y+44, r24	; 0x2c
    313a:	12 c0       	rjmp	.+36     	; 0x3160 <glcd_BusyCheck+0x370>
    313c:	89 e1       	ldi	r24, 0x19	; 25
    313e:	90 e0       	ldi	r25, 0x00	; 0
    3140:	9f a7       	std	Y+47, r25	; 0x2f
    3142:	8e a7       	std	Y+46, r24	; 0x2e
    3144:	8e a5       	ldd	r24, Y+46	; 0x2e
    3146:	9f a5       	ldd	r25, Y+47	; 0x2f
    3148:	8c 01       	movw	r16, r24
    314a:	c8 01       	movw	r24, r16
    314c:	01 97       	sbiw	r24, 0x01	; 1
    314e:	f1 f7       	brne	.-4      	; 0x314c <glcd_BusyCheck+0x35c>
    3150:	8c 01       	movw	r16, r24
    3152:	1f a7       	std	Y+47, r17	; 0x2f
    3154:	0e a7       	std	Y+46, r16	; 0x2e
    3156:	8c a5       	ldd	r24, Y+44	; 0x2c
    3158:	9d a5       	ldd	r25, Y+45	; 0x2d
    315a:	01 97       	sbiw	r24, 0x01	; 1
    315c:	9d a7       	std	Y+45, r25	; 0x2d
    315e:	8c a7       	std	Y+44, r24	; 0x2c
    3160:	8c a5       	ldd	r24, Y+44	; 0x2c
    3162:	9d a5       	ldd	r25, Y+45	; 0x2d
    3164:	00 97       	sbiw	r24, 0x00	; 0
    3166:	51 f7       	brne	.-44     	; 0x313c <glcd_BusyCheck+0x34c>
    3168:	28 c0       	rjmp	.+80     	; 0x31ba <glcd_BusyCheck+0x3ca>
    316a:	68 a5       	ldd	r22, Y+40	; 0x28
    316c:	79 a5       	ldd	r23, Y+41	; 0x29
    316e:	8a a5       	ldd	r24, Y+42	; 0x2a
    3170:	9b a5       	ldd	r25, Y+43	; 0x2b
    3172:	0e 94 56 2d 	call	0x5aac	; 0x5aac <__fixunssfsi>
    3176:	dc 01       	movw	r26, r24
    3178:	cb 01       	movw	r24, r22
    317a:	9d a7       	std	Y+45, r25	; 0x2d
    317c:	8c a7       	std	Y+44, r24	; 0x2c
    317e:	8c a5       	ldd	r24, Y+44	; 0x2c
    3180:	9d a5       	ldd	r25, Y+45	; 0x2d
    3182:	99 ab       	std	Y+49, r25	; 0x31
    3184:	88 ab       	std	Y+48, r24	; 0x30
    3186:	88 a9       	ldd	r24, Y+48	; 0x30
    3188:	99 a9       	ldd	r25, Y+49	; 0x31
    318a:	8c 01       	movw	r16, r24
    318c:	f8 01       	movw	r30, r16
    318e:	31 97       	sbiw	r30, 0x01	; 1
    3190:	f1 f7       	brne	.-4      	; 0x318e <glcd_BusyCheck+0x39e>
    3192:	8f 01       	movw	r16, r30
    3194:	19 ab       	std	Y+49, r17	; 0x31
    3196:	08 ab       	std	Y+48, r16	; 0x30
    3198:	10 c0       	rjmp	.+32     	; 0x31ba <glcd_BusyCheck+0x3ca>
    319a:	6f 8d       	ldd	r22, Y+31	; 0x1f
    319c:	78 a1       	ldd	r23, Y+32	; 0x20
    319e:	89 a1       	ldd	r24, Y+33	; 0x21
    31a0:	9a a1       	ldd	r25, Y+34	; 0x22
    31a2:	0e 94 56 2d 	call	0x5aac	; 0x5aac <__fixunssfsi>
    31a6:	dc 01       	movw	r26, r24
    31a8:	cb 01       	movw	r24, r22
    31aa:	8b a3       	std	Y+35, r24	; 0x23
    31ac:	8b a1       	ldd	r24, Y+35	; 0x23
    31ae:	8a ab       	std	Y+50, r24	; 0x32
    31b0:	8a a9       	ldd	r24, Y+50	; 0x32
    31b2:	18 2f       	mov	r17, r24
    31b4:	1a 95       	dec	r17
    31b6:	f1 f7       	brne	.-4      	; 0x31b4 <glcd_BusyCheck+0x3c4>
    31b8:	1a ab       	std	Y+50, r17	; 0x32
    31ba:	83 e3       	ldi	r24, 0x33	; 51
    31bc:	90 e0       	ldi	r25, 0x00	; 0
    31be:	fc 01       	movw	r30, r24
    31c0:	80 81       	ld	r24, Z
    31c2:	88 1f       	adc	r24, r24
    31c4:	88 27       	eor	r24, r24
    31c6:	88 1f       	adc	r24, r24
    31c8:	8a 83       	std	Y+2, r24	; 0x02
    31ca:	8a 81       	ldd	r24, Y+2	; 0x02
    31cc:	88 23       	and	r24, r24
    31ce:	09 f0       	breq	.+2      	; 0x31d2 <glcd_BusyCheck+0x3e2>
    31d0:	38 ce       	rjmp	.-912    	; 0x2e42 <glcd_BusyCheck+0x52>
    31d2:	84 e3       	ldi	r24, 0x34	; 52
    31d4:	90 e0       	ldi	r25, 0x00	; 0
    31d6:	24 e3       	ldi	r18, 0x34	; 52
    31d8:	30 e0       	ldi	r19, 0x00	; 0
    31da:	f9 01       	movw	r30, r18
    31dc:	20 81       	ld	r18, Z
    31de:	20 68       	ori	r18, 0x80	; 128
    31e0:	fc 01       	movw	r30, r24
    31e2:	20 83       	st	Z, r18
    31e4:	e2 96       	adiw	r28, 0x32	; 50
    31e6:	0f b6       	in	r0, 0x3f	; 63
    31e8:	f8 94       	cli
    31ea:	de bf       	out	0x3e, r29	; 62
    31ec:	0f be       	out	0x3f, r0	; 63
    31ee:	cd bf       	out	0x3d, r28	; 61
    31f0:	cf 91       	pop	r28
    31f2:	df 91       	pop	r29
    31f4:	1f 91       	pop	r17
    31f6:	0f 91       	pop	r16
    31f8:	08 95       	ret

000031fa <glcd_SelectPage1>:
    31fa:	df 93       	push	r29
    31fc:	cf 93       	push	r28
    31fe:	cd b7       	in	r28, 0x3d	; 61
    3200:	de b7       	in	r29, 0x3e	; 62
    3202:	8b e3       	ldi	r24, 0x3B	; 59
    3204:	90 e0       	ldi	r25, 0x00	; 0
    3206:	2b e3       	ldi	r18, 0x3B	; 59
    3208:	30 e0       	ldi	r19, 0x00	; 0
    320a:	f9 01       	movw	r30, r18
    320c:	20 81       	ld	r18, Z
    320e:	20 61       	ori	r18, 0x10	; 16
    3210:	fc 01       	movw	r30, r24
    3212:	20 83       	st	Z, r18
    3214:	88 e3       	ldi	r24, 0x38	; 56
    3216:	90 e0       	ldi	r25, 0x00	; 0
    3218:	28 e3       	ldi	r18, 0x38	; 56
    321a:	30 e0       	ldi	r19, 0x00	; 0
    321c:	f9 01       	movw	r30, r18
    321e:	20 81       	ld	r18, Z
    3220:	2d 7f       	andi	r18, 0xFD	; 253
    3222:	fc 01       	movw	r30, r24
    3224:	20 83       	st	Z, r18
    3226:	cf 91       	pop	r28
    3228:	df 91       	pop	r29
    322a:	08 95       	ret

0000322c <glcd_SelectPage0>:
    322c:	df 93       	push	r29
    322e:	cf 93       	push	r28
    3230:	cd b7       	in	r28, 0x3d	; 61
    3232:	de b7       	in	r29, 0x3e	; 62
    3234:	88 e3       	ldi	r24, 0x38	; 56
    3236:	90 e0       	ldi	r25, 0x00	; 0
    3238:	28 e3       	ldi	r18, 0x38	; 56
    323a:	30 e0       	ldi	r19, 0x00	; 0
    323c:	f9 01       	movw	r30, r18
    323e:	20 81       	ld	r18, Z
    3240:	22 60       	ori	r18, 0x02	; 2
    3242:	fc 01       	movw	r30, r24
    3244:	20 83       	st	Z, r18
    3246:	8b e3       	ldi	r24, 0x3B	; 59
    3248:	90 e0       	ldi	r25, 0x00	; 0
    324a:	2b e3       	ldi	r18, 0x3B	; 59
    324c:	30 e0       	ldi	r19, 0x00	; 0
    324e:	f9 01       	movw	r30, r18
    3250:	20 81       	ld	r18, Z
    3252:	2f 7e       	andi	r18, 0xEF	; 239
    3254:	fc 01       	movw	r30, r24
    3256:	20 83       	st	Z, r18
    3258:	cf 91       	pop	r28
    325a:	df 91       	pop	r29
    325c:	08 95       	ret

0000325e <GLCD_DisplayChar32>:
    325e:	ef 92       	push	r14
    3260:	ff 92       	push	r15
    3262:	0f 93       	push	r16
    3264:	1f 93       	push	r17
    3266:	df 93       	push	r29
    3268:	cf 93       	push	r28
    326a:	cd b7       	in	r28, 0x3d	; 61
    326c:	de b7       	in	r29, 0x3e	; 62
    326e:	60 97       	sbiw	r28, 0x10	; 16
    3270:	0f b6       	in	r0, 0x3f	; 63
    3272:	f8 94       	cli
    3274:	de bf       	out	0x3e, r29	; 62
    3276:	0f be       	out	0x3f, r0	; 63
    3278:	cd bf       	out	0x3d, r28	; 61
    327a:	88 8b       	std	Y+16, r24	; 0x10
    327c:	80 91 a9 03 	lds	r24, 0x03A9
    3280:	8d 83       	std	Y+5, r24	; 0x05
    3282:	80 91 a8 03 	lds	r24, 0x03A8
    3286:	8b 83       	std	Y+3, r24	; 0x03
    3288:	1f 86       	std	Y+15, r1	; 0x0f
    328a:	1c 82       	std	Y+4, r1	; 0x04
    328c:	24 e5       	ldi	r18, 0x54	; 84
    328e:	30 e0       	ldi	r19, 0x00	; 0
    3290:	88 89       	ldd	r24, Y+16	; 0x10
    3292:	68 2f       	mov	r22, r24
    3294:	70 e0       	ldi	r23, 0x00	; 0
    3296:	40 e3       	ldi	r20, 0x30	; 48
    3298:	50 e0       	ldi	r21, 0x00	; 0
    329a:	64 9f       	mul	r22, r20
    329c:	c0 01       	movw	r24, r0
    329e:	65 9f       	mul	r22, r21
    32a0:	90 0d       	add	r25, r0
    32a2:	74 9f       	mul	r23, r20
    32a4:	90 0d       	add	r25, r0
    32a6:	11 24       	eor	r1, r1
    32a8:	82 0f       	add	r24, r18
    32aa:	93 1f       	adc	r25, r19
    32ac:	9a 83       	std	Y+2, r25	; 0x02
    32ae:	89 83       	std	Y+1, r24	; 0x01
    32b0:	88 89       	ldd	r24, Y+16	; 0x10
    32b2:	8a 30       	cpi	r24, 0x0A	; 10
    32b4:	b1 f5       	brne	.+108    	; 0x3322 <GLCD_DisplayChar32+0xc4>
    32b6:	01 c0       	rjmp	.+2      	; 0x32ba <GLCD_DisplayChar32+0x5c>
    32b8:	00 00       	nop
    32ba:	8f 85       	ldd	r24, Y+15	; 0x0f
    32bc:	8f 5f       	subi	r24, 0xFF	; 255
    32be:	8f 87       	std	Y+15, r24	; 0x0f
    32c0:	89 81       	ldd	r24, Y+1	; 0x01
    32c2:	9a 81       	ldd	r25, Y+2	; 0x02
    32c4:	9f 83       	std	Y+7, r25	; 0x07
    32c6:	8e 83       	std	Y+6, r24	; 0x06
    32c8:	89 81       	ldd	r24, Y+1	; 0x01
    32ca:	9a 81       	ldd	r25, Y+2	; 0x02
    32cc:	01 96       	adiw	r24, 0x01	; 1
    32ce:	9a 83       	std	Y+2, r25	; 0x02
    32d0:	89 83       	std	Y+1, r24	; 0x01
    32d2:	8e 81       	ldd	r24, Y+6	; 0x06
    32d4:	9f 81       	ldd	r25, Y+7	; 0x07
    32d6:	8c 01       	movw	r16, r24
    32d8:	f8 01       	movw	r30, r16
    32da:	e5 90       	lpm	r14, Z+
    32dc:	f4 90       	lpm	r15, Z+
    32de:	8f 01       	movw	r16, r30
    32e0:	f9 86       	std	Y+9, r15	; 0x09
    32e2:	e8 86       	std	Y+8, r14	; 0x08
    32e4:	1f 83       	std	Y+7, r17	; 0x07
    32e6:	0e 83       	std	Y+6, r16	; 0x06
    32e8:	88 85       	ldd	r24, Y+8	; 0x08
    32ea:	99 85       	ldd	r25, Y+9	; 0x09
    32ec:	8a 87       	std	Y+10, r24	; 0x0a
    32ee:	8a 85       	ldd	r24, Y+10	; 0x0a
    32f0:	0e 94 dd 15 	call	0x2bba	; 0x2bba <glcd_DataWrite>
    32f4:	8f 85       	ldd	r24, Y+15	; 0x0f
    32f6:	88 31       	cpi	r24, 0x18	; 24
    32f8:	08 f0       	brcs	.+2      	; 0x32fc <GLCD_DisplayChar32+0x9e>
    32fa:	68 c0       	rjmp	.+208    	; 0x33cc <GLCD_DisplayChar32+0x16e>
    32fc:	8f 85       	ldd	r24, Y+15	; 0x0f
    32fe:	96 e0       	ldi	r25, 0x06	; 6
    3300:	69 2f       	mov	r22, r25
    3302:	0e 94 ba 2e 	call	0x5d74	; 0x5d74 <__udivmodqi4>
    3306:	89 2f       	mov	r24, r25
    3308:	88 23       	and	r24, r24
    330a:	b1 f6       	brne	.-84     	; 0x32b8 <GLCD_DisplayChar32+0x5a>
    330c:	8b 81       	ldd	r24, Y+3	; 0x03
    330e:	8f 5f       	subi	r24, 0xFF	; 255
    3310:	8b 83       	std	Y+3, r24	; 0x03
    3312:	8d 81       	ldd	r24, Y+5	; 0x05
    3314:	0e 94 c5 14 	call	0x298a	; 0x298a <glcd_CmdWrite>
    3318:	8b 81       	ldd	r24, Y+3	; 0x03
    331a:	0e 94 c5 14 	call	0x298a	; 0x298a <glcd_CmdWrite>
    331e:	cd cf       	rjmp	.-102    	; 0x32ba <GLCD_DisplayChar32+0x5c>
    3320:	00 00       	nop
    3322:	8f 85       	ldd	r24, Y+15	; 0x0f
    3324:	8f 5f       	subi	r24, 0xFF	; 255
    3326:	8f 87       	std	Y+15, r24	; 0x0f
    3328:	89 81       	ldd	r24, Y+1	; 0x01
    332a:	9a 81       	ldd	r25, Y+2	; 0x02
    332c:	9c 87       	std	Y+12, r25	; 0x0c
    332e:	8b 87       	std	Y+11, r24	; 0x0b
    3330:	89 81       	ldd	r24, Y+1	; 0x01
    3332:	9a 81       	ldd	r25, Y+2	; 0x02
    3334:	01 96       	adiw	r24, 0x01	; 1
    3336:	9a 83       	std	Y+2, r25	; 0x02
    3338:	89 83       	std	Y+1, r24	; 0x01
    333a:	8b 85       	ldd	r24, Y+11	; 0x0b
    333c:	9c 85       	ldd	r25, Y+12	; 0x0c
    333e:	8c 01       	movw	r16, r24
    3340:	f8 01       	movw	r30, r16
    3342:	e5 90       	lpm	r14, Z+
    3344:	f4 90       	lpm	r15, Z+
    3346:	8f 01       	movw	r16, r30
    3348:	fe 86       	std	Y+14, r15	; 0x0e
    334a:	ed 86       	std	Y+13, r14	; 0x0d
    334c:	1c 87       	std	Y+12, r17	; 0x0c
    334e:	0b 87       	std	Y+11, r16	; 0x0b
    3350:	8d 85       	ldd	r24, Y+13	; 0x0d
    3352:	9e 85       	ldd	r25, Y+14	; 0x0e
    3354:	8a 87       	std	Y+10, r24	; 0x0a
    3356:	8a 85       	ldd	r24, Y+10	; 0x0a
    3358:	0e 94 dd 15 	call	0x2bba	; 0x2bba <glcd_DataWrite>
    335c:	80 91 a9 03 	lds	r24, 0x03A9
    3360:	8f 5f       	subi	r24, 0xFF	; 255
    3362:	80 93 a9 03 	sts	0x03A9, r24
    3366:	80 91 a9 03 	lds	r24, 0x03A9
    336a:	91 e0       	ldi	r25, 0x01	; 1
    336c:	80 38       	cpi	r24, 0x80	; 128
    336e:	09 f0       	breq	.+2      	; 0x3372 <GLCD_DisplayChar32+0x114>
    3370:	90 e0       	ldi	r25, 0x00	; 0
    3372:	20 91 a7 03 	lds	r18, 0x03A7
    3376:	81 e0       	ldi	r24, 0x01	; 1
    3378:	22 23       	and	r18, r18
    337a:	09 f0       	breq	.+2      	; 0x337e <GLCD_DisplayChar32+0x120>
    337c:	80 e0       	ldi	r24, 0x00	; 0
    337e:	89 23       	and	r24, r25
    3380:	88 23       	and	r24, r24
    3382:	29 f0       	breq	.+10     	; 0x338e <GLCD_DisplayChar32+0x130>
    3384:	81 e0       	ldi	r24, 0x01	; 1
    3386:	0e 94 f7 0e 	call	0x1dee	; 0x1dee <GLCD_GoToPage>
    338a:	81 e0       	ldi	r24, 0x01	; 1
    338c:	8c 83       	std	Y+4, r24	; 0x04
    338e:	8f 85       	ldd	r24, Y+15	; 0x0f
    3390:	80 33       	cpi	r24, 0x30	; 48
    3392:	f0 f4       	brcc	.+60     	; 0x33d0 <GLCD_DisplayChar32+0x172>
    3394:	8f 85       	ldd	r24, Y+15	; 0x0f
    3396:	8f 70       	andi	r24, 0x0F	; 15
    3398:	88 23       	and	r24, r24
    339a:	09 f0       	breq	.+2      	; 0x339e <GLCD_DisplayChar32+0x140>
    339c:	c1 cf       	rjmp	.-126    	; 0x3320 <GLCD_DisplayChar32+0xc2>
    339e:	8b 81       	ldd	r24, Y+3	; 0x03
    33a0:	8f 5f       	subi	r24, 0xFF	; 255
    33a2:	8b 83       	std	Y+3, r24	; 0x03
    33a4:	8c 81       	ldd	r24, Y+4	; 0x04
    33a6:	88 23       	and	r24, r24
    33a8:	21 f0       	breq	.+8      	; 0x33b2 <GLCD_DisplayChar32+0x154>
    33aa:	80 e0       	ldi	r24, 0x00	; 0
    33ac:	0e 94 f7 0e 	call	0x1dee	; 0x1dee <GLCD_GoToPage>
    33b0:	1c 82       	std	Y+4, r1	; 0x04
    33b2:	8d 81       	ldd	r24, Y+5	; 0x05
    33b4:	80 93 a9 03 	sts	0x03A9, r24
    33b8:	8b 81       	ldd	r24, Y+3	; 0x03
    33ba:	80 93 a8 03 	sts	0x03A8, r24
    33be:	8d 81       	ldd	r24, Y+5	; 0x05
    33c0:	0e 94 c5 14 	call	0x298a	; 0x298a <glcd_CmdWrite>
    33c4:	8b 81       	ldd	r24, Y+3	; 0x03
    33c6:	0e 94 c5 14 	call	0x298a	; 0x298a <glcd_CmdWrite>
    33ca:	ab cf       	rjmp	.-170    	; 0x3322 <GLCD_DisplayChar32+0xc4>
    33cc:	00 00       	nop
    33ce:	01 c0       	rjmp	.+2      	; 0x33d2 <GLCD_DisplayChar32+0x174>
    33d0:	00 00       	nop
    33d2:	60 96       	adiw	r28, 0x10	; 16
    33d4:	0f b6       	in	r0, 0x3f	; 63
    33d6:	f8 94       	cli
    33d8:	de bf       	out	0x3e, r29	; 62
    33da:	0f be       	out	0x3f, r0	; 63
    33dc:	cd bf       	out	0x3d, r28	; 61
    33de:	cf 91       	pop	r28
    33e0:	df 91       	pop	r29
    33e2:	1f 91       	pop	r17
    33e4:	0f 91       	pop	r16
    33e6:	ff 90       	pop	r15
    33e8:	ef 90       	pop	r14
    33ea:	08 95       	ret

000033ec <GLCD_ShowUS>:
    33ec:	df 93       	push	r29
    33ee:	cf 93       	push	r28
    33f0:	cd b7       	in	r28, 0x3d	; 61
    33f2:	de b7       	in	r29, 0x3e	; 62
    33f4:	81 e0       	ldi	r24, 0x01	; 1
    33f6:	62 e0       	ldi	r22, 0x02	; 2
    33f8:	40 e3       	ldi	r20, 0x30	; 48
    33fa:	0e 94 99 0e 	call	0x1d32	; 0x1d32 <GLCD_SetCursor>
    33fe:	8b e0       	ldi	r24, 0x0B	; 11
    3400:	0e 94 2f 19 	call	0x325e	; 0x325e <GLCD_DisplayChar32>
    3404:	cf 91       	pop	r28
    3406:	df 91       	pop	r29
    3408:	08 95       	ret

0000340a <GLCD_ShowMOhm>:
    340a:	df 93       	push	r29
    340c:	cf 93       	push	r28
    340e:	cd b7       	in	r28, 0x3d	; 61
    3410:	de b7       	in	r29, 0x3e	; 62
    3412:	81 e0       	ldi	r24, 0x01	; 1
    3414:	62 e0       	ldi	r22, 0x02	; 2
    3416:	40 e3       	ldi	r20, 0x30	; 48
    3418:	0e 94 99 0e 	call	0x1d32	; 0x1d32 <GLCD_SetCursor>
    341c:	8c e0       	ldi	r24, 0x0C	; 12
    341e:	0e 94 2f 19 	call	0x325e	; 0x325e <GLCD_DisplayChar32>
    3422:	cf 91       	pop	r28
    3424:	df 91       	pop	r29
    3426:	08 95       	ret

00003428 <GPIO_Init>:
    3428:	df 93       	push	r29
    342a:	cf 93       	push	r28
    342c:	cd b7       	in	r28, 0x3d	; 61
    342e:	de b7       	in	r29, 0x3e	; 62
    3430:	87 e3       	ldi	r24, 0x37	; 55
    3432:	90 e0       	ldi	r25, 0x00	; 0
    3434:	27 e3       	ldi	r18, 0x37	; 55
    3436:	30 e0       	ldi	r19, 0x00	; 0
    3438:	f9 01       	movw	r30, r18
    343a:	20 81       	ld	r18, Z
    343c:	2f 79       	andi	r18, 0x9F	; 159
    343e:	fc 01       	movw	r30, r24
    3440:	20 83       	st	Z, r18
    3442:	88 e3       	ldi	r24, 0x38	; 56
    3444:	90 e0       	ldi	r25, 0x00	; 0
    3446:	28 e3       	ldi	r18, 0x38	; 56
    3448:	30 e0       	ldi	r19, 0x00	; 0
    344a:	f9 01       	movw	r30, r18
    344c:	20 81       	ld	r18, Z
    344e:	20 66       	ori	r18, 0x60	; 96
    3450:	fc 01       	movw	r30, r24
    3452:	20 83       	st	Z, r18
    3454:	81 e3       	ldi	r24, 0x31	; 49
    3456:	90 e0       	ldi	r25, 0x00	; 0
    3458:	21 e3       	ldi	r18, 0x31	; 49
    345a:	30 e0       	ldi	r19, 0x00	; 0
    345c:	f9 01       	movw	r30, r18
    345e:	20 81       	ld	r18, Z
    3460:	2e 7f       	andi	r18, 0xFE	; 254
    3462:	fc 01       	movw	r30, r24
    3464:	20 83       	st	Z, r18
    3466:	82 e3       	ldi	r24, 0x32	; 50
    3468:	90 e0       	ldi	r25, 0x00	; 0
    346a:	22 e3       	ldi	r18, 0x32	; 50
    346c:	30 e0       	ldi	r19, 0x00	; 0
    346e:	f9 01       	movw	r30, r18
    3470:	20 81       	ld	r18, Z
    3472:	21 60       	ori	r18, 0x01	; 1
    3474:	fc 01       	movw	r30, r24
    3476:	20 83       	st	Z, r18
    3478:	cf 91       	pop	r28
    347a:	df 91       	pop	r29
    347c:	08 95       	ret

0000347e <Low_Pressure>:
    347e:	df 93       	push	r29
    3480:	cf 93       	push	r28
    3482:	cd b7       	in	r28, 0x3d	; 61
    3484:	de b7       	in	r29, 0x3e	; 62
    3486:	86 e3       	ldi	r24, 0x36	; 54
    3488:	90 e0       	ldi	r25, 0x00	; 0
    348a:	fc 01       	movw	r30, r24
    348c:	80 81       	ld	r24, Z
    348e:	80 72       	andi	r24, 0x20	; 32
    3490:	cf 91       	pop	r28
    3492:	df 91       	pop	r29
    3494:	08 95       	ret

00003496 <Tank_Full>:
    3496:	df 93       	push	r29
    3498:	cf 93       	push	r28
    349a:	cd b7       	in	r28, 0x3d	; 61
    349c:	de b7       	in	r29, 0x3e	; 62
    349e:	86 e3       	ldi	r24, 0x36	; 54
    34a0:	90 e0       	ldi	r25, 0x00	; 0
    34a2:	fc 01       	movw	r30, r24
    34a4:	80 81       	ld	r24, Z
    34a6:	80 74       	andi	r24, 0x40	; 64
    34a8:	cf 91       	pop	r28
    34aa:	df 91       	pop	r29
    34ac:	08 95       	ret

000034ae <Grade2Flow>:
    34ae:	df 93       	push	r29
    34b0:	cf 93       	push	r28
    34b2:	cd b7       	in	r28, 0x3d	; 61
    34b4:	de b7       	in	r29, 0x3e	; 62
    34b6:	80 e3       	ldi	r24, 0x30	; 48
    34b8:	90 e0       	ldi	r25, 0x00	; 0
    34ba:	fc 01       	movw	r30, r24
    34bc:	80 81       	ld	r24, Z
    34be:	88 2f       	mov	r24, r24
    34c0:	90 e0       	ldi	r25, 0x00	; 0
    34c2:	81 70       	andi	r24, 0x01	; 1
    34c4:	90 70       	andi	r25, 0x00	; 0
    34c6:	21 e0       	ldi	r18, 0x01	; 1
    34c8:	00 97       	sbiw	r24, 0x00	; 0
    34ca:	09 f0       	breq	.+2      	; 0x34ce <Grade2Flow+0x20>
    34cc:	20 e0       	ldi	r18, 0x00	; 0
    34ce:	82 2f       	mov	r24, r18
    34d0:	cf 91       	pop	r28
    34d2:	df 91       	pop	r29
    34d4:	08 95       	ret

000034d6 <main>:
    34d6:	df 93       	push	r29
    34d8:	cf 93       	push	r28
    34da:	00 d0       	rcall	.+0      	; 0x34dc <main+0x6>
    34dc:	cd b7       	in	r28, 0x3d	; 61
    34de:	de b7       	in	r29, 0x3e	; 62
    34e0:	78 94       	sei
    34e2:	0e 94 f5 26 	call	0x4dea	; 0x4dea <HC595_Init>
    34e6:	80 91 07 01 	lds	r24, 0x0107
    34ea:	90 91 08 01 	lds	r25, 0x0108
    34ee:	0e 94 4e 27 	call	0x4e9c	; 0x4e9c <HC595_Write>
    34f2:	0e 94 0d 0d 	call	0x1a1a	; 0x1a1a <GLCD_Init>
    34f6:	0e 94 73 26 	call	0x4ce6	; 0x4ce6 <PWM_Init>
    34fa:	0e 94 ec 2b 	call	0x57d8	; 0x57d8 <UART_Init>
    34fe:	0e 94 c2 03 	call	0x784	; 0x784 <ADC_Init>
    3502:	0e 94 64 2b 	call	0x56c8	; 0x56c8 <TIMER_Init>
    3506:	0e 94 6e 0b 	call	0x16dc	; 0x16dc <EEPROM_Init>
    350a:	0e 94 14 1a 	call	0x3428	; 0x3428 <GPIO_Init>
    350e:	1a 82       	std	Y+2, r1	; 0x02
    3510:	19 82       	std	Y+1, r1	; 0x01
    3512:	07 c0       	rjmp	.+14     	; 0x3522 <main+0x4c>
    3514:	0e 94 52 06 	call	0xca4	; 0xca4 <BTN_Check>
    3518:	89 81       	ldd	r24, Y+1	; 0x01
    351a:	9a 81       	ldd	r25, Y+2	; 0x02
    351c:	01 96       	adiw	r24, 0x01	; 1
    351e:	9a 83       	std	Y+2, r25	; 0x02
    3520:	89 83       	std	Y+1, r24	; 0x01
    3522:	89 81       	ldd	r24, Y+1	; 0x01
    3524:	9a 81       	ldd	r25, Y+2	; 0x02
    3526:	21 e0       	ldi	r18, 0x01	; 1
    3528:	84 3f       	cpi	r24, 0xF4	; 244
    352a:	92 07       	cpc	r25, r18
    352c:	98 f3       	brcs	.-26     	; 0x3514 <main+0x3e>
    352e:	10 92 0b 01 	sts	0x010B, r1
    3532:	0b c0       	rjmp	.+22     	; 0x354a <main+0x74>
    3534:	0e 94 52 06 	call	0xca4	; 0xca4 <BTN_Check>
    3538:	80 91 a2 03 	lds	r24, 0x03A2
    353c:	88 23       	and	r24, r24
    353e:	29 f0       	breq	.+10     	; 0x354a <main+0x74>
    3540:	10 92 a2 03 	sts	0x03A2, r1
    3544:	80 e0       	ldi	r24, 0x00	; 0
    3546:	0e 94 23 1d 	call	0x3a46	; 0x3a46 <MENU_Process>
    354a:	80 91 81 03 	lds	r24, 0x0381
    354e:	88 23       	and	r24, r24
    3550:	89 f7       	brne	.-30     	; 0x3534 <main+0x5e>
    3552:	0e 94 a5 27 	call	0x4f4a	; 0x4f4a <STATE_Init>
    3556:	0e 94 16 07 	call	0xe2c	; 0xe2c <COND_Init>
    355a:	01 c0       	rjmp	.+2      	; 0x355e <main+0x88>
    355c:	00 00       	nop
    355e:	0e 94 52 06 	call	0xca4	; 0xca4 <BTN_Check>
    3562:	80 91 a2 03 	lds	r24, 0x03A2
    3566:	88 23       	and	r24, r24
    3568:	c9 f3       	breq	.-14     	; 0x355c <main+0x86>
    356a:	0e 94 94 26 	call	0x4d28	; 0x4d28 <PWM_Set>
    356e:	80 91 b5 03 	lds	r24, 0x03B5
    3572:	90 91 b6 03 	lds	r25, 0x03B6
    3576:	a0 91 b7 03 	lds	r26, 0x03B7
    357a:	b0 91 b8 03 	lds	r27, 0x03B8
    357e:	00 97       	sbiw	r24, 0x00	; 0
    3580:	a1 05       	cpc	r26, r1
    3582:	b1 05       	cpc	r27, r1
    3584:	99 f0       	breq	.+38     	; 0x35ac <main+0xd6>
    3586:	80 91 b5 03 	lds	r24, 0x03B5
    358a:	90 91 b6 03 	lds	r25, 0x03B6
    358e:	a0 91 b7 03 	lds	r26, 0x03B7
    3592:	b0 91 b8 03 	lds	r27, 0x03B8
    3596:	01 97       	sbiw	r24, 0x01	; 1
    3598:	a1 09       	sbc	r26, r1
    359a:	b1 09       	sbc	r27, r1
    359c:	80 93 b5 03 	sts	0x03B5, r24
    35a0:	90 93 b6 03 	sts	0x03B6, r25
    35a4:	a0 93 b7 03 	sts	0x03B7, r26
    35a8:	b0 93 b8 03 	sts	0x03B8, r27
    35ac:	80 91 9e 03 	lds	r24, 0x039E
    35b0:	90 91 9f 03 	lds	r25, 0x039F
    35b4:	a0 91 a0 03 	lds	r26, 0x03A0
    35b8:	b0 91 a1 03 	lds	r27, 0x03A1
    35bc:	00 97       	sbiw	r24, 0x00	; 0
    35be:	a1 05       	cpc	r26, r1
    35c0:	b1 05       	cpc	r27, r1
    35c2:	99 f0       	breq	.+38     	; 0x35ea <main+0x114>
    35c4:	80 91 9e 03 	lds	r24, 0x039E
    35c8:	90 91 9f 03 	lds	r25, 0x039F
    35cc:	a0 91 a0 03 	lds	r26, 0x03A0
    35d0:	b0 91 a1 03 	lds	r27, 0x03A1
    35d4:	01 97       	sbiw	r24, 0x01	; 1
    35d6:	a1 09       	sbc	r26, r1
    35d8:	b1 09       	sbc	r27, r1
    35da:	80 93 9e 03 	sts	0x039E, r24
    35de:	90 93 9f 03 	sts	0x039F, r25
    35e2:	a0 93 a0 03 	sts	0x03A0, r26
    35e6:	b0 93 a1 03 	sts	0x03A1, r27
    35ea:	80 91 af 03 	lds	r24, 0x03AF
    35ee:	90 91 b0 03 	lds	r25, 0x03B0
    35f2:	a0 91 b1 03 	lds	r26, 0x03B1
    35f6:	b0 91 b2 03 	lds	r27, 0x03B2
    35fa:	00 97       	sbiw	r24, 0x00	; 0
    35fc:	a1 05       	cpc	r26, r1
    35fe:	b1 05       	cpc	r27, r1
    3600:	99 f0       	breq	.+38     	; 0x3628 <main+0x152>
    3602:	80 91 af 03 	lds	r24, 0x03AF
    3606:	90 91 b0 03 	lds	r25, 0x03B0
    360a:	a0 91 b1 03 	lds	r26, 0x03B1
    360e:	b0 91 b2 03 	lds	r27, 0x03B2
    3612:	01 97       	sbiw	r24, 0x01	; 1
    3614:	a1 09       	sbc	r26, r1
    3616:	b1 09       	sbc	r27, r1
    3618:	80 93 af 03 	sts	0x03AF, r24
    361c:	90 93 b0 03 	sts	0x03B0, r25
    3620:	a0 93 b1 03 	sts	0x03B1, r26
    3624:	b0 93 b2 03 	sts	0x03B2, r27
    3628:	10 92 a2 03 	sts	0x03A2, r1
    362c:	0e 94 b6 27 	call	0x4f6c	; 0x4f6c <STATE_Check>
    3630:	80 91 7c 03 	lds	r24, 0x037C
    3634:	88 23       	and	r24, r24
    3636:	11 f0       	breq	.+4      	; 0x363c <main+0x166>
    3638:	0e 94 8b 0c 	call	0x1916	; 0x1916 <ERROR_Check>
    363c:	80 91 80 03 	lds	r24, 0x0380
    3640:	88 23       	and	r24, r24
    3642:	21 f4       	brne	.+8      	; 0x364c <main+0x176>
    3644:	0e 94 38 26 	call	0x4c70	; 0x4c70 <MENU_Status_Header2>
    3648:	0e 94 da 20 	call	0x41b4	; 0x41b4 <MENU_Status>
    364c:	80 91 08 01 	lds	r24, 0x0108
    3650:	82 95       	swap	r24
    3652:	86 95       	lsr	r24
    3654:	86 95       	lsr	r24
    3656:	83 70       	andi	r24, 0x03	; 3
    3658:	81 70       	andi	r24, 0x01	; 1
    365a:	98 2f       	mov	r25, r24
    365c:	81 e0       	ldi	r24, 0x01	; 1
    365e:	89 27       	eor	r24, r25
    3660:	81 70       	andi	r24, 0x01	; 1
    3662:	81 70       	andi	r24, 0x01	; 1
    3664:	82 95       	swap	r24
    3666:	88 0f       	add	r24, r24
    3668:	88 0f       	add	r24, r24
    366a:	80 7c       	andi	r24, 0xC0	; 192
    366c:	90 91 08 01 	lds	r25, 0x0108
    3670:	9f 7b       	andi	r25, 0xBF	; 191
    3672:	89 2b       	or	r24, r25
    3674:	80 93 08 01 	sts	0x0108, r24
    3678:	80 91 07 01 	lds	r24, 0x0107
    367c:	90 91 08 01 	lds	r25, 0x0108
    3680:	0e 94 4e 27 	call	0x4e9c	; 0x4e9c <HC595_Write>
    3684:	6c cf       	rjmp	.-296    	; 0x355e <main+0x88>

00003686 <MENU_Draw>:
    3686:	df 93       	push	r29
    3688:	cf 93       	push	r28
    368a:	0f 92       	push	r0
    368c:	cd b7       	in	r28, 0x3d	; 61
    368e:	de b7       	in	r29, 0x3e	; 62
    3690:	20 91 5f 02 	lds	r18, 0x025F
    3694:	30 91 60 02 	lds	r19, 0x0260
    3698:	80 91 85 03 	lds	r24, 0x0385
    369c:	90 91 86 03 	lds	r25, 0x0386
    36a0:	28 17       	cp	r18, r24
    36a2:	39 07       	cpc	r19, r25
    36a4:	09 f0       	breq	.+2      	; 0x36a8 <MENU_Draw+0x22>
    36a6:	41 c0       	rjmp	.+130    	; 0x372a <MENU_Draw+0xa4>
    36a8:	80 91 5f 02 	lds	r24, 0x025F
    36ac:	90 91 60 02 	lds	r25, 0x0260
    36b0:	fc 01       	movw	r30, r24
    36b2:	84 81       	ldd	r24, Z+4	; 0x04
    36b4:	8e 5f       	subi	r24, 0xFE	; 254
    36b6:	0e 94 1d 0f 	call	0x1e3a	; 0x1e3a <GLCD_GoToLine>
    36ba:	0e 94 47 0f 	call	0x1e8e	; 0x1e8e <GLCD_EnableDisplayInversion>
    36be:	20 91 5f 02 	lds	r18, 0x025F
    36c2:	30 91 60 02 	lds	r19, 0x0260
    36c6:	80 91 5f 02 	lds	r24, 0x025F
    36ca:	90 91 60 02 	lds	r25, 0x0260
    36ce:	fc 01       	movw	r30, r24
    36d0:	84 81       	ldd	r24, Z+4	; 0x04
    36d2:	88 2f       	mov	r24, r24
    36d4:	90 e0       	ldi	r25, 0x00	; 0
    36d6:	88 0f       	add	r24, r24
    36d8:	99 1f       	adc	r25, r25
    36da:	82 0f       	add	r24, r18
    36dc:	93 1f       	adc	r25, r19
    36de:	05 96       	adiw	r24, 0x05	; 5
    36e0:	fc 01       	movw	r30, r24
    36e2:	80 81       	ld	r24, Z
    36e4:	91 81       	ldd	r25, Z+1	; 0x01
    36e6:	fc 01       	movw	r30, r24
    36e8:	82 81       	ldd	r24, Z+2	; 0x02
    36ea:	93 81       	ldd	r25, Z+3	; 0x03
    36ec:	0e 94 bd 0f 	call	0x1f7a	; 0x1f7a <GLCD_DisplayString>
    36f0:	0e 94 51 0f 	call	0x1ea2	; 0x1ea2 <GLCD_DisableDisplayInversion>
    36f4:	80 91 07 03 	lds	r24, 0x0307
    36f8:	8e 5f       	subi	r24, 0xFE	; 254
    36fa:	0e 94 1d 0f 	call	0x1e3a	; 0x1e3a <GLCD_GoToLine>
    36fe:	20 91 5f 02 	lds	r18, 0x025F
    3702:	30 91 60 02 	lds	r19, 0x0260
    3706:	80 91 07 03 	lds	r24, 0x0307
    370a:	88 2f       	mov	r24, r24
    370c:	90 e0       	ldi	r25, 0x00	; 0
    370e:	88 0f       	add	r24, r24
    3710:	99 1f       	adc	r25, r25
    3712:	82 0f       	add	r24, r18
    3714:	93 1f       	adc	r25, r19
    3716:	05 96       	adiw	r24, 0x05	; 5
    3718:	fc 01       	movw	r30, r24
    371a:	80 81       	ld	r24, Z
    371c:	91 81       	ldd	r25, Z+1	; 0x01
    371e:	fc 01       	movw	r30, r24
    3720:	82 81       	ldd	r24, Z+2	; 0x02
    3722:	93 81       	ldd	r25, Z+3	; 0x03
    3724:	0e 94 bd 0f 	call	0x1f7a	; 0x1f7a <GLCD_DisplayString>
    3728:	69 c0       	rjmp	.+210    	; 0x37fc <MENU_Draw+0x176>
    372a:	0e 94 66 0e 	call	0x1ccc	; 0x1ccc <GLCD_Clear>
    372e:	80 e0       	ldi	r24, 0x00	; 0
    3730:	0e 94 1d 0f 	call	0x1e3a	; 0x1e3a <GLCD_GoToLine>
    3734:	80 91 5f 02 	lds	r24, 0x025F
    3738:	90 91 60 02 	lds	r25, 0x0260
    373c:	fc 01       	movw	r30, r24
    373e:	82 81       	ldd	r24, Z+2	; 0x02
    3740:	93 81       	ldd	r25, Z+3	; 0x03
    3742:	0e 94 bd 0f 	call	0x1f7a	; 0x1f7a <GLCD_DisplayString>
    3746:	19 82       	std	Y+1, r1	; 0x01
    3748:	55 c0       	rjmp	.+170    	; 0x37f4 <MENU_Draw+0x16e>
    374a:	20 91 5f 02 	lds	r18, 0x025F
    374e:	30 91 60 02 	lds	r19, 0x0260
    3752:	89 81       	ldd	r24, Y+1	; 0x01
    3754:	88 2f       	mov	r24, r24
    3756:	90 e0       	ldi	r25, 0x00	; 0
    3758:	88 0f       	add	r24, r24
    375a:	99 1f       	adc	r25, r25
    375c:	82 0f       	add	r24, r18
    375e:	93 1f       	adc	r25, r19
    3760:	05 96       	adiw	r24, 0x05	; 5
    3762:	fc 01       	movw	r30, r24
    3764:	80 81       	ld	r24, Z
    3766:	91 81       	ldd	r25, Z+1	; 0x01
    3768:	00 97       	sbiw	r24, 0x00	; 0
    376a:	09 f4       	brne	.+2      	; 0x376e <MENU_Draw+0xe8>
    376c:	3f c0       	rjmp	.+126    	; 0x37ec <MENU_Draw+0x166>
    376e:	80 91 5f 02 	lds	r24, 0x025F
    3772:	90 91 60 02 	lds	r25, 0x0260
    3776:	fc 01       	movw	r30, r24
    3778:	94 81       	ldd	r25, Z+4	; 0x04
    377a:	89 81       	ldd	r24, Y+1	; 0x01
    377c:	98 17       	cp	r25, r24
    377e:	e9 f4       	brne	.+58     	; 0x37ba <MENU_Draw+0x134>
    3780:	0e 94 47 0f 	call	0x1e8e	; 0x1e8e <GLCD_EnableDisplayInversion>
    3784:	89 81       	ldd	r24, Y+1	; 0x01
    3786:	8e 5f       	subi	r24, 0xFE	; 254
    3788:	0e 94 1d 0f 	call	0x1e3a	; 0x1e3a <GLCD_GoToLine>
    378c:	20 91 5f 02 	lds	r18, 0x025F
    3790:	30 91 60 02 	lds	r19, 0x0260
    3794:	89 81       	ldd	r24, Y+1	; 0x01
    3796:	88 2f       	mov	r24, r24
    3798:	90 e0       	ldi	r25, 0x00	; 0
    379a:	88 0f       	add	r24, r24
    379c:	99 1f       	adc	r25, r25
    379e:	82 0f       	add	r24, r18
    37a0:	93 1f       	adc	r25, r19
    37a2:	05 96       	adiw	r24, 0x05	; 5
    37a4:	fc 01       	movw	r30, r24
    37a6:	80 81       	ld	r24, Z
    37a8:	91 81       	ldd	r25, Z+1	; 0x01
    37aa:	fc 01       	movw	r30, r24
    37ac:	82 81       	ldd	r24, Z+2	; 0x02
    37ae:	93 81       	ldd	r25, Z+3	; 0x03
    37b0:	0e 94 bd 0f 	call	0x1f7a	; 0x1f7a <GLCD_DisplayString>
    37b4:	0e 94 51 0f 	call	0x1ea2	; 0x1ea2 <GLCD_DisableDisplayInversion>
    37b8:	1a c0       	rjmp	.+52     	; 0x37ee <MENU_Draw+0x168>
    37ba:	89 81       	ldd	r24, Y+1	; 0x01
    37bc:	8e 5f       	subi	r24, 0xFE	; 254
    37be:	0e 94 1d 0f 	call	0x1e3a	; 0x1e3a <GLCD_GoToLine>
    37c2:	20 91 5f 02 	lds	r18, 0x025F
    37c6:	30 91 60 02 	lds	r19, 0x0260
    37ca:	89 81       	ldd	r24, Y+1	; 0x01
    37cc:	88 2f       	mov	r24, r24
    37ce:	90 e0       	ldi	r25, 0x00	; 0
    37d0:	88 0f       	add	r24, r24
    37d2:	99 1f       	adc	r25, r25
    37d4:	82 0f       	add	r24, r18
    37d6:	93 1f       	adc	r25, r19
    37d8:	05 96       	adiw	r24, 0x05	; 5
    37da:	fc 01       	movw	r30, r24
    37dc:	80 81       	ld	r24, Z
    37de:	91 81       	ldd	r25, Z+1	; 0x01
    37e0:	fc 01       	movw	r30, r24
    37e2:	82 81       	ldd	r24, Z+2	; 0x02
    37e4:	93 81       	ldd	r25, Z+3	; 0x03
    37e6:	0e 94 bd 0f 	call	0x1f7a	; 0x1f7a <GLCD_DisplayString>
    37ea:	01 c0       	rjmp	.+2      	; 0x37ee <MENU_Draw+0x168>
    37ec:	00 00       	nop
    37ee:	89 81       	ldd	r24, Y+1	; 0x01
    37f0:	8f 5f       	subi	r24, 0xFF	; 255
    37f2:	89 83       	std	Y+1, r24	; 0x01
    37f4:	89 81       	ldd	r24, Y+1	; 0x01
    37f6:	85 30       	cpi	r24, 0x05	; 5
    37f8:	08 f4       	brcc	.+2      	; 0x37fc <MENU_Draw+0x176>
    37fa:	a7 cf       	rjmp	.-178    	; 0x374a <MENU_Draw+0xc4>
    37fc:	80 91 5f 02 	lds	r24, 0x025F
    3800:	90 91 60 02 	lds	r25, 0x0260
    3804:	90 93 86 03 	sts	0x0386, r25
    3808:	80 93 85 03 	sts	0x0385, r24
    380c:	80 91 5f 02 	lds	r24, 0x025F
    3810:	90 91 60 02 	lds	r25, 0x0260
    3814:	fc 01       	movw	r30, r24
    3816:	84 81       	ldd	r24, Z+4	; 0x04
    3818:	80 93 07 03 	sts	0x0307, r24
    381c:	0f 90       	pop	r0
    381e:	cf 91       	pop	r28
    3820:	df 91       	pop	r29
    3822:	08 95       	ret

00003824 <MENU_Down>:
    3824:	df 93       	push	r29
    3826:	cf 93       	push	r28
    3828:	0f 92       	push	r0
    382a:	cd b7       	in	r28, 0x3d	; 61
    382c:	de b7       	in	r29, 0x3e	; 62
    382e:	80 91 84 03 	lds	r24, 0x0384
    3832:	88 23       	and	r24, r24
    3834:	21 f0       	breq	.+8      	; 0x383e <MENU_Down+0x1a>
    3836:	82 e0       	ldi	r24, 0x02	; 2
    3838:	0e 94 23 1d 	call	0x3a46	; 0x3a46 <MENU_Process>
    383c:	25 c0       	rjmp	.+74     	; 0x3888 <MENU_Down+0x64>
    383e:	80 91 5f 02 	lds	r24, 0x025F
    3842:	90 91 60 02 	lds	r25, 0x0260
    3846:	fc 01       	movw	r30, r24
    3848:	24 81       	ldd	r18, Z+4	; 0x04
    384a:	2f 5f       	subi	r18, 0xFF	; 255
    384c:	fc 01       	movw	r30, r24
    384e:	24 83       	std	Z+4, r18	; 0x04
    3850:	fc 01       	movw	r30, r24
    3852:	84 81       	ldd	r24, Z+4	; 0x04
    3854:	89 83       	std	Y+1, r24	; 0x01
    3856:	20 91 5f 02 	lds	r18, 0x025F
    385a:	30 91 60 02 	lds	r19, 0x0260
    385e:	89 81       	ldd	r24, Y+1	; 0x01
    3860:	88 2f       	mov	r24, r24
    3862:	90 e0       	ldi	r25, 0x00	; 0
    3864:	88 0f       	add	r24, r24
    3866:	99 1f       	adc	r25, r25
    3868:	82 0f       	add	r24, r18
    386a:	93 1f       	adc	r25, r19
    386c:	05 96       	adiw	r24, 0x05	; 5
    386e:	fc 01       	movw	r30, r24
    3870:	80 81       	ld	r24, Z
    3872:	91 81       	ldd	r25, Z+1	; 0x01
    3874:	00 97       	sbiw	r24, 0x00	; 0
    3876:	31 f4       	brne	.+12     	; 0x3884 <MENU_Down+0x60>
    3878:	80 91 5f 02 	lds	r24, 0x025F
    387c:	90 91 60 02 	lds	r25, 0x0260
    3880:	fc 01       	movw	r30, r24
    3882:	14 82       	std	Z+4, r1	; 0x04
    3884:	0e 94 43 1b 	call	0x3686	; 0x3686 <MENU_Draw>
    3888:	0f 90       	pop	r0
    388a:	cf 91       	pop	r28
    388c:	df 91       	pop	r29
    388e:	08 95       	ret

00003890 <MENU_Up>:
    3890:	df 93       	push	r29
    3892:	cf 93       	push	r28
    3894:	00 d0       	rcall	.+0      	; 0x3896 <MENU_Up+0x6>
    3896:	cd b7       	in	r28, 0x3d	; 61
    3898:	de b7       	in	r29, 0x3e	; 62
    389a:	80 91 84 03 	lds	r24, 0x0384
    389e:	88 23       	and	r24, r24
    38a0:	21 f0       	breq	.+8      	; 0x38aa <MENU_Up+0x1a>
    38a2:	81 e0       	ldi	r24, 0x01	; 1
    38a4:	0e 94 23 1d 	call	0x3a46	; 0x3a46 <MENU_Process>
    38a8:	44 c0       	rjmp	.+136    	; 0x3932 <MENU_Up+0xa2>
    38aa:	80 91 5f 02 	lds	r24, 0x025F
    38ae:	90 91 60 02 	lds	r25, 0x0260
    38b2:	fc 01       	movw	r30, r24
    38b4:	84 81       	ldd	r24, Z+4	; 0x04
    38b6:	8a 83       	std	Y+2, r24	; 0x02
    38b8:	8a 81       	ldd	r24, Y+2	; 0x02
    38ba:	0e 94 1d 2c 	call	0x583a	; 0x583a <UART_Transmit>
    38be:	8a 81       	ldd	r24, Y+2	; 0x02
    38c0:	88 23       	and	r24, r24
    38c2:	69 f5       	brne	.+90     	; 0x391e <MENU_Up+0x8e>
    38c4:	19 82       	std	Y+1, r1	; 0x01
    38c6:	27 c0       	rjmp	.+78     	; 0x3916 <MENU_Up+0x86>
    38c8:	20 91 5f 02 	lds	r18, 0x025F
    38cc:	30 91 60 02 	lds	r19, 0x0260
    38d0:	89 81       	ldd	r24, Y+1	; 0x01
    38d2:	88 2f       	mov	r24, r24
    38d4:	90 e0       	ldi	r25, 0x00	; 0
    38d6:	88 0f       	add	r24, r24
    38d8:	99 1f       	adc	r25, r25
    38da:	82 0f       	add	r24, r18
    38dc:	93 1f       	adc	r25, r19
    38de:	05 96       	adiw	r24, 0x05	; 5
    38e0:	fc 01       	movw	r30, r24
    38e2:	80 81       	ld	r24, Z
    38e4:	91 81       	ldd	r25, Z+1	; 0x01
    38e6:	00 97       	sbiw	r24, 0x00	; 0
    38e8:	99 f4       	brne	.+38     	; 0x3910 <MENU_Up+0x80>
    38ea:	80 91 5f 02 	lds	r24, 0x025F
    38ee:	90 91 60 02 	lds	r25, 0x0260
    38f2:	29 81       	ldd	r18, Y+1	; 0x01
    38f4:	21 50       	subi	r18, 0x01	; 1
    38f6:	fc 01       	movw	r30, r24
    38f8:	24 83       	std	Z+4, r18	; 0x04
    38fa:	80 91 5f 02 	lds	r24, 0x025F
    38fe:	90 91 60 02 	lds	r25, 0x0260
    3902:	fc 01       	movw	r30, r24
    3904:	84 81       	ldd	r24, Z+4	; 0x04
    3906:	0e 94 1d 2c 	call	0x583a	; 0x583a <UART_Transmit>
    390a:	0e 94 43 1b 	call	0x3686	; 0x3686 <MENU_Draw>
    390e:	11 c0       	rjmp	.+34     	; 0x3932 <MENU_Up+0xa2>
    3910:	89 81       	ldd	r24, Y+1	; 0x01
    3912:	8f 5f       	subi	r24, 0xFF	; 255
    3914:	89 83       	std	Y+1, r24	; 0x01
    3916:	89 81       	ldd	r24, Y+1	; 0x01
    3918:	85 30       	cpi	r24, 0x05	; 5
    391a:	b0 f2       	brcs	.-84     	; 0x38c8 <MENU_Up+0x38>
    391c:	0a c0       	rjmp	.+20     	; 0x3932 <MENU_Up+0xa2>
    391e:	80 91 5f 02 	lds	r24, 0x025F
    3922:	90 91 60 02 	lds	r25, 0x0260
    3926:	2a 81       	ldd	r18, Y+2	; 0x02
    3928:	21 50       	subi	r18, 0x01	; 1
    392a:	fc 01       	movw	r30, r24
    392c:	24 83       	std	Z+4, r18	; 0x04
    392e:	0e 94 43 1b 	call	0x3686	; 0x3686 <MENU_Draw>
    3932:	0f 90       	pop	r0
    3934:	0f 90       	pop	r0
    3936:	cf 91       	pop	r28
    3938:	df 91       	pop	r29
    393a:	08 95       	ret

0000393c <MENU_Out>:
    393c:	df 93       	push	r29
    393e:	cf 93       	push	r28
    3940:	cd b7       	in	r28, 0x3d	; 61
    3942:	de b7       	in	r29, 0x3e	; 62
    3944:	80 91 84 03 	lds	r24, 0x0384
    3948:	88 23       	and	r24, r24
    394a:	21 f0       	breq	.+8      	; 0x3954 <MENU_Out+0x18>
    394c:	84 e0       	ldi	r24, 0x04	; 4
    394e:	0e 94 23 1d 	call	0x3a46	; 0x3a46 <MENU_Process>
    3952:	31 c0       	rjmp	.+98     	; 0x39b6 <MENU_Out+0x7a>
    3954:	80 91 5f 02 	lds	r24, 0x025F
    3958:	90 91 60 02 	lds	r25, 0x0260
    395c:	fc 01       	movw	r30, r24
    395e:	80 81       	ld	r24, Z
    3960:	91 81       	ldd	r25, Z+1	; 0x01
    3962:	00 97       	sbiw	r24, 0x00	; 0
    3964:	71 f0       	breq	.+28     	; 0x3982 <MENU_Out+0x46>
    3966:	80 91 5f 02 	lds	r24, 0x025F
    396a:	90 91 60 02 	lds	r25, 0x0260
    396e:	fc 01       	movw	r30, r24
    3970:	80 81       	ld	r24, Z
    3972:	91 81       	ldd	r25, Z+1	; 0x01
    3974:	90 93 60 02 	sts	0x0260, r25
    3978:	80 93 5f 02 	sts	0x025F, r24
    397c:	0e 94 43 1b 	call	0x3686	; 0x3686 <MENU_Draw>
    3980:	1a c0       	rjmp	.+52     	; 0x39b6 <MENU_Out+0x7a>
    3982:	87 e2       	ldi	r24, 0x27	; 39
    3984:	92 e0       	ldi	r25, 0x02	; 2
    3986:	90 93 60 02 	sts	0x0260, r25
    398a:	80 93 5f 02 	sts	0x025F, r24
    398e:	10 92 86 03 	sts	0x0386, r1
    3992:	10 92 85 03 	sts	0x0385, r1
    3996:	10 92 80 03 	sts	0x0380, r1
    399a:	0e 94 66 0e 	call	0x1ccc	; 0x1ccc <GLCD_Clear>
    399e:	0e 94 da 20 	call	0x41b4	; 0x41b4 <MENU_Status>
    39a2:	24 ec       	ldi	r18, 0xC4	; 196
    39a4:	35 e2       	ldi	r19, 0x25	; 37
    39a6:	80 91 99 03 	lds	r24, 0x0399
    39aa:	88 2f       	mov	r24, r24
    39ac:	90 e0       	ldi	r25, 0x00	; 0
    39ae:	f9 01       	movw	r30, r18
    39b0:	09 95       	icall
    39b2:	0e 94 38 26 	call	0x4c70	; 0x4c70 <MENU_Status_Header2>
    39b6:	cf 91       	pop	r28
    39b8:	df 91       	pop	r29
    39ba:	08 95       	ret

000039bc <MENU_In>:
    39bc:	df 93       	push	r29
    39be:	cf 93       	push	r28
    39c0:	0f 92       	push	r0
    39c2:	cd b7       	in	r28, 0x3d	; 61
    39c4:	de b7       	in	r29, 0x3e	; 62
    39c6:	80 91 84 03 	lds	r24, 0x0384
    39ca:	88 23       	and	r24, r24
    39cc:	21 f0       	breq	.+8      	; 0x39d6 <MENU_In+0x1a>
    39ce:	83 e0       	ldi	r24, 0x03	; 3
    39d0:	0e 94 23 1d 	call	0x3a46	; 0x3a46 <MENU_Process>
    39d4:	34 c0       	rjmp	.+104    	; 0x3a3e <MENU_In+0x82>
    39d6:	80 91 5f 02 	lds	r24, 0x025F
    39da:	90 91 60 02 	lds	r25, 0x0260
    39de:	fc 01       	movw	r30, r24
    39e0:	84 81       	ldd	r24, Z+4	; 0x04
    39e2:	89 83       	std	Y+1, r24	; 0x01
    39e4:	20 91 5f 02 	lds	r18, 0x025F
    39e8:	30 91 60 02 	lds	r19, 0x0260
    39ec:	89 81       	ldd	r24, Y+1	; 0x01
    39ee:	88 2f       	mov	r24, r24
    39f0:	90 e0       	ldi	r25, 0x00	; 0
    39f2:	88 0f       	add	r24, r24
    39f4:	99 1f       	adc	r25, r25
    39f6:	82 0f       	add	r24, r18
    39f8:	93 1f       	adc	r25, r19
    39fa:	05 96       	adiw	r24, 0x05	; 5
    39fc:	fc 01       	movw	r30, r24
    39fe:	80 81       	ld	r24, Z
    3a00:	91 81       	ldd	r25, Z+1	; 0x01
    3a02:	fc 01       	movw	r30, r24
    3a04:	85 81       	ldd	r24, Z+5	; 0x05
    3a06:	96 81       	ldd	r25, Z+6	; 0x06
    3a08:	00 97       	sbiw	r24, 0x00	; 0
    3a0a:	b1 f0       	breq	.+44     	; 0x3a38 <MENU_In+0x7c>
    3a0c:	20 91 5f 02 	lds	r18, 0x025F
    3a10:	30 91 60 02 	lds	r19, 0x0260
    3a14:	89 81       	ldd	r24, Y+1	; 0x01
    3a16:	88 2f       	mov	r24, r24
    3a18:	90 e0       	ldi	r25, 0x00	; 0
    3a1a:	88 0f       	add	r24, r24
    3a1c:	99 1f       	adc	r25, r25
    3a1e:	82 0f       	add	r24, r18
    3a20:	93 1f       	adc	r25, r19
    3a22:	05 96       	adiw	r24, 0x05	; 5
    3a24:	fc 01       	movw	r30, r24
    3a26:	80 81       	ld	r24, Z
    3a28:	91 81       	ldd	r25, Z+1	; 0x01
    3a2a:	90 93 60 02 	sts	0x0260, r25
    3a2e:	80 93 5f 02 	sts	0x025F, r24
    3a32:	0e 94 43 1b 	call	0x3686	; 0x3686 <MENU_Draw>
    3a36:	03 c0       	rjmp	.+6      	; 0x3a3e <MENU_In+0x82>
    3a38:	80 e0       	ldi	r24, 0x00	; 0
    3a3a:	0e 94 23 1d 	call	0x3a46	; 0x3a46 <MENU_Process>
    3a3e:	0f 90       	pop	r0
    3a40:	cf 91       	pop	r28
    3a42:	df 91       	pop	r29
    3a44:	08 95       	ret

00003a46 <MENU_Process>:
    3a46:	ef 92       	push	r14
    3a48:	ff 92       	push	r15
    3a4a:	0f 93       	push	r16
    3a4c:	1f 93       	push	r17
    3a4e:	df 93       	push	r29
    3a50:	cf 93       	push	r28
    3a52:	0f 92       	push	r0
    3a54:	cd b7       	in	r28, 0x3d	; 61
    3a56:	de b7       	in	r29, 0x3e	; 62
    3a58:	89 83       	std	Y+1, r24	; 0x01
    3a5a:	10 92 86 03 	sts	0x0386, r1
    3a5e:	10 92 85 03 	sts	0x0385, r1
    3a62:	80 91 5f 02 	lds	r24, 0x025F
    3a66:	90 91 60 02 	lds	r25, 0x0260
    3a6a:	22 e0       	ldi	r18, 0x02	; 2
    3a6c:	8e 34       	cpi	r24, 0x4E	; 78
    3a6e:	92 07       	cpc	r25, r18
    3a70:	09 f0       	breq	.+2      	; 0x3a74 <MENU_Process+0x2e>
    3a72:	49 c2       	rjmp	.+1170   	; 0x3f06 <MENU_Process+0x4c0>
    3a74:	89 81       	ldd	r24, Y+1	; 0x01
    3a76:	84 30       	cpi	r24, 0x04	; 4
    3a78:	99 f4       	brne	.+38     	; 0x3aa0 <MENU_Process+0x5a>
    3a7a:	10 92 81 03 	sts	0x0381, r1
    3a7e:	10 92 84 03 	sts	0x0384, r1
    3a82:	87 e2       	ldi	r24, 0x27	; 39
    3a84:	92 e0       	ldi	r25, 0x02	; 2
    3a86:	90 93 60 02 	sts	0x0260, r25
    3a8a:	80 93 5f 02 	sts	0x025F, r24
    3a8e:	10 92 86 03 	sts	0x0386, r1
    3a92:	10 92 85 03 	sts	0x0385, r1
    3a96:	0e 94 66 0e 	call	0x1ccc	; 0x1ccc <GLCD_Clear>
    3a9a:	10 92 80 03 	sts	0x0380, r1
    3a9e:	da c2       	rjmp	.+1460   	; 0x4054 <MENU_Process+0x60e>
    3aa0:	80 91 84 03 	lds	r24, 0x0384
    3aa4:	88 2f       	mov	r24, r24
    3aa6:	90 e0       	ldi	r25, 0x00	; 0
    3aa8:	82 30       	cpi	r24, 0x02	; 2
    3aaa:	91 05       	cpc	r25, r1
    3aac:	09 f4       	brne	.+2      	; 0x3ab0 <MENU_Process+0x6a>
    3aae:	96 c0       	rjmp	.+300    	; 0x3bdc <MENU_Process+0x196>
    3ab0:	83 30       	cpi	r24, 0x03	; 3
    3ab2:	91 05       	cpc	r25, r1
    3ab4:	3c f4       	brge	.+14     	; 0x3ac4 <MENU_Process+0x7e>
    3ab6:	00 97       	sbiw	r24, 0x00	; 0
    3ab8:	91 f0       	breq	.+36     	; 0x3ade <MENU_Process+0x98>
    3aba:	81 30       	cpi	r24, 0x01	; 1
    3abc:	91 05       	cpc	r25, r1
    3abe:	09 f4       	brne	.+2      	; 0x3ac2 <MENU_Process+0x7c>
    3ac0:	3f c0       	rjmp	.+126    	; 0x3b40 <MENU_Process+0xfa>
    3ac2:	c8 c2       	rjmp	.+1424   	; 0x4054 <MENU_Process+0x60e>
    3ac4:	84 30       	cpi	r24, 0x04	; 4
    3ac6:	91 05       	cpc	r25, r1
    3ac8:	09 f4       	brne	.+2      	; 0x3acc <MENU_Process+0x86>
    3aca:	55 c1       	rjmp	.+682    	; 0x3d76 <MENU_Process+0x330>
    3acc:	84 30       	cpi	r24, 0x04	; 4
    3ace:	91 05       	cpc	r25, r1
    3ad0:	0c f4       	brge	.+2      	; 0x3ad4 <MENU_Process+0x8e>
    3ad2:	fc c0       	rjmp	.+504    	; 0x3ccc <MENU_Process+0x286>
    3ad4:	85 30       	cpi	r24, 0x05	; 5
    3ad6:	91 05       	cpc	r25, r1
    3ad8:	09 f4       	brne	.+2      	; 0x3adc <MENU_Process+0x96>
    3ada:	a1 c1       	rjmp	.+834    	; 0x3e1e <MENU_Process+0x3d8>
    3adc:	bb c2       	rjmp	.+1398   	; 0x4054 <MENU_Process+0x60e>
    3ade:	81 e0       	ldi	r24, 0x01	; 1
    3ae0:	80 93 80 03 	sts	0x0380, r24
    3ae4:	0e 94 66 0e 	call	0x1ccc	; 0x1ccc <GLCD_Clear>
    3ae8:	80 e0       	ldi	r24, 0x00	; 0
    3aea:	0e 94 1d 0f 	call	0x1e3a	; 0x1e3a <GLCD_GoToLine>
    3aee:	81 e6       	ldi	r24, 0x61	; 97
    3af0:	92 e0       	ldi	r25, 0x02	; 2
    3af2:	0e 94 bd 0f 	call	0x1f7a	; 0x1f7a <GLCD_DisplayString>
    3af6:	81 e0       	ldi	r24, 0x01	; 1
    3af8:	0e 94 1d 0f 	call	0x1e3a	; 0x1e3a <GLCD_GoToLine>
    3afc:	87 e7       	ldi	r24, 0x77	; 119
    3afe:	92 e0       	ldi	r25, 0x02	; 2
    3b00:	0e 94 bd 0f 	call	0x1f7a	; 0x1f7a <GLCD_DisplayString>
    3b04:	86 e0       	ldi	r24, 0x06	; 6
    3b06:	0e 94 1d 0f 	call	0x1e3a	; 0x1e3a <GLCD_GoToLine>
    3b0a:	88 e8       	ldi	r24, 0x88	; 136
    3b0c:	92 e0       	ldi	r25, 0x02	; 2
    3b0e:	0e 94 bd 0f 	call	0x1f7a	; 0x1f7a <GLCD_DisplayString>
    3b12:	87 e0       	ldi	r24, 0x07	; 7
    3b14:	0e 94 1d 0f 	call	0x1e3a	; 0x1e3a <GLCD_GoToLine>
    3b18:	80 ea       	ldi	r24, 0xA0	; 160
    3b1a:	92 e0       	ldi	r25, 0x02	; 2
    3b1c:	0e 94 bd 0f 	call	0x1f7a	; 0x1f7a <GLCD_DisplayString>
    3b20:	80 e0       	ldi	r24, 0x00	; 0
    3b22:	63 e0       	ldi	r22, 0x03	; 3
    3b24:	48 e2       	ldi	r20, 0x28	; 40
    3b26:	0e 94 99 0e 	call	0x1d32	; 0x1d32 <GLCD_SetCursor>
    3b2a:	0e 94 cb 29 	call	0x5396	; 0x5396 <TEMPERATURE_Calculate>
    3b2e:	0e 94 12 2a 	call	0x5424	; 0x5424 <TEMPERATURE_Display>
    3b32:	81 e0       	ldi	r24, 0x01	; 1
    3b34:	80 93 84 03 	sts	0x0384, r24
    3b38:	81 e0       	ldi	r24, 0x01	; 1
    3b3a:	80 93 81 03 	sts	0x0381, r24
    3b3e:	8a c2       	rjmp	.+1300   	; 0x4054 <MENU_Process+0x60e>
    3b40:	80 e0       	ldi	r24, 0x00	; 0
    3b42:	63 e0       	ldi	r22, 0x03	; 3
    3b44:	48 e2       	ldi	r20, 0x28	; 40
    3b46:	0e 94 99 0e 	call	0x1d32	; 0x1d32 <GLCD_SetCursor>
    3b4a:	0e 94 cb 29 	call	0x5396	; 0x5396 <TEMPERATURE_Calculate>
    3b4e:	0e 94 12 2a 	call	0x5424	; 0x5424 <TEMPERATURE_Display>
    3b52:	89 81       	ldd	r24, Y+1	; 0x01
    3b54:	83 30       	cpi	r24, 0x03	; 3
    3b56:	09 f0       	breq	.+2      	; 0x3b5a <MENU_Process+0x114>
    3b58:	76 c2       	rjmp	.+1260   	; 0x4046 <MENU_Process+0x600>
    3b5a:	80 91 3e 03 	lds	r24, 0x033E
    3b5e:	90 91 3f 03 	lds	r25, 0x033F
    3b62:	cc 01       	movw	r24, r24
    3b64:	a0 e0       	ldi	r26, 0x00	; 0
    3b66:	b0 e0       	ldi	r27, 0x00	; 0
    3b68:	bc 01       	movw	r22, r24
    3b6a:	cd 01       	movw	r24, r26
    3b6c:	0e 94 82 2d 	call	0x5b04	; 0x5b04 <__floatunsisf>
    3b70:	dc 01       	movw	r26, r24
    3b72:	cb 01       	movw	r24, r22
    3b74:	80 93 87 03 	sts	0x0387, r24
    3b78:	90 93 88 03 	sts	0x0388, r25
    3b7c:	a0 93 89 03 	sts	0x0389, r26
    3b80:	b0 93 8a 03 	sts	0x038A, r27
    3b84:	0e 94 cb 29 	call	0x5396	; 0x5396 <TEMPERATURE_Calculate>
    3b88:	90 93 83 03 	sts	0x0383, r25
    3b8c:	80 93 82 03 	sts	0x0382, r24
    3b90:	0e 94 66 0e 	call	0x1ccc	; 0x1ccc <GLCD_Clear>
    3b94:	80 e0       	ldi	r24, 0x00	; 0
    3b96:	0e 94 1d 0f 	call	0x1e3a	; 0x1e3a <GLCD_GoToLine>
    3b9a:	81 e6       	ldi	r24, 0x61	; 97
    3b9c:	92 e0       	ldi	r25, 0x02	; 2
    3b9e:	0e 94 bd 0f 	call	0x1f7a	; 0x1f7a <GLCD_DisplayString>
    3ba2:	86 e0       	ldi	r24, 0x06	; 6
    3ba4:	0e 94 1d 0f 	call	0x1e3a	; 0x1e3a <GLCD_GoToLine>
    3ba8:	89 ea       	ldi	r24, 0xA9	; 169
    3baa:	92 e0       	ldi	r25, 0x02	; 2
    3bac:	0e 94 bd 0f 	call	0x1f7a	; 0x1f7a <GLCD_DisplayString>
    3bb0:	87 e0       	ldi	r24, 0x07	; 7
    3bb2:	0e 94 1d 0f 	call	0x1e3a	; 0x1e3a <GLCD_GoToLine>
    3bb6:	81 ec       	ldi	r24, 0xC1	; 193
    3bb8:	92 e0       	ldi	r25, 0x02	; 2
    3bba:	0e 94 bd 0f 	call	0x1f7a	; 0x1f7a <GLCD_DisplayString>
    3bbe:	80 e0       	ldi	r24, 0x00	; 0
    3bc0:	63 e0       	ldi	r22, 0x03	; 3
    3bc2:	48 e2       	ldi	r20, 0x28	; 40
    3bc4:	0e 94 99 0e 	call	0x1d32	; 0x1d32 <GLCD_SetCursor>
    3bc8:	80 91 82 03 	lds	r24, 0x0382
    3bcc:	90 91 83 03 	lds	r25, 0x0383
    3bd0:	0e 94 12 2a 	call	0x5424	; 0x5424 <TEMPERATURE_Display>
    3bd4:	82 e0       	ldi	r24, 0x02	; 2
    3bd6:	80 93 84 03 	sts	0x0384, r24
    3bda:	3c c2       	rjmp	.+1144   	; 0x4054 <MENU_Process+0x60e>
    3bdc:	89 81       	ldd	r24, Y+1	; 0x01
    3bde:	88 2f       	mov	r24, r24
    3be0:	90 e0       	ldi	r25, 0x00	; 0
    3be2:	82 30       	cpi	r24, 0x02	; 2
    3be4:	91 05       	cpc	r25, r1
    3be6:	e1 f0       	breq	.+56     	; 0x3c20 <MENU_Process+0x1da>
    3be8:	83 30       	cpi	r24, 0x03	; 3
    3bea:	91 05       	cpc	r25, r1
    3bec:	71 f1       	breq	.+92     	; 0x3c4a <MENU_Process+0x204>
    3bee:	81 30       	cpi	r24, 0x01	; 1
    3bf0:	91 05       	cpc	r25, r1
    3bf2:	09 f0       	breq	.+2      	; 0x3bf6 <MENU_Process+0x1b0>
    3bf4:	2a c2       	rjmp	.+1108   	; 0x404a <MENU_Process+0x604>
    3bf6:	80 91 82 03 	lds	r24, 0x0382
    3bfa:	90 91 83 03 	lds	r25, 0x0383
    3bfe:	01 96       	adiw	r24, 0x01	; 1
    3c00:	90 93 83 03 	sts	0x0383, r25
    3c04:	80 93 82 03 	sts	0x0382, r24
    3c08:	80 e0       	ldi	r24, 0x00	; 0
    3c0a:	63 e0       	ldi	r22, 0x03	; 3
    3c0c:	48 e2       	ldi	r20, 0x28	; 40
    3c0e:	0e 94 99 0e 	call	0x1d32	; 0x1d32 <GLCD_SetCursor>
    3c12:	80 91 82 03 	lds	r24, 0x0382
    3c16:	90 91 83 03 	lds	r25, 0x0383
    3c1a:	0e 94 12 2a 	call	0x5424	; 0x5424 <TEMPERATURE_Display>
    3c1e:	55 c0       	rjmp	.+170    	; 0x3cca <MENU_Process+0x284>
    3c20:	80 91 82 03 	lds	r24, 0x0382
    3c24:	90 91 83 03 	lds	r25, 0x0383
    3c28:	01 97       	sbiw	r24, 0x01	; 1
    3c2a:	90 93 83 03 	sts	0x0383, r25
    3c2e:	80 93 82 03 	sts	0x0382, r24
    3c32:	80 e0       	ldi	r24, 0x00	; 0
    3c34:	63 e0       	ldi	r22, 0x03	; 3
    3c36:	48 e2       	ldi	r20, 0x28	; 40
    3c38:	0e 94 99 0e 	call	0x1d32	; 0x1d32 <GLCD_SetCursor>
    3c3c:	80 91 82 03 	lds	r24, 0x0382
    3c40:	90 91 83 03 	lds	r25, 0x0383
    3c44:	0e 94 12 2a 	call	0x5424	; 0x5424 <TEMPERATURE_Display>
    3c48:	40 c0       	rjmp	.+128    	; 0x3cca <MENU_Process+0x284>
    3c4a:	80 91 82 03 	lds	r24, 0x0382
    3c4e:	90 91 83 03 	lds	r25, 0x0383
    3c52:	cc 01       	movw	r24, r24
    3c54:	a0 e0       	ldi	r26, 0x00	; 0
    3c56:	b0 e0       	ldi	r27, 0x00	; 0
    3c58:	bc 01       	movw	r22, r24
    3c5a:	cd 01       	movw	r24, r26
    3c5c:	0e 94 82 2d 	call	0x5b04	; 0x5b04 <__floatunsisf>
    3c60:	dc 01       	movw	r26, r24
    3c62:	cb 01       	movw	r24, r22
    3c64:	80 93 8b 03 	sts	0x038B, r24
    3c68:	90 93 8c 03 	sts	0x038C, r25
    3c6c:	a0 93 8d 03 	sts	0x038D, r26
    3c70:	b0 93 8e 03 	sts	0x038E, r27
    3c74:	0e 94 66 0e 	call	0x1ccc	; 0x1ccc <GLCD_Clear>
    3c78:	80 e0       	ldi	r24, 0x00	; 0
    3c7a:	0e 94 1d 0f 	call	0x1e3a	; 0x1e3a <GLCD_GoToLine>
    3c7e:	81 e6       	ldi	r24, 0x61	; 97
    3c80:	92 e0       	ldi	r25, 0x02	; 2
    3c82:	0e 94 bd 0f 	call	0x1f7a	; 0x1f7a <GLCD_DisplayString>
    3c86:	81 e0       	ldi	r24, 0x01	; 1
    3c88:	0e 94 1d 0f 	call	0x1e3a	; 0x1e3a <GLCD_GoToLine>
    3c8c:	84 ed       	ldi	r24, 0xD4	; 212
    3c8e:	92 e0       	ldi	r25, 0x02	; 2
    3c90:	0e 94 bd 0f 	call	0x1f7a	; 0x1f7a <GLCD_DisplayString>
    3c94:	86 e0       	ldi	r24, 0x06	; 6
    3c96:	0e 94 1d 0f 	call	0x1e3a	; 0x1e3a <GLCD_GoToLine>
    3c9a:	88 e8       	ldi	r24, 0x88	; 136
    3c9c:	92 e0       	ldi	r25, 0x02	; 2
    3c9e:	0e 94 bd 0f 	call	0x1f7a	; 0x1f7a <GLCD_DisplayString>
    3ca2:	87 e0       	ldi	r24, 0x07	; 7
    3ca4:	0e 94 1d 0f 	call	0x1e3a	; 0x1e3a <GLCD_GoToLine>
    3ca8:	80 ea       	ldi	r24, 0xA0	; 160
    3caa:	92 e0       	ldi	r25, 0x02	; 2
    3cac:	0e 94 bd 0f 	call	0x1f7a	; 0x1f7a <GLCD_DisplayString>
    3cb0:	80 e0       	ldi	r24, 0x00	; 0
    3cb2:	63 e0       	ldi	r22, 0x03	; 3
    3cb4:	48 e2       	ldi	r20, 0x28	; 40
    3cb6:	0e 94 99 0e 	call	0x1d32	; 0x1d32 <GLCD_SetCursor>
    3cba:	0e 94 cb 29 	call	0x5396	; 0x5396 <TEMPERATURE_Calculate>
    3cbe:	0e 94 12 2a 	call	0x5424	; 0x5424 <TEMPERATURE_Display>
    3cc2:	83 e0       	ldi	r24, 0x03	; 3
    3cc4:	80 93 84 03 	sts	0x0384, r24
    3cc8:	00 00       	nop
    3cca:	c4 c1       	rjmp	.+904    	; 0x4054 <MENU_Process+0x60e>
    3ccc:	80 e0       	ldi	r24, 0x00	; 0
    3cce:	63 e0       	ldi	r22, 0x03	; 3
    3cd0:	48 e2       	ldi	r20, 0x28	; 40
    3cd2:	0e 94 99 0e 	call	0x1d32	; 0x1d32 <GLCD_SetCursor>
    3cd6:	0e 94 cb 29 	call	0x5396	; 0x5396 <TEMPERATURE_Calculate>
    3cda:	0e 94 12 2a 	call	0x5424	; 0x5424 <TEMPERATURE_Display>
    3cde:	89 81       	ldd	r24, Y+1	; 0x01
    3ce0:	83 30       	cpi	r24, 0x03	; 3
    3ce2:	09 f0       	breq	.+2      	; 0x3ce6 <MENU_Process+0x2a0>
    3ce4:	b4 c1       	rjmp	.+872    	; 0x404e <MENU_Process+0x608>
    3ce6:	80 91 3e 03 	lds	r24, 0x033E
    3cea:	90 91 3f 03 	lds	r25, 0x033F
    3cee:	cc 01       	movw	r24, r24
    3cf0:	a0 e0       	ldi	r26, 0x00	; 0
    3cf2:	b0 e0       	ldi	r27, 0x00	; 0
    3cf4:	bc 01       	movw	r22, r24
    3cf6:	cd 01       	movw	r24, r26
    3cf8:	0e 94 82 2d 	call	0x5b04	; 0x5b04 <__floatunsisf>
    3cfc:	dc 01       	movw	r26, r24
    3cfe:	cb 01       	movw	r24, r22
    3d00:	80 93 8f 03 	sts	0x038F, r24
    3d04:	90 93 90 03 	sts	0x0390, r25
    3d08:	a0 93 91 03 	sts	0x0391, r26
    3d0c:	b0 93 92 03 	sts	0x0392, r27
    3d10:	0e 94 cb 29 	call	0x5396	; 0x5396 <TEMPERATURE_Calculate>
    3d14:	90 93 83 03 	sts	0x0383, r25
    3d18:	80 93 82 03 	sts	0x0382, r24
    3d1c:	0e 94 66 0e 	call	0x1ccc	; 0x1ccc <GLCD_Clear>
    3d20:	80 e0       	ldi	r24, 0x00	; 0
    3d22:	0e 94 1d 0f 	call	0x1e3a	; 0x1e3a <GLCD_GoToLine>
    3d26:	81 e6       	ldi	r24, 0x61	; 97
    3d28:	92 e0       	ldi	r25, 0x02	; 2
    3d2a:	0e 94 bd 0f 	call	0x1f7a	; 0x1f7a <GLCD_DisplayString>
    3d2e:	81 e0       	ldi	r24, 0x01	; 1
    3d30:	0e 94 1d 0f 	call	0x1e3a	; 0x1e3a <GLCD_GoToLine>
    3d34:	84 ed       	ldi	r24, 0xD4	; 212
    3d36:	92 e0       	ldi	r25, 0x02	; 2
    3d38:	0e 94 bd 0f 	call	0x1f7a	; 0x1f7a <GLCD_DisplayString>
    3d3c:	86 e0       	ldi	r24, 0x06	; 6
    3d3e:	0e 94 1d 0f 	call	0x1e3a	; 0x1e3a <GLCD_GoToLine>
    3d42:	89 ea       	ldi	r24, 0xA9	; 169
    3d44:	92 e0       	ldi	r25, 0x02	; 2
    3d46:	0e 94 bd 0f 	call	0x1f7a	; 0x1f7a <GLCD_DisplayString>
    3d4a:	87 e0       	ldi	r24, 0x07	; 7
    3d4c:	0e 94 1d 0f 	call	0x1e3a	; 0x1e3a <GLCD_GoToLine>
    3d50:	81 ec       	ldi	r24, 0xC1	; 193
    3d52:	92 e0       	ldi	r25, 0x02	; 2
    3d54:	0e 94 bd 0f 	call	0x1f7a	; 0x1f7a <GLCD_DisplayString>
    3d58:	80 e0       	ldi	r24, 0x00	; 0
    3d5a:	63 e0       	ldi	r22, 0x03	; 3
    3d5c:	48 e2       	ldi	r20, 0x28	; 40
    3d5e:	0e 94 99 0e 	call	0x1d32	; 0x1d32 <GLCD_SetCursor>
    3d62:	80 91 82 03 	lds	r24, 0x0382
    3d66:	90 91 83 03 	lds	r25, 0x0383
    3d6a:	0e 94 12 2a 	call	0x5424	; 0x5424 <TEMPERATURE_Display>
    3d6e:	84 e0       	ldi	r24, 0x04	; 4
    3d70:	80 93 84 03 	sts	0x0384, r24
    3d74:	6f c1       	rjmp	.+734    	; 0x4054 <MENU_Process+0x60e>
    3d76:	89 81       	ldd	r24, Y+1	; 0x01
    3d78:	88 2f       	mov	r24, r24
    3d7a:	90 e0       	ldi	r25, 0x00	; 0
    3d7c:	82 30       	cpi	r24, 0x02	; 2
    3d7e:	91 05       	cpc	r25, r1
    3d80:	e1 f0       	breq	.+56     	; 0x3dba <MENU_Process+0x374>
    3d82:	83 30       	cpi	r24, 0x03	; 3
    3d84:	91 05       	cpc	r25, r1
    3d86:	71 f1       	breq	.+92     	; 0x3de4 <MENU_Process+0x39e>
    3d88:	81 30       	cpi	r24, 0x01	; 1
    3d8a:	91 05       	cpc	r25, r1
    3d8c:	09 f0       	breq	.+2      	; 0x3d90 <MENU_Process+0x34a>
    3d8e:	61 c1       	rjmp	.+706    	; 0x4052 <MENU_Process+0x60c>
    3d90:	80 91 82 03 	lds	r24, 0x0382
    3d94:	90 91 83 03 	lds	r25, 0x0383
    3d98:	01 96       	adiw	r24, 0x01	; 1
    3d9a:	90 93 83 03 	sts	0x0383, r25
    3d9e:	80 93 82 03 	sts	0x0382, r24
    3da2:	80 e0       	ldi	r24, 0x00	; 0
    3da4:	63 e0       	ldi	r22, 0x03	; 3
    3da6:	48 e2       	ldi	r20, 0x28	; 40
    3da8:	0e 94 99 0e 	call	0x1d32	; 0x1d32 <GLCD_SetCursor>
    3dac:	80 91 82 03 	lds	r24, 0x0382
    3db0:	90 91 83 03 	lds	r25, 0x0383
    3db4:	0e 94 12 2a 	call	0x5424	; 0x5424 <TEMPERATURE_Display>
    3db8:	30 c0       	rjmp	.+96     	; 0x3e1a <MENU_Process+0x3d4>
    3dba:	80 91 82 03 	lds	r24, 0x0382
    3dbe:	90 91 83 03 	lds	r25, 0x0383
    3dc2:	01 97       	sbiw	r24, 0x01	; 1
    3dc4:	90 93 83 03 	sts	0x0383, r25
    3dc8:	80 93 82 03 	sts	0x0382, r24
    3dcc:	80 e0       	ldi	r24, 0x00	; 0
    3dce:	63 e0       	ldi	r22, 0x03	; 3
    3dd0:	48 e2       	ldi	r20, 0x28	; 40
    3dd2:	0e 94 99 0e 	call	0x1d32	; 0x1d32 <GLCD_SetCursor>
    3dd6:	80 91 82 03 	lds	r24, 0x0382
    3dda:	90 91 83 03 	lds	r25, 0x0383
    3dde:	0e 94 12 2a 	call	0x5424	; 0x5424 <TEMPERATURE_Display>
    3de2:	1b c0       	rjmp	.+54     	; 0x3e1a <MENU_Process+0x3d4>
    3de4:	80 91 82 03 	lds	r24, 0x0382
    3de8:	90 91 83 03 	lds	r25, 0x0383
    3dec:	cc 01       	movw	r24, r24
    3dee:	a0 e0       	ldi	r26, 0x00	; 0
    3df0:	b0 e0       	ldi	r27, 0x00	; 0
    3df2:	bc 01       	movw	r22, r24
    3df4:	cd 01       	movw	r24, r26
    3df6:	0e 94 82 2d 	call	0x5b04	; 0x5b04 <__floatunsisf>
    3dfa:	dc 01       	movw	r26, r24
    3dfc:	cb 01       	movw	r24, r22
    3dfe:	80 93 93 03 	sts	0x0393, r24
    3e02:	90 93 94 03 	sts	0x0394, r25
    3e06:	a0 93 95 03 	sts	0x0395, r26
    3e0a:	b0 93 96 03 	sts	0x0396, r27
    3e0e:	0e 94 66 0e 	call	0x1ccc	; 0x1ccc <GLCD_Clear>
    3e12:	85 e0       	ldi	r24, 0x05	; 5
    3e14:	80 93 84 03 	sts	0x0384, r24
    3e18:	00 00       	nop
    3e1a:	00 00       	nop
    3e1c:	1b c1       	rjmp	.+566    	; 0x4054 <MENU_Process+0x60e>
    3e1e:	80 91 93 03 	lds	r24, 0x0393
    3e22:	90 91 94 03 	lds	r25, 0x0394
    3e26:	a0 91 95 03 	lds	r26, 0x0395
    3e2a:	b0 91 96 03 	lds	r27, 0x0396
    3e2e:	20 91 8b 03 	lds	r18, 0x038B
    3e32:	30 91 8c 03 	lds	r19, 0x038C
    3e36:	40 91 8d 03 	lds	r20, 0x038D
    3e3a:	50 91 8e 03 	lds	r21, 0x038E
    3e3e:	bc 01       	movw	r22, r24
    3e40:	cd 01       	movw	r24, r26
    3e42:	0e 94 85 2c 	call	0x590a	; 0x590a <__subsf3>
    3e46:	dc 01       	movw	r26, r24
    3e48:	cb 01       	movw	r24, r22
    3e4a:	7c 01       	movw	r14, r24
    3e4c:	8d 01       	movw	r16, r26
    3e4e:	80 91 8f 03 	lds	r24, 0x038F
    3e52:	90 91 90 03 	lds	r25, 0x0390
    3e56:	a0 91 91 03 	lds	r26, 0x0391
    3e5a:	b0 91 92 03 	lds	r27, 0x0392
    3e5e:	20 91 87 03 	lds	r18, 0x0387
    3e62:	30 91 88 03 	lds	r19, 0x0388
    3e66:	40 91 89 03 	lds	r20, 0x0389
    3e6a:	50 91 8a 03 	lds	r21, 0x038A
    3e6e:	bc 01       	movw	r22, r24
    3e70:	cd 01       	movw	r24, r26
    3e72:	0e 94 85 2c 	call	0x590a	; 0x590a <__subsf3>
    3e76:	dc 01       	movw	r26, r24
    3e78:	cb 01       	movw	r24, r22
    3e7a:	9c 01       	movw	r18, r24
    3e7c:	ad 01       	movw	r20, r26
    3e7e:	c8 01       	movw	r24, r16
    3e80:	b7 01       	movw	r22, r14
    3e82:	0e 94 ee 2c 	call	0x59dc	; 0x59dc <__divsf3>
    3e86:	dc 01       	movw	r26, r24
    3e88:	cb 01       	movw	r24, r22
    3e8a:	80 93 44 03 	sts	0x0344, r24
    3e8e:	90 93 45 03 	sts	0x0345, r25
    3e92:	a0 93 46 03 	sts	0x0346, r26
    3e96:	b0 93 47 03 	sts	0x0347, r27
    3e9a:	e0 90 8b 03 	lds	r14, 0x038B
    3e9e:	f0 90 8c 03 	lds	r15, 0x038C
    3ea2:	00 91 8d 03 	lds	r16, 0x038D
    3ea6:	10 91 8e 03 	lds	r17, 0x038E
    3eaa:	80 91 44 03 	lds	r24, 0x0344
    3eae:	90 91 45 03 	lds	r25, 0x0345
    3eb2:	a0 91 46 03 	lds	r26, 0x0346
    3eb6:	b0 91 47 03 	lds	r27, 0x0347
    3eba:	20 91 87 03 	lds	r18, 0x0387
    3ebe:	30 91 88 03 	lds	r19, 0x0388
    3ec2:	40 91 89 03 	lds	r20, 0x0389
    3ec6:	50 91 8a 03 	lds	r21, 0x038A
    3eca:	bc 01       	movw	r22, r24
    3ecc:	cd 01       	movw	r24, r26
    3ece:	0e 94 38 2e 	call	0x5c70	; 0x5c70 <__mulsf3>
    3ed2:	dc 01       	movw	r26, r24
    3ed4:	cb 01       	movw	r24, r22
    3ed6:	9c 01       	movw	r18, r24
    3ed8:	ad 01       	movw	r20, r26
    3eda:	c8 01       	movw	r24, r16
    3edc:	b7 01       	movw	r22, r14
    3ede:	0e 94 85 2c 	call	0x590a	; 0x590a <__subsf3>
    3ee2:	dc 01       	movw	r26, r24
    3ee4:	cb 01       	movw	r24, r22
    3ee6:	80 93 40 03 	sts	0x0340, r24
    3eea:	90 93 41 03 	sts	0x0341, r25
    3eee:	a0 93 42 03 	sts	0x0342, r26
    3ef2:	b0 93 43 03 	sts	0x0343, r27
    3ef6:	0e 94 27 0c 	call	0x184e	; 0x184e <EEPROM_Write_Temperature>
    3efa:	0e 94 68 0c 	call	0x18d0	; 0x18d0 <EEPROM_Read_Temperature>
    3efe:	84 e0       	ldi	r24, 0x04	; 4
    3f00:	0e 94 23 1d 	call	0x3a46	; 0x3a46 <MENU_Process>
    3f04:	a7 c0       	rjmp	.+334    	; 0x4054 <MENU_Process+0x60e>
    3f06:	80 91 5f 02 	lds	r24, 0x025F
    3f0a:	90 91 60 02 	lds	r25, 0x0260
    3f0e:	e2 e0       	ldi	r30, 0x02	; 2
    3f10:	8a 30       	cpi	r24, 0x0A	; 10
    3f12:	9e 07       	cpc	r25, r30
    3f14:	19 f5       	brne	.+70     	; 0x3f5c <MENU_Process+0x516>
    3f16:	88 e3       	ldi	r24, 0x38	; 56
    3f18:	98 e0       	ldi	r25, 0x08	; 8
    3f1a:	ab e0       	ldi	r26, 0x0B	; 11
    3f1c:	b0 e0       	ldi	r27, 0x00	; 0
    3f1e:	80 93 ce 00 	sts	0x00CE, r24
    3f22:	90 93 cf 00 	sts	0x00CF, r25
    3f26:	a0 93 d0 00 	sts	0x00D0, r26
    3f2a:	b0 93 d1 00 	sts	0x00D1, r27
    3f2e:	10 92 80 03 	sts	0x0380, r1
    3f32:	87 e2       	ldi	r24, 0x27	; 39
    3f34:	92 e0       	ldi	r25, 0x02	; 2
    3f36:	90 93 60 02 	sts	0x0260, r25
    3f3a:	80 93 5f 02 	sts	0x025F, r24
    3f3e:	0e 94 66 0e 	call	0x1ccc	; 0x1ccc <GLCD_Clear>
    3f42:	0e 94 da 20 	call	0x41b4	; 0x41b4 <MENU_Status>
    3f46:	24 ec       	ldi	r18, 0xC4	; 196
    3f48:	35 e2       	ldi	r19, 0x25	; 37
    3f4a:	80 91 99 03 	lds	r24, 0x0399
    3f4e:	88 2f       	mov	r24, r24
    3f50:	90 e0       	ldi	r25, 0x00	; 0
    3f52:	f9 01       	movw	r30, r18
    3f54:	09 95       	icall
    3f56:	0e 94 38 26 	call	0x4c70	; 0x4c70 <MENU_Status_Header2>
    3f5a:	7c c0       	rjmp	.+248    	; 0x4054 <MENU_Process+0x60e>
    3f5c:	80 91 5f 02 	lds	r24, 0x025F
    3f60:	90 91 60 02 	lds	r25, 0x0260
    3f64:	f1 e0       	ldi	r31, 0x01	; 1
    3f66:	87 3c       	cpi	r24, 0xC7	; 199
    3f68:	9f 07       	cpc	r25, r31
    3f6a:	09 f0       	breq	.+2      	; 0x3f6e <MENU_Process+0x528>
    3f6c:	73 c0       	rjmp	.+230    	; 0x4054 <MENU_Process+0x60e>
    3f6e:	80 91 5f 02 	lds	r24, 0x025F
    3f72:	90 91 60 02 	lds	r25, 0x0260
    3f76:	fc 01       	movw	r30, r24
    3f78:	84 81       	ldd	r24, Z+4	; 0x04
    3f7a:	88 23       	and	r24, r24
    3f7c:	d9 f4       	brne	.+54     	; 0x3fb4 <MENU_Process+0x56e>
    3f7e:	10 92 80 03 	sts	0x0380, r1
    3f82:	10 92 7a 03 	sts	0x037A, r1
    3f86:	87 e2       	ldi	r24, 0x27	; 39
    3f88:	92 e0       	ldi	r25, 0x02	; 2
    3f8a:	90 93 60 02 	sts	0x0260, r25
    3f8e:	80 93 5f 02 	sts	0x025F, r24
    3f92:	0e 94 f4 0b 	call	0x17e8	; 0x17e8 <EEPROM_Write_Units>
    3f96:	0e 94 66 0e 	call	0x1ccc	; 0x1ccc <GLCD_Clear>
    3f9a:	0e 94 da 20 	call	0x41b4	; 0x41b4 <MENU_Status>
    3f9e:	24 ec       	ldi	r18, 0xC4	; 196
    3fa0:	35 e2       	ldi	r19, 0x25	; 37
    3fa2:	80 91 99 03 	lds	r24, 0x0399
    3fa6:	88 2f       	mov	r24, r24
    3fa8:	90 e0       	ldi	r25, 0x00	; 0
    3faa:	f9 01       	movw	r30, r18
    3fac:	09 95       	icall
    3fae:	0e 94 38 26 	call	0x4c70	; 0x4c70 <MENU_Status_Header2>
    3fb2:	23 c0       	rjmp	.+70     	; 0x3ffa <MENU_Process+0x5b4>
    3fb4:	80 91 5f 02 	lds	r24, 0x025F
    3fb8:	90 91 60 02 	lds	r25, 0x0260
    3fbc:	fc 01       	movw	r30, r24
    3fbe:	84 81       	ldd	r24, Z+4	; 0x04
    3fc0:	81 30       	cpi	r24, 0x01	; 1
    3fc2:	d9 f4       	brne	.+54     	; 0x3ffa <MENU_Process+0x5b4>
    3fc4:	81 e0       	ldi	r24, 0x01	; 1
    3fc6:	80 93 7a 03 	sts	0x037A, r24
    3fca:	10 92 80 03 	sts	0x0380, r1
    3fce:	87 e2       	ldi	r24, 0x27	; 39
    3fd0:	92 e0       	ldi	r25, 0x02	; 2
    3fd2:	90 93 60 02 	sts	0x0260, r25
    3fd6:	80 93 5f 02 	sts	0x025F, r24
    3fda:	0e 94 f4 0b 	call	0x17e8	; 0x17e8 <EEPROM_Write_Units>
    3fde:	0e 94 66 0e 	call	0x1ccc	; 0x1ccc <GLCD_Clear>
    3fe2:	0e 94 da 20 	call	0x41b4	; 0x41b4 <MENU_Status>
    3fe6:	24 ec       	ldi	r18, 0xC4	; 196
    3fe8:	35 e2       	ldi	r19, 0x25	; 37
    3fea:	80 91 99 03 	lds	r24, 0x0399
    3fee:	88 2f       	mov	r24, r24
    3ff0:	90 e0       	ldi	r25, 0x00	; 0
    3ff2:	f9 01       	movw	r30, r18
    3ff4:	09 95       	icall
    3ff6:	0e 94 38 26 	call	0x4c70	; 0x4c70 <MENU_Status_Header2>
    3ffa:	80 91 71 00 	lds	r24, 0x0071
    3ffe:	81 30       	cpi	r24, 0x01	; 1
    4000:	89 f4       	brne	.+34     	; 0x4024 <MENU_Process+0x5de>
    4002:	80 e0       	ldi	r24, 0x00	; 0
    4004:	63 e0       	ldi	r22, 0x03	; 3
    4006:	41 e2       	ldi	r20, 0x21	; 33
    4008:	0e 94 99 0e 	call	0x1d32	; 0x1d32 <GLCD_SetCursor>
    400c:	81 e3       	ldi	r24, 0x31	; 49
    400e:	0e 94 5a 0f 	call	0x1eb4	; 0x1eb4 <GLCD_DisplayChar>
    4012:	80 e0       	ldi	r24, 0x00	; 0
    4014:	64 e0       	ldi	r22, 0x04	; 4
    4016:	4e e1       	ldi	r20, 0x1E	; 30
    4018:	0e 94 99 0e 	call	0x1d32	; 0x1d32 <GLCD_SetCursor>
    401c:	80 e2       	ldi	r24, 0x20	; 32
    401e:	0e 94 5a 0f 	call	0x1eb4	; 0x1eb4 <GLCD_DisplayChar>
    4022:	18 c0       	rjmp	.+48     	; 0x4054 <MENU_Process+0x60e>
    4024:	80 e0       	ldi	r24, 0x00	; 0
    4026:	63 e0       	ldi	r22, 0x03	; 3
    4028:	41 e2       	ldi	r20, 0x21	; 33
    402a:	0e 94 99 0e 	call	0x1d32	; 0x1d32 <GLCD_SetCursor>
    402e:	80 e2       	ldi	r24, 0x20	; 32
    4030:	0e 94 5a 0f 	call	0x1eb4	; 0x1eb4 <GLCD_DisplayChar>
    4034:	80 e0       	ldi	r24, 0x00	; 0
    4036:	64 e0       	ldi	r22, 0x04	; 4
    4038:	4e e1       	ldi	r20, 0x1E	; 30
    403a:	0e 94 99 0e 	call	0x1d32	; 0x1d32 <GLCD_SetCursor>
    403e:	82 e3       	ldi	r24, 0x32	; 50
    4040:	0e 94 5a 0f 	call	0x1eb4	; 0x1eb4 <GLCD_DisplayChar>
    4044:	07 c0       	rjmp	.+14     	; 0x4054 <MENU_Process+0x60e>
    4046:	00 00       	nop
    4048:	05 c0       	rjmp	.+10     	; 0x4054 <MENU_Process+0x60e>
    404a:	00 00       	nop
    404c:	03 c0       	rjmp	.+6      	; 0x4054 <MENU_Process+0x60e>
    404e:	00 00       	nop
    4050:	01 c0       	rjmp	.+2      	; 0x4054 <MENU_Process+0x60e>
    4052:	00 00       	nop
    4054:	0f 90       	pop	r0
    4056:	cf 91       	pop	r28
    4058:	df 91       	pop	r29
    405a:	1f 91       	pop	r17
    405c:	0f 91       	pop	r16
    405e:	ff 90       	pop	r15
    4060:	ef 90       	pop	r14
    4062:	08 95       	ret

00004064 <MENU_Print_Time>:
    4064:	df 93       	push	r29
    4066:	cf 93       	push	r28
    4068:	00 d0       	rcall	.+0      	; 0x406a <MENU_Print_Time+0x6>
    406a:	00 d0       	rcall	.+0      	; 0x406c <MENU_Print_Time+0x8>
    406c:	cd b7       	in	r28, 0x3d	; 61
    406e:	de b7       	in	r29, 0x3e	; 62
    4070:	9c 83       	std	Y+4, r25	; 0x04
    4072:	8b 83       	std	Y+3, r24	; 0x03
    4074:	8b 81       	ldd	r24, Y+3	; 0x03
    4076:	9c 81       	ldd	r25, Y+4	; 0x04
    4078:	20 e1       	ldi	r18, 0x10	; 16
    407a:	3e e0       	ldi	r19, 0x0E	; 14
    407c:	b9 01       	movw	r22, r18
    407e:	0e 94 c6 2e 	call	0x5d8c	; 0x5d8c <__udivmodhi4>
    4082:	9b 01       	movw	r18, r22
    4084:	c9 01       	movw	r24, r18
    4086:	89 83       	std	Y+1, r24	; 0x01
    4088:	89 81       	ldd	r24, Y+1	; 0x01
    408a:	48 2f       	mov	r20, r24
    408c:	50 e0       	ldi	r21, 0x00	; 0
    408e:	20 e1       	ldi	r18, 0x10	; 16
    4090:	3e e0       	ldi	r19, 0x0E	; 14
    4092:	42 9f       	mul	r20, r18
    4094:	c0 01       	movw	r24, r0
    4096:	43 9f       	mul	r20, r19
    4098:	90 0d       	add	r25, r0
    409a:	52 9f       	mul	r21, r18
    409c:	90 0d       	add	r25, r0
    409e:	11 24       	eor	r1, r1
    40a0:	2b 81       	ldd	r18, Y+3	; 0x03
    40a2:	3c 81       	ldd	r19, Y+4	; 0x04
    40a4:	a9 01       	movw	r20, r18
    40a6:	48 1b       	sub	r20, r24
    40a8:	59 0b       	sbc	r21, r25
    40aa:	ca 01       	movw	r24, r20
    40ac:	9c 83       	std	Y+4, r25	; 0x04
    40ae:	8b 83       	std	Y+3, r24	; 0x03
    40b0:	8b 81       	ldd	r24, Y+3	; 0x03
    40b2:	9c 81       	ldd	r25, Y+4	; 0x04
    40b4:	2c e3       	ldi	r18, 0x3C	; 60
    40b6:	30 e0       	ldi	r19, 0x00	; 0
    40b8:	b9 01       	movw	r22, r18
    40ba:	0e 94 c6 2e 	call	0x5d8c	; 0x5d8c <__udivmodhi4>
    40be:	9b 01       	movw	r18, r22
    40c0:	c9 01       	movw	r24, r18
    40c2:	8a 83       	std	Y+2, r24	; 0x02
    40c4:	89 81       	ldd	r24, Y+1	; 0x01
    40c6:	88 23       	and	r24, r24
    40c8:	b9 f4       	brne	.+46     	; 0x40f8 <MENU_Print_Time+0x94>
    40ca:	89 81       	ldd	r24, Y+1	; 0x01
    40cc:	28 2f       	mov	r18, r24
    40ce:	30 e0       	ldi	r19, 0x00	; 0
    40d0:	00 d0       	rcall	.+0      	; 0x40d2 <MENU_Print_Time+0x6e>
    40d2:	00 d0       	rcall	.+0      	; 0x40d4 <MENU_Print_Time+0x70>
    40d4:	8d b7       	in	r24, 0x3d	; 61
    40d6:	9e b7       	in	r25, 0x3e	; 62
    40d8:	01 96       	adiw	r24, 0x01	; 1
    40da:	46 ee       	ldi	r20, 0xE6	; 230
    40dc:	52 e0       	ldi	r21, 0x02	; 2
    40de:	fc 01       	movw	r30, r24
    40e0:	51 83       	std	Z+1, r21	; 0x01
    40e2:	40 83       	st	Z, r20
    40e4:	fc 01       	movw	r30, r24
    40e6:	33 83       	std	Z+3, r19	; 0x03
    40e8:	22 83       	std	Z+2, r18	; 0x02
    40ea:	0e 94 e3 11 	call	0x23c6	; 0x23c6 <GLCD_Printf>
    40ee:	0f 90       	pop	r0
    40f0:	0f 90       	pop	r0
    40f2:	0f 90       	pop	r0
    40f4:	0f 90       	pop	r0
    40f6:	16 c0       	rjmp	.+44     	; 0x4124 <MENU_Print_Time+0xc0>
    40f8:	89 81       	ldd	r24, Y+1	; 0x01
    40fa:	28 2f       	mov	r18, r24
    40fc:	30 e0       	ldi	r19, 0x00	; 0
    40fe:	00 d0       	rcall	.+0      	; 0x4100 <MENU_Print_Time+0x9c>
    4100:	00 d0       	rcall	.+0      	; 0x4102 <MENU_Print_Time+0x9e>
    4102:	8d b7       	in	r24, 0x3d	; 61
    4104:	9e b7       	in	r25, 0x3e	; 62
    4106:	01 96       	adiw	r24, 0x01	; 1
    4108:	48 ee       	ldi	r20, 0xE8	; 232
    410a:	52 e0       	ldi	r21, 0x02	; 2
    410c:	fc 01       	movw	r30, r24
    410e:	51 83       	std	Z+1, r21	; 0x01
    4110:	40 83       	st	Z, r20
    4112:	fc 01       	movw	r30, r24
    4114:	33 83       	std	Z+3, r19	; 0x03
    4116:	22 83       	std	Z+2, r18	; 0x02
    4118:	0e 94 e3 11 	call	0x23c6	; 0x23c6 <GLCD_Printf>
    411c:	0f 90       	pop	r0
    411e:	0f 90       	pop	r0
    4120:	0f 90       	pop	r0
    4122:	0f 90       	pop	r0
    4124:	8a 81       	ldd	r24, Y+2	; 0x02
    4126:	88 23       	and	r24, r24
    4128:	71 f4       	brne	.+28     	; 0x4146 <MENU_Print_Time+0xe2>
    412a:	00 d0       	rcall	.+0      	; 0x412c <MENU_Print_Time+0xc8>
    412c:	8d b7       	in	r24, 0x3d	; 61
    412e:	9e b7       	in	r25, 0x3e	; 62
    4130:	01 96       	adiw	r24, 0x01	; 1
    4132:	2b ee       	ldi	r18, 0xEB	; 235
    4134:	32 e0       	ldi	r19, 0x02	; 2
    4136:	fc 01       	movw	r30, r24
    4138:	31 83       	std	Z+1, r19	; 0x01
    413a:	20 83       	st	Z, r18
    413c:	0e 94 e3 11 	call	0x23c6	; 0x23c6 <GLCD_Printf>
    4140:	0f 90       	pop	r0
    4142:	0f 90       	pop	r0
    4144:	30 c0       	rjmp	.+96     	; 0x41a6 <MENU_Print_Time+0x142>
    4146:	8a 81       	ldd	r24, Y+2	; 0x02
    4148:	8a 30       	cpi	r24, 0x0A	; 10
    414a:	b8 f4       	brcc	.+46     	; 0x417a <MENU_Print_Time+0x116>
    414c:	8a 81       	ldd	r24, Y+2	; 0x02
    414e:	28 2f       	mov	r18, r24
    4150:	30 e0       	ldi	r19, 0x00	; 0
    4152:	00 d0       	rcall	.+0      	; 0x4154 <MENU_Print_Time+0xf0>
    4154:	00 d0       	rcall	.+0      	; 0x4156 <MENU_Print_Time+0xf2>
    4156:	8d b7       	in	r24, 0x3d	; 61
    4158:	9e b7       	in	r25, 0x3e	; 62
    415a:	01 96       	adiw	r24, 0x01	; 1
    415c:	4f ee       	ldi	r20, 0xEF	; 239
    415e:	52 e0       	ldi	r21, 0x02	; 2
    4160:	fc 01       	movw	r30, r24
    4162:	51 83       	std	Z+1, r21	; 0x01
    4164:	40 83       	st	Z, r20
    4166:	fc 01       	movw	r30, r24
    4168:	33 83       	std	Z+3, r19	; 0x03
    416a:	22 83       	std	Z+2, r18	; 0x02
    416c:	0e 94 e3 11 	call	0x23c6	; 0x23c6 <GLCD_Printf>
    4170:	0f 90       	pop	r0
    4172:	0f 90       	pop	r0
    4174:	0f 90       	pop	r0
    4176:	0f 90       	pop	r0
    4178:	16 c0       	rjmp	.+44     	; 0x41a6 <MENU_Print_Time+0x142>
    417a:	8a 81       	ldd	r24, Y+2	; 0x02
    417c:	28 2f       	mov	r18, r24
    417e:	30 e0       	ldi	r19, 0x00	; 0
    4180:	00 d0       	rcall	.+0      	; 0x4182 <MENU_Print_Time+0x11e>
    4182:	00 d0       	rcall	.+0      	; 0x4184 <MENU_Print_Time+0x120>
    4184:	8d b7       	in	r24, 0x3d	; 61
    4186:	9e b7       	in	r25, 0x3e	; 62
    4188:	01 96       	adiw	r24, 0x01	; 1
    418a:	44 ef       	ldi	r20, 0xF4	; 244
    418c:	52 e0       	ldi	r21, 0x02	; 2
    418e:	fc 01       	movw	r30, r24
    4190:	51 83       	std	Z+1, r21	; 0x01
    4192:	40 83       	st	Z, r20
    4194:	fc 01       	movw	r30, r24
    4196:	33 83       	std	Z+3, r19	; 0x03
    4198:	22 83       	std	Z+2, r18	; 0x02
    419a:	0e 94 e3 11 	call	0x23c6	; 0x23c6 <GLCD_Printf>
    419e:	0f 90       	pop	r0
    41a0:	0f 90       	pop	r0
    41a2:	0f 90       	pop	r0
    41a4:	0f 90       	pop	r0
    41a6:	0f 90       	pop	r0
    41a8:	0f 90       	pop	r0
    41aa:	0f 90       	pop	r0
    41ac:	0f 90       	pop	r0
    41ae:	cf 91       	pop	r28
    41b0:	df 91       	pop	r29
    41b2:	08 95       	ret

000041b4 <MENU_Status>:
    41b4:	df 93       	push	r29
    41b6:	cf 93       	push	r28
    41b8:	cd b7       	in	r28, 0x3d	; 61
    41ba:	de b7       	in	r29, 0x3e	; 62
    41bc:	64 97       	sbiw	r28, 0x14	; 20
    41be:	0f b6       	in	r0, 0x3f	; 63
    41c0:	f8 94       	cli
    41c2:	de bf       	out	0x3e, r29	; 62
    41c4:	0f be       	out	0x3f, r0	; 63
    41c6:	cd bf       	out	0x3d, r28	; 61
    41c8:	80 e0       	ldi	r24, 0x00	; 0
    41ca:	67 e0       	ldi	r22, 0x07	; 7
    41cc:	4a e0       	ldi	r20, 0x0A	; 10
    41ce:	0e 94 99 0e 	call	0x1d32	; 0x1d32 <GLCD_SetCursor>
    41d2:	0e 94 cb 29 	call	0x5396	; 0x5396 <TEMPERATURE_Calculate>
    41d6:	0e 94 12 2a 	call	0x5424	; 0x5424 <TEMPERATURE_Display>
    41da:	80 91 ce 00 	lds	r24, 0x00CE
    41de:	90 91 cf 00 	lds	r25, 0x00CF
    41e2:	a0 91 d0 00 	lds	r26, 0x00D0
    41e6:	b0 91 d1 00 	lds	r27, 0x00D1
    41ea:	81 31       	cpi	r24, 0x11	; 17
    41ec:	2e e0       	ldi	r18, 0x0E	; 14
    41ee:	92 07       	cpc	r25, r18
    41f0:	20 e0       	ldi	r18, 0x00	; 0
    41f2:	a2 07       	cpc	r26, r18
    41f4:	20 e0       	ldi	r18, 0x00	; 0
    41f6:	b2 07       	cpc	r27, r18
    41f8:	08 f4       	brcc	.+2      	; 0x41fc <MENU_Status+0x48>
    41fa:	4c c0       	rjmp	.+152    	; 0x4294 <MENU_Status+0xe0>
    41fc:	80 91 99 03 	lds	r24, 0x0399
    4200:	82 30       	cpi	r24, 0x02	; 2
    4202:	99 f4       	brne	.+38     	; 0x422a <MENU_Status+0x76>
    4204:	80 91 ce 00 	lds	r24, 0x00CE
    4208:	90 91 cf 00 	lds	r25, 0x00CF
    420c:	a0 91 d0 00 	lds	r26, 0x00D0
    4210:	b0 91 d1 00 	lds	r27, 0x00D1
    4214:	01 97       	sbiw	r24, 0x01	; 1
    4216:	a1 09       	sbc	r26, r1
    4218:	b1 09       	sbc	r27, r1
    421a:	80 93 ce 00 	sts	0x00CE, r24
    421e:	90 93 cf 00 	sts	0x00CF, r25
    4222:	a0 93 d0 00 	sts	0x00D0, r26
    4226:	b0 93 d1 00 	sts	0x00D1, r27
    422a:	81 e0       	ldi	r24, 0x01	; 1
    422c:	67 e0       	ldi	r22, 0x07	; 7
    422e:	44 e1       	ldi	r20, 0x14	; 20
    4230:	0e 94 99 0e 	call	0x1d32	; 0x1d32 <GLCD_SetCursor>
    4234:	80 91 ce 00 	lds	r24, 0x00CE
    4238:	90 91 cf 00 	lds	r25, 0x00CF
    423c:	a0 91 d0 00 	lds	r26, 0x00D0
    4240:	b0 91 d1 00 	lds	r27, 0x00D1
    4244:	20 e1       	ldi	r18, 0x10	; 16
    4246:	3e e0       	ldi	r19, 0x0E	; 14
    4248:	40 e0       	ldi	r20, 0x00	; 0
    424a:	50 e0       	ldi	r21, 0x00	; 0
    424c:	bc 01       	movw	r22, r24
    424e:	cd 01       	movw	r24, r26
    4250:	0e 94 da 2e 	call	0x5db4	; 0x5db4 <__udivmodsi4>
    4254:	da 01       	movw	r26, r20
    4256:	c9 01       	movw	r24, r18
    4258:	00 d0       	rcall	.+0      	; 0x425a <MENU_Status+0xa6>
    425a:	00 d0       	rcall	.+0      	; 0x425c <MENU_Status+0xa8>
    425c:	00 d0       	rcall	.+0      	; 0x425e <MENU_Status+0xaa>
    425e:	2d b7       	in	r18, 0x3d	; 61
    4260:	3e b7       	in	r19, 0x3e	; 62
    4262:	2f 5f       	subi	r18, 0xFF	; 255
    4264:	3f 4f       	sbci	r19, 0xFF	; 255
    4266:	48 ef       	ldi	r20, 0xF8	; 248
    4268:	52 e0       	ldi	r21, 0x02	; 2
    426a:	f9 01       	movw	r30, r18
    426c:	51 83       	std	Z+1, r21	; 0x01
    426e:	40 83       	st	Z, r20
    4270:	f9 01       	movw	r30, r18
    4272:	82 83       	std	Z+2, r24	; 0x02
    4274:	93 83       	std	Z+3, r25	; 0x03
    4276:	a4 83       	std	Z+4, r26	; 0x04
    4278:	b5 83       	std	Z+5, r27	; 0x05
    427a:	0e 94 e3 11 	call	0x23c6	; 0x23c6 <GLCD_Printf>
    427e:	8d b7       	in	r24, 0x3d	; 61
    4280:	9e b7       	in	r25, 0x3e	; 62
    4282:	06 96       	adiw	r24, 0x06	; 6
    4284:	0f b6       	in	r0, 0x3f	; 63
    4286:	f8 94       	cli
    4288:	9e bf       	out	0x3e, r25	; 62
    428a:	0f be       	out	0x3f, r0	; 63
    428c:	8d bf       	out	0x3d, r24	; 61
    428e:	0e 94 02 0c 	call	0x1804	; 0x1804 <EEPROM_Write_Filter>
    4292:	17 c0       	rjmp	.+46     	; 0x42c2 <MENU_Status+0x10e>
    4294:	81 e0       	ldi	r24, 0x01	; 1
    4296:	67 e0       	ldi	r22, 0x07	; 7
    4298:	44 e1       	ldi	r20, 0x14	; 20
    429a:	0e 94 99 0e 	call	0x1d32	; 0x1d32 <GLCD_SetCursor>
    429e:	00 d0       	rcall	.+0      	; 0x42a0 <MENU_Status+0xec>
    42a0:	8d b7       	in	r24, 0x3d	; 61
    42a2:	9e b7       	in	r25, 0x3e	; 62
    42a4:	01 96       	adiw	r24, 0x01	; 1
    42a6:	20 e0       	ldi	r18, 0x00	; 0
    42a8:	33 e0       	ldi	r19, 0x03	; 3
    42aa:	fc 01       	movw	r30, r24
    42ac:	31 83       	std	Z+1, r19	; 0x01
    42ae:	20 83       	st	Z, r18
    42b0:	0e 94 e3 11 	call	0x23c6	; 0x23c6 <GLCD_Printf>
    42b4:	0f 90       	pop	r0
    42b6:	0f 90       	pop	r0
    42b8:	80 91 7c 03 	lds	r24, 0x037C
    42bc:	84 60       	ori	r24, 0x04	; 4
    42be:	80 93 7c 03 	sts	0x037C, r24
    42c2:	80 91 83 00 	lds	r24, 0x0083
    42c6:	88 23       	and	r24, r24
    42c8:	09 f0       	breq	.+2      	; 0x42cc <MENU_Status+0x118>
    42ca:	28 c4       	rjmp	.+2128   	; 0x4b1c <MENU_Status+0x968>
    42cc:	80 91 71 00 	lds	r24, 0x0071
    42d0:	88 23       	and	r24, r24
    42d2:	09 f0       	breq	.+2      	; 0x42d6 <MENU_Status+0x122>
    42d4:	13 c2       	rjmp	.+1062   	; 0x46fc <MENU_Status+0x548>
    42d6:	80 e0       	ldi	r24, 0x00	; 0
    42d8:	65 e0       	ldi	r22, 0x05	; 5
    42da:	42 e0       	ldi	r20, 0x02	; 2
    42dc:	0e 94 99 0e 	call	0x1d32	; 0x1d32 <GLCD_SetCursor>
    42e0:	83 e6       	ldi	r24, 0x63	; 99
    42e2:	0e 94 5a 0f 	call	0x1eb4	; 0x1eb4 <GLCD_DisplayChar>
    42e6:	80 91 7a 03 	lds	r24, 0x037A
    42ea:	81 30       	cpi	r24, 0x01	; 1
    42ec:	09 f0       	breq	.+2      	; 0x42f0 <MENU_Status+0x13c>
    42ee:	0a c1       	rjmp	.+532    	; 0x4504 <MENU_Status+0x350>
    42f0:	0e 94 40 09 	call	0x1280	; 0x1280 <COND_Get_Kohm>
    42f4:	dc 01       	movw	r26, r24
    42f6:	cb 01       	movw	r24, r22
    42f8:	8d 83       	std	Y+5, r24	; 0x05
    42fa:	9e 83       	std	Y+6, r25	; 0x06
    42fc:	af 83       	std	Y+7, r26	; 0x07
    42fe:	b8 87       	std	Y+8, r27	; 0x08
    4300:	8d 81       	ldd	r24, Y+5	; 0x05
    4302:	9e 81       	ldd	r25, Y+6	; 0x06
    4304:	af 81       	ldd	r26, Y+7	; 0x07
    4306:	b8 85       	ldd	r27, Y+8	; 0x08
    4308:	8a 30       	cpi	r24, 0x0A	; 10
    430a:	91 05       	cpc	r25, r1
    430c:	a1 05       	cpc	r26, r1
    430e:	b1 05       	cpc	r27, r1
    4310:	b0 f5       	brcc	.+108    	; 0x437e <MENU_Status+0x1ca>
    4312:	8a e0       	ldi	r24, 0x0A	; 10
    4314:	90 e0       	ldi	r25, 0x00	; 0
    4316:	a0 e0       	ldi	r26, 0x00	; 0
    4318:	b0 e0       	ldi	r27, 0x00	; 0
    431a:	8d 83       	std	Y+5, r24	; 0x05
    431c:	9e 83       	std	Y+6, r25	; 0x06
    431e:	af 83       	std	Y+7, r26	; 0x07
    4320:	b8 87       	std	Y+8, r27	; 0x08
    4322:	80 e0       	ldi	r24, 0x00	; 0
    4324:	62 e0       	ldi	r22, 0x02	; 2
    4326:	4d e2       	ldi	r20, 0x2D	; 45
    4328:	0e 94 99 0e 	call	0x1d32	; 0x1d32 <GLCD_SetCursor>
    432c:	80 e1       	ldi	r24, 0x10	; 16
    432e:	90 e0       	ldi	r25, 0x00	; 0
    4330:	0e 94 2f 19 	call	0x325e	; 0x325e <GLCD_DisplayChar32>
    4334:	80 e0       	ldi	r24, 0x00	; 0
    4336:	62 e0       	ldi	r22, 0x02	; 2
    4338:	4c e3       	ldi	r20, 0x3C	; 60
    433a:	0e 94 99 0e 	call	0x1d32	; 0x1d32 <GLCD_SetCursor>
    433e:	8e e0       	ldi	r24, 0x0E	; 14
    4340:	90 e0       	ldi	r25, 0x00	; 0
    4342:	0e 94 2f 19 	call	0x325e	; 0x325e <GLCD_DisplayChar32>
    4346:	81 e0       	ldi	r24, 0x01	; 1
    4348:	62 e0       	ldi	r22, 0x02	; 2
    434a:	4c e0       	ldi	r20, 0x0C	; 12
    434c:	0e 94 99 0e 	call	0x1d32	; 0x1d32 <GLCD_SetCursor>
    4350:	80 e0       	ldi	r24, 0x00	; 0
    4352:	90 e0       	ldi	r25, 0x00	; 0
    4354:	0e 94 2f 19 	call	0x325e	; 0x325e <GLCD_DisplayChar32>
    4358:	81 e0       	ldi	r24, 0x01	; 1
    435a:	62 e0       	ldi	r22, 0x02	; 2
    435c:	4b e1       	ldi	r20, 0x1B	; 27
    435e:	0e 94 99 0e 	call	0x1d32	; 0x1d32 <GLCD_SetCursor>
    4362:	8a e0       	ldi	r24, 0x0A	; 10
    4364:	90 e0       	ldi	r25, 0x00	; 0
    4366:	0e 94 2f 19 	call	0x325e	; 0x325e <GLCD_DisplayChar32>
    436a:	81 e0       	ldi	r24, 0x01	; 1
    436c:	62 e0       	ldi	r22, 0x02	; 2
    436e:	40 e2       	ldi	r20, 0x20	; 32
    4370:	0e 94 99 0e 	call	0x1d32	; 0x1d32 <GLCD_SetCursor>
    4374:	82 e0       	ldi	r24, 0x02	; 2
    4376:	90 e0       	ldi	r25, 0x00	; 0
    4378:	0e 94 2f 19 	call	0x325e	; 0x325e <GLCD_DisplayChar32>
    437c:	fc c3       	rjmp	.+2040   	; 0x4b76 <MENU_Status+0x9c2>
    437e:	81 e0       	ldi	r24, 0x01	; 1
    4380:	62 e0       	ldi	r22, 0x02	; 2
    4382:	4a e0       	ldi	r20, 0x0A	; 10
    4384:	0e 94 99 0e 	call	0x1d32	; 0x1d32 <GLCD_SetCursor>
    4388:	8a e0       	ldi	r24, 0x0A	; 10
    438a:	90 e0       	ldi	r25, 0x00	; 0
    438c:	0e 94 2f 19 	call	0x325e	; 0x325e <GLCD_DisplayChar32>
    4390:	8d 81       	ldd	r24, Y+5	; 0x05
    4392:	9e 81       	ldd	r25, Y+6	; 0x06
    4394:	af 81       	ldd	r26, Y+7	; 0x07
    4396:	b8 85       	ldd	r27, Y+8	; 0x08
    4398:	20 e1       	ldi	r18, 0x10	; 16
    439a:	37 e2       	ldi	r19, 0x27	; 39
    439c:	40 e0       	ldi	r20, 0x00	; 0
    439e:	50 e0       	ldi	r21, 0x00	; 0
    43a0:	bc 01       	movw	r22, r24
    43a2:	cd 01       	movw	r24, r26
    43a4:	0e 94 da 2e 	call	0x5db4	; 0x5db4 <__udivmodsi4>
    43a8:	da 01       	movw	r26, r20
    43aa:	c9 01       	movw	r24, r18
    43ac:	89 83       	std	Y+1, r24	; 0x01
    43ae:	8d 81       	ldd	r24, Y+5	; 0x05
    43b0:	9e 81       	ldd	r25, Y+6	; 0x06
    43b2:	af 81       	ldd	r26, Y+7	; 0x07
    43b4:	b8 85       	ldd	r27, Y+8	; 0x08
    43b6:	20 e1       	ldi	r18, 0x10	; 16
    43b8:	37 e2       	ldi	r19, 0x27	; 39
    43ba:	40 e0       	ldi	r20, 0x00	; 0
    43bc:	50 e0       	ldi	r21, 0x00	; 0
    43be:	bc 01       	movw	r22, r24
    43c0:	cd 01       	movw	r24, r26
    43c2:	0e 94 da 2e 	call	0x5db4	; 0x5db4 <__udivmodsi4>
    43c6:	dc 01       	movw	r26, r24
    43c8:	cb 01       	movw	r24, r22
    43ca:	8d 83       	std	Y+5, r24	; 0x05
    43cc:	9e 83       	std	Y+6, r25	; 0x06
    43ce:	af 83       	std	Y+7, r26	; 0x07
    43d0:	b8 87       	std	Y+8, r27	; 0x08
    43d2:	89 81       	ldd	r24, Y+1	; 0x01
    43d4:	88 23       	and	r24, r24
    43d6:	59 f0       	breq	.+22     	; 0x43ee <MENU_Status+0x23a>
    43d8:	80 e0       	ldi	r24, 0x00	; 0
    43da:	62 e0       	ldi	r22, 0x02	; 2
    43dc:	4a e2       	ldi	r20, 0x2A	; 42
    43de:	0e 94 99 0e 	call	0x1d32	; 0x1d32 <GLCD_SetCursor>
    43e2:	89 81       	ldd	r24, Y+1	; 0x01
    43e4:	88 2f       	mov	r24, r24
    43e6:	90 e0       	ldi	r25, 0x00	; 0
    43e8:	0e 94 2f 19 	call	0x325e	; 0x325e <GLCD_DisplayChar32>
    43ec:	09 c0       	rjmp	.+18     	; 0x4400 <MENU_Status+0x24c>
    43ee:	80 e0       	ldi	r24, 0x00	; 0
    43f0:	62 e0       	ldi	r22, 0x02	; 2
    43f2:	4a e2       	ldi	r20, 0x2A	; 42
    43f4:	0e 94 99 0e 	call	0x1d32	; 0x1d32 <GLCD_SetCursor>
    43f8:	80 e1       	ldi	r24, 0x10	; 16
    43fa:	90 e0       	ldi	r25, 0x00	; 0
    43fc:	0e 94 2f 19 	call	0x325e	; 0x325e <GLCD_DisplayChar32>
    4400:	8d 81       	ldd	r24, Y+5	; 0x05
    4402:	9e 81       	ldd	r25, Y+6	; 0x06
    4404:	af 81       	ldd	r26, Y+7	; 0x07
    4406:	b8 85       	ldd	r27, Y+8	; 0x08
    4408:	28 ee       	ldi	r18, 0xE8	; 232
    440a:	33 e0       	ldi	r19, 0x03	; 3
    440c:	40 e0       	ldi	r20, 0x00	; 0
    440e:	50 e0       	ldi	r21, 0x00	; 0
    4410:	bc 01       	movw	r22, r24
    4412:	cd 01       	movw	r24, r26
    4414:	0e 94 da 2e 	call	0x5db4	; 0x5db4 <__udivmodsi4>
    4418:	da 01       	movw	r26, r20
    441a:	c9 01       	movw	r24, r18
    441c:	89 83       	std	Y+1, r24	; 0x01
    441e:	8d 81       	ldd	r24, Y+5	; 0x05
    4420:	9e 81       	ldd	r25, Y+6	; 0x06
    4422:	af 81       	ldd	r26, Y+7	; 0x07
    4424:	b8 85       	ldd	r27, Y+8	; 0x08
    4426:	28 ee       	ldi	r18, 0xE8	; 232
    4428:	33 e0       	ldi	r19, 0x03	; 3
    442a:	40 e0       	ldi	r20, 0x00	; 0
    442c:	50 e0       	ldi	r21, 0x00	; 0
    442e:	bc 01       	movw	r22, r24
    4430:	cd 01       	movw	r24, r26
    4432:	0e 94 da 2e 	call	0x5db4	; 0x5db4 <__udivmodsi4>
    4436:	dc 01       	movw	r26, r24
    4438:	cb 01       	movw	r24, r22
    443a:	8d 83       	std	Y+5, r24	; 0x05
    443c:	9e 83       	std	Y+6, r25	; 0x06
    443e:	af 83       	std	Y+7, r26	; 0x07
    4440:	b8 87       	std	Y+8, r27	; 0x08
    4442:	80 e0       	ldi	r24, 0x00	; 0
    4444:	62 e0       	ldi	r22, 0x02	; 2
    4446:	4a e3       	ldi	r20, 0x3A	; 58
    4448:	0e 94 99 0e 	call	0x1d32	; 0x1d32 <GLCD_SetCursor>
    444c:	89 81       	ldd	r24, Y+1	; 0x01
    444e:	88 2f       	mov	r24, r24
    4450:	90 e0       	ldi	r25, 0x00	; 0
    4452:	0e 94 2f 19 	call	0x325e	; 0x325e <GLCD_DisplayChar32>
    4456:	8d 81       	ldd	r24, Y+5	; 0x05
    4458:	9e 81       	ldd	r25, Y+6	; 0x06
    445a:	af 81       	ldd	r26, Y+7	; 0x07
    445c:	b8 85       	ldd	r27, Y+8	; 0x08
    445e:	24 e6       	ldi	r18, 0x64	; 100
    4460:	30 e0       	ldi	r19, 0x00	; 0
    4462:	40 e0       	ldi	r20, 0x00	; 0
    4464:	50 e0       	ldi	r21, 0x00	; 0
    4466:	bc 01       	movw	r22, r24
    4468:	cd 01       	movw	r24, r26
    446a:	0e 94 da 2e 	call	0x5db4	; 0x5db4 <__udivmodsi4>
    446e:	da 01       	movw	r26, r20
    4470:	c9 01       	movw	r24, r18
    4472:	89 83       	std	Y+1, r24	; 0x01
    4474:	8d 81       	ldd	r24, Y+5	; 0x05
    4476:	9e 81       	ldd	r25, Y+6	; 0x06
    4478:	af 81       	ldd	r26, Y+7	; 0x07
    447a:	b8 85       	ldd	r27, Y+8	; 0x08
    447c:	24 e6       	ldi	r18, 0x64	; 100
    447e:	30 e0       	ldi	r19, 0x00	; 0
    4480:	40 e0       	ldi	r20, 0x00	; 0
    4482:	50 e0       	ldi	r21, 0x00	; 0
    4484:	bc 01       	movw	r22, r24
    4486:	cd 01       	movw	r24, r26
    4488:	0e 94 da 2e 	call	0x5db4	; 0x5db4 <__udivmodsi4>
    448c:	dc 01       	movw	r26, r24
    448e:	cb 01       	movw	r24, r22
    4490:	8d 83       	std	Y+5, r24	; 0x05
    4492:	9e 83       	std	Y+6, r25	; 0x06
    4494:	af 83       	std	Y+7, r26	; 0x07
    4496:	b8 87       	std	Y+8, r27	; 0x08
    4498:	81 e0       	ldi	r24, 0x01	; 1
    449a:	62 e0       	ldi	r22, 0x02	; 2
    449c:	40 e1       	ldi	r20, 0x10	; 16
    449e:	0e 94 99 0e 	call	0x1d32	; 0x1d32 <GLCD_SetCursor>
    44a2:	89 81       	ldd	r24, Y+1	; 0x01
    44a4:	88 2f       	mov	r24, r24
    44a6:	90 e0       	ldi	r25, 0x00	; 0
    44a8:	0e 94 2f 19 	call	0x325e	; 0x325e <GLCD_DisplayChar32>
    44ac:	8d 81       	ldd	r24, Y+5	; 0x05
    44ae:	9e 81       	ldd	r25, Y+6	; 0x06
    44b0:	af 81       	ldd	r26, Y+7	; 0x07
    44b2:	b8 85       	ldd	r27, Y+8	; 0x08
    44b4:	2a e0       	ldi	r18, 0x0A	; 10
    44b6:	30 e0       	ldi	r19, 0x00	; 0
    44b8:	40 e0       	ldi	r20, 0x00	; 0
    44ba:	50 e0       	ldi	r21, 0x00	; 0
    44bc:	bc 01       	movw	r22, r24
    44be:	cd 01       	movw	r24, r26
    44c0:	0e 94 da 2e 	call	0x5db4	; 0x5db4 <__udivmodsi4>
    44c4:	da 01       	movw	r26, r20
    44c6:	c9 01       	movw	r24, r18
    44c8:	89 83       	std	Y+1, r24	; 0x01
    44ca:	8d 81       	ldd	r24, Y+5	; 0x05
    44cc:	9e 81       	ldd	r25, Y+6	; 0x06
    44ce:	af 81       	ldd	r26, Y+7	; 0x07
    44d0:	b8 85       	ldd	r27, Y+8	; 0x08
    44d2:	2a e0       	ldi	r18, 0x0A	; 10
    44d4:	30 e0       	ldi	r19, 0x00	; 0
    44d6:	40 e0       	ldi	r20, 0x00	; 0
    44d8:	50 e0       	ldi	r21, 0x00	; 0
    44da:	bc 01       	movw	r22, r24
    44dc:	cd 01       	movw	r24, r26
    44de:	0e 94 da 2e 	call	0x5db4	; 0x5db4 <__udivmodsi4>
    44e2:	dc 01       	movw	r26, r24
    44e4:	cb 01       	movw	r24, r22
    44e6:	8d 83       	std	Y+5, r24	; 0x05
    44e8:	9e 83       	std	Y+6, r25	; 0x06
    44ea:	af 83       	std	Y+7, r26	; 0x07
    44ec:	b8 87       	std	Y+8, r27	; 0x08
    44ee:	81 e0       	ldi	r24, 0x01	; 1
    44f0:	62 e0       	ldi	r22, 0x02	; 2
    44f2:	40 e2       	ldi	r20, 0x20	; 32
    44f4:	0e 94 99 0e 	call	0x1d32	; 0x1d32 <GLCD_SetCursor>
    44f8:	89 81       	ldd	r24, Y+1	; 0x01
    44fa:	88 2f       	mov	r24, r24
    44fc:	90 e0       	ldi	r25, 0x00	; 0
    44fe:	0e 94 2f 19 	call	0x325e	; 0x325e <GLCD_DisplayChar32>
    4502:	39 c3       	rjmp	.+1650   	; 0x4b76 <MENU_Status+0x9c2>
    4504:	0e 94 12 0b 	call	0x1624	; 0x1624 <COND_Get_US>
    4508:	dc 01       	movw	r26, r24
    450a:	cb 01       	movw	r24, r22
    450c:	89 87       	std	Y+9, r24	; 0x09
    450e:	9a 87       	std	Y+10, r25	; 0x0a
    4510:	ab 87       	std	Y+11, r26	; 0x0b
    4512:	bc 87       	std	Y+12, r27	; 0x0c
    4514:	89 85       	ldd	r24, Y+9	; 0x09
    4516:	9a 85       	ldd	r25, Y+10	; 0x0a
    4518:	ab 85       	ldd	r26, Y+11	; 0x0b
    451a:	bc 85       	ldd	r27, Y+12	; 0x0c
    451c:	81 34       	cpi	r24, 0x41	; 65
    451e:	fc e9       	ldi	r31, 0x9C	; 156
    4520:	9f 07       	cpc	r25, r31
    4522:	f0 e0       	ldi	r31, 0x00	; 0
    4524:	af 07       	cpc	r26, r31
    4526:	f0 e0       	ldi	r31, 0x00	; 0
    4528:	bf 07       	cpc	r27, r31
    452a:	70 f1       	brcs	.+92     	; 0x4588 <MENU_Status+0x3d4>
    452c:	80 e0       	ldi	r24, 0x00	; 0
    452e:	62 e0       	ldi	r22, 0x02	; 2
    4530:	44 e3       	ldi	r20, 0x34	; 52
    4532:	0e 94 99 0e 	call	0x1d32	; 0x1d32 <GLCD_SetCursor>
    4536:	80 e1       	ldi	r24, 0x10	; 16
    4538:	90 e0       	ldi	r25, 0x00	; 0
    453a:	0e 94 2f 19 	call	0x325e	; 0x325e <GLCD_DisplayChar32>
    453e:	80 e0       	ldi	r24, 0x00	; 0
    4540:	62 e0       	ldi	r22, 0x02	; 2
    4542:	49 e2       	ldi	r20, 0x29	; 41
    4544:	0e 94 99 0e 	call	0x1d32	; 0x1d32 <GLCD_SetCursor>
    4548:	80 e1       	ldi	r24, 0x10	; 16
    454a:	90 e0       	ldi	r25, 0x00	; 0
    454c:	0e 94 2f 19 	call	0x325e	; 0x325e <GLCD_DisplayChar32>
    4550:	81 e0       	ldi	r24, 0x01	; 1
    4552:	62 e0       	ldi	r22, 0x02	; 2
    4554:	41 e0       	ldi	r20, 0x01	; 1
    4556:	0e 94 99 0e 	call	0x1d32	; 0x1d32 <GLCD_SetCursor>
    455a:	8d e0       	ldi	r24, 0x0D	; 13
    455c:	90 e0       	ldi	r25, 0x00	; 0
    455e:	0e 94 2f 19 	call	0x325e	; 0x325e <GLCD_DisplayChar32>
    4562:	81 e0       	ldi	r24, 0x01	; 1
    4564:	62 e0       	ldi	r22, 0x02	; 2
    4566:	40 e1       	ldi	r20, 0x10	; 16
    4568:	0e 94 99 0e 	call	0x1d32	; 0x1d32 <GLCD_SetCursor>
    456c:	84 e0       	ldi	r24, 0x04	; 4
    456e:	90 e0       	ldi	r25, 0x00	; 0
    4570:	0e 94 2f 19 	call	0x325e	; 0x325e <GLCD_DisplayChar32>
    4574:	81 e0       	ldi	r24, 0x01	; 1
    4576:	62 e0       	ldi	r22, 0x02	; 2
    4578:	40 e2       	ldi	r20, 0x20	; 32
    457a:	0e 94 99 0e 	call	0x1d32	; 0x1d32 <GLCD_SetCursor>
    457e:	80 e0       	ldi	r24, 0x00	; 0
    4580:	90 e0       	ldi	r25, 0x00	; 0
    4582:	0e 94 2f 19 	call	0x325e	; 0x325e <GLCD_DisplayChar32>
    4586:	f7 c2       	rjmp	.+1518   	; 0x4b76 <MENU_Status+0x9c2>
    4588:	89 85       	ldd	r24, Y+9	; 0x09
    458a:	9a 85       	ldd	r25, Y+10	; 0x0a
    458c:	ab 85       	ldd	r26, Y+11	; 0x0b
    458e:	bc 85       	ldd	r27, Y+12	; 0x0c
    4590:	20 e1       	ldi	r18, 0x10	; 16
    4592:	37 e2       	ldi	r19, 0x27	; 39
    4594:	40 e0       	ldi	r20, 0x00	; 0
    4596:	50 e0       	ldi	r21, 0x00	; 0
    4598:	bc 01       	movw	r22, r24
    459a:	cd 01       	movw	r24, r26
    459c:	0e 94 da 2e 	call	0x5db4	; 0x5db4 <__udivmodsi4>
    45a0:	da 01       	movw	r26, r20
    45a2:	c9 01       	movw	r24, r18
    45a4:	8a 83       	std	Y+2, r24	; 0x02
    45a6:	89 85       	ldd	r24, Y+9	; 0x09
    45a8:	9a 85       	ldd	r25, Y+10	; 0x0a
    45aa:	ab 85       	ldd	r26, Y+11	; 0x0b
    45ac:	bc 85       	ldd	r27, Y+12	; 0x0c
    45ae:	20 e1       	ldi	r18, 0x10	; 16
    45b0:	37 e2       	ldi	r19, 0x27	; 39
    45b2:	40 e0       	ldi	r20, 0x00	; 0
    45b4:	50 e0       	ldi	r21, 0x00	; 0
    45b6:	bc 01       	movw	r22, r24
    45b8:	cd 01       	movw	r24, r26
    45ba:	0e 94 da 2e 	call	0x5db4	; 0x5db4 <__udivmodsi4>
    45be:	dc 01       	movw	r26, r24
    45c0:	cb 01       	movw	r24, r22
    45c2:	89 87       	std	Y+9, r24	; 0x09
    45c4:	9a 87       	std	Y+10, r25	; 0x0a
    45c6:	ab 87       	std	Y+11, r26	; 0x0b
    45c8:	bc 87       	std	Y+12, r27	; 0x0c
    45ca:	8a 81       	ldd	r24, Y+2	; 0x02
    45cc:	88 23       	and	r24, r24
    45ce:	59 f0       	breq	.+22     	; 0x45e6 <MENU_Status+0x432>
    45d0:	80 e0       	ldi	r24, 0x00	; 0
    45d2:	62 e0       	ldi	r22, 0x02	; 2
    45d4:	4a e2       	ldi	r20, 0x2A	; 42
    45d6:	0e 94 99 0e 	call	0x1d32	; 0x1d32 <GLCD_SetCursor>
    45da:	8a 81       	ldd	r24, Y+2	; 0x02
    45dc:	88 2f       	mov	r24, r24
    45de:	90 e0       	ldi	r25, 0x00	; 0
    45e0:	0e 94 2f 19 	call	0x325e	; 0x325e <GLCD_DisplayChar32>
    45e4:	09 c0       	rjmp	.+18     	; 0x45f8 <MENU_Status+0x444>
    45e6:	80 e0       	ldi	r24, 0x00	; 0
    45e8:	62 e0       	ldi	r22, 0x02	; 2
    45ea:	4a e2       	ldi	r20, 0x2A	; 42
    45ec:	0e 94 99 0e 	call	0x1d32	; 0x1d32 <GLCD_SetCursor>
    45f0:	80 e1       	ldi	r24, 0x10	; 16
    45f2:	90 e0       	ldi	r25, 0x00	; 0
    45f4:	0e 94 2f 19 	call	0x325e	; 0x325e <GLCD_DisplayChar32>
    45f8:	89 85       	ldd	r24, Y+9	; 0x09
    45fa:	9a 85       	ldd	r25, Y+10	; 0x0a
    45fc:	ab 85       	ldd	r26, Y+11	; 0x0b
    45fe:	bc 85       	ldd	r27, Y+12	; 0x0c
    4600:	28 ee       	ldi	r18, 0xE8	; 232
    4602:	33 e0       	ldi	r19, 0x03	; 3
    4604:	40 e0       	ldi	r20, 0x00	; 0
    4606:	50 e0       	ldi	r21, 0x00	; 0
    4608:	bc 01       	movw	r22, r24
    460a:	cd 01       	movw	r24, r26
    460c:	0e 94 da 2e 	call	0x5db4	; 0x5db4 <__udivmodsi4>
    4610:	da 01       	movw	r26, r20
    4612:	c9 01       	movw	r24, r18
    4614:	8a 83       	std	Y+2, r24	; 0x02
    4616:	89 85       	ldd	r24, Y+9	; 0x09
    4618:	9a 85       	ldd	r25, Y+10	; 0x0a
    461a:	ab 85       	ldd	r26, Y+11	; 0x0b
    461c:	bc 85       	ldd	r27, Y+12	; 0x0c
    461e:	28 ee       	ldi	r18, 0xE8	; 232
    4620:	33 e0       	ldi	r19, 0x03	; 3
    4622:	40 e0       	ldi	r20, 0x00	; 0
    4624:	50 e0       	ldi	r21, 0x00	; 0
    4626:	bc 01       	movw	r22, r24
    4628:	cd 01       	movw	r24, r26
    462a:	0e 94 da 2e 	call	0x5db4	; 0x5db4 <__udivmodsi4>
    462e:	dc 01       	movw	r26, r24
    4630:	cb 01       	movw	r24, r22
    4632:	89 87       	std	Y+9, r24	; 0x09
    4634:	9a 87       	std	Y+10, r25	; 0x0a
    4636:	ab 87       	std	Y+11, r26	; 0x0b
    4638:	bc 87       	std	Y+12, r27	; 0x0c
    463a:	80 e0       	ldi	r24, 0x00	; 0
    463c:	62 e0       	ldi	r22, 0x02	; 2
    463e:	40 e0       	ldi	r20, 0x00	; 0
    4640:	0e 94 99 0e 	call	0x1d32	; 0x1d32 <GLCD_SetCursor>
    4644:	8a 81       	ldd	r24, Y+2	; 0x02
    4646:	88 2f       	mov	r24, r24
    4648:	90 e0       	ldi	r25, 0x00	; 0
    464a:	0e 94 2f 19 	call	0x325e	; 0x325e <GLCD_DisplayChar32>
    464e:	89 85       	ldd	r24, Y+9	; 0x09
    4650:	9a 85       	ldd	r25, Y+10	; 0x0a
    4652:	ab 85       	ldd	r26, Y+11	; 0x0b
    4654:	bc 85       	ldd	r27, Y+12	; 0x0c
    4656:	24 e6       	ldi	r18, 0x64	; 100
    4658:	30 e0       	ldi	r19, 0x00	; 0
    465a:	40 e0       	ldi	r20, 0x00	; 0
    465c:	50 e0       	ldi	r21, 0x00	; 0
    465e:	bc 01       	movw	r22, r24
    4660:	cd 01       	movw	r24, r26
    4662:	0e 94 da 2e 	call	0x5db4	; 0x5db4 <__udivmodsi4>
    4666:	da 01       	movw	r26, r20
    4668:	c9 01       	movw	r24, r18
    466a:	8a 83       	std	Y+2, r24	; 0x02
    466c:	89 85       	ldd	r24, Y+9	; 0x09
    466e:	9a 85       	ldd	r25, Y+10	; 0x0a
    4670:	ab 85       	ldd	r26, Y+11	; 0x0b
    4672:	bc 85       	ldd	r27, Y+12	; 0x0c
    4674:	24 e6       	ldi	r18, 0x64	; 100
    4676:	30 e0       	ldi	r19, 0x00	; 0
    4678:	40 e0       	ldi	r20, 0x00	; 0
    467a:	50 e0       	ldi	r21, 0x00	; 0
    467c:	bc 01       	movw	r22, r24
    467e:	cd 01       	movw	r24, r26
    4680:	0e 94 da 2e 	call	0x5db4	; 0x5db4 <__udivmodsi4>
    4684:	dc 01       	movw	r26, r24
    4686:	cb 01       	movw	r24, r22
    4688:	89 87       	std	Y+9, r24	; 0x09
    468a:	9a 87       	std	Y+10, r25	; 0x0a
    468c:	ab 87       	std	Y+11, r26	; 0x0b
    468e:	bc 87       	std	Y+12, r27	; 0x0c
    4690:	81 e0       	ldi	r24, 0x01	; 1
    4692:	62 e0       	ldi	r22, 0x02	; 2
    4694:	40 e1       	ldi	r20, 0x10	; 16
    4696:	0e 94 99 0e 	call	0x1d32	; 0x1d32 <GLCD_SetCursor>
    469a:	8a 81       	ldd	r24, Y+2	; 0x02
    469c:	88 2f       	mov	r24, r24
    469e:	90 e0       	ldi	r25, 0x00	; 0
    46a0:	0e 94 2f 19 	call	0x325e	; 0x325e <GLCD_DisplayChar32>
    46a4:	89 85       	ldd	r24, Y+9	; 0x09
    46a6:	9a 85       	ldd	r25, Y+10	; 0x0a
    46a8:	ab 85       	ldd	r26, Y+11	; 0x0b
    46aa:	bc 85       	ldd	r27, Y+12	; 0x0c
    46ac:	2a e0       	ldi	r18, 0x0A	; 10
    46ae:	30 e0       	ldi	r19, 0x00	; 0
    46b0:	40 e0       	ldi	r20, 0x00	; 0
    46b2:	50 e0       	ldi	r21, 0x00	; 0
    46b4:	bc 01       	movw	r22, r24
    46b6:	cd 01       	movw	r24, r26
    46b8:	0e 94 da 2e 	call	0x5db4	; 0x5db4 <__udivmodsi4>
    46bc:	da 01       	movw	r26, r20
    46be:	c9 01       	movw	r24, r18
    46c0:	8a 83       	std	Y+2, r24	; 0x02
    46c2:	89 85       	ldd	r24, Y+9	; 0x09
    46c4:	9a 85       	ldd	r25, Y+10	; 0x0a
    46c6:	ab 85       	ldd	r26, Y+11	; 0x0b
    46c8:	bc 85       	ldd	r27, Y+12	; 0x0c
    46ca:	2a e0       	ldi	r18, 0x0A	; 10
    46cc:	30 e0       	ldi	r19, 0x00	; 0
    46ce:	40 e0       	ldi	r20, 0x00	; 0
    46d0:	50 e0       	ldi	r21, 0x00	; 0
    46d2:	bc 01       	movw	r22, r24
    46d4:	cd 01       	movw	r24, r26
    46d6:	0e 94 da 2e 	call	0x5db4	; 0x5db4 <__udivmodsi4>
    46da:	dc 01       	movw	r26, r24
    46dc:	cb 01       	movw	r24, r22
    46de:	89 87       	std	Y+9, r24	; 0x09
    46e0:	9a 87       	std	Y+10, r25	; 0x0a
    46e2:	ab 87       	std	Y+11, r26	; 0x0b
    46e4:	bc 87       	std	Y+12, r27	; 0x0c
    46e6:	81 e0       	ldi	r24, 0x01	; 1
    46e8:	62 e0       	ldi	r22, 0x02	; 2
    46ea:	40 e2       	ldi	r20, 0x20	; 32
    46ec:	0e 94 99 0e 	call	0x1d32	; 0x1d32 <GLCD_SetCursor>
    46f0:	8a 81       	ldd	r24, Y+2	; 0x02
    46f2:	88 2f       	mov	r24, r24
    46f4:	90 e0       	ldi	r25, 0x00	; 0
    46f6:	0e 94 2f 19 	call	0x325e	; 0x325e <GLCD_DisplayChar32>
    46fa:	3d c2       	rjmp	.+1146   	; 0x4b76 <MENU_Status+0x9c2>
    46fc:	80 91 7a 03 	lds	r24, 0x037A
    4700:	81 30       	cpi	r24, 0x01	; 1
    4702:	09 f0       	breq	.+2      	; 0x4706 <MENU_Status+0x552>
    4704:	1e c1       	rjmp	.+572    	; 0x4942 <MENU_Status+0x78e>
    4706:	0e 94 40 09 	call	0x1280	; 0x1280 <COND_Get_Kohm>
    470a:	dc 01       	movw	r26, r24
    470c:	cb 01       	movw	r24, r22
    470e:	8d 87       	std	Y+13, r24	; 0x0d
    4710:	9e 87       	std	Y+14, r25	; 0x0e
    4712:	af 87       	std	Y+15, r26	; 0x0f
    4714:	b8 8b       	std	Y+16, r27	; 0x10
    4716:	8d 85       	ldd	r24, Y+13	; 0x0d
    4718:	9e 85       	ldd	r25, Y+14	; 0x0e
    471a:	af 85       	ldd	r26, Y+15	; 0x0f
    471c:	b8 89       	ldd	r27, Y+16	; 0x10
    471e:	8d 35       	cpi	r24, 0x5D	; 93
    4720:	24 e4       	ldi	r18, 0x44	; 68
    4722:	92 07       	cpc	r25, r18
    4724:	20 e0       	ldi	r18, 0x00	; 0
    4726:	a2 07       	cpc	r26, r18
    4728:	20 e0       	ldi	r18, 0x00	; 0
    472a:	b2 07       	cpc	r27, r18
    472c:	40 f0       	brcs	.+16     	; 0x473e <MENU_Status+0x58a>
    472e:	88 e1       	ldi	r24, 0x18	; 24
    4730:	97 e4       	ldi	r25, 0x47	; 71
    4732:	a0 e0       	ldi	r26, 0x00	; 0
    4734:	b0 e0       	ldi	r27, 0x00	; 0
    4736:	8d 87       	std	Y+13, r24	; 0x0d
    4738:	9e 87       	std	Y+14, r25	; 0x0e
    473a:	af 87       	std	Y+15, r26	; 0x0f
    473c:	b8 8b       	std	Y+16, r27	; 0x10
    473e:	8d 85       	ldd	r24, Y+13	; 0x0d
    4740:	9e 85       	ldd	r25, Y+14	; 0x0e
    4742:	af 85       	ldd	r26, Y+15	; 0x0f
    4744:	b8 89       	ldd	r27, Y+16	; 0x10
    4746:	88 3c       	cpi	r24, 0xC8	; 200
    4748:	91 05       	cpc	r25, r1
    474a:	a1 05       	cpc	r26, r1
    474c:	b1 05       	cpc	r27, r1
    474e:	b0 f5       	brcc	.+108    	; 0x47bc <MENU_Status+0x608>
    4750:	88 ec       	ldi	r24, 0xC8	; 200
    4752:	90 e0       	ldi	r25, 0x00	; 0
    4754:	a0 e0       	ldi	r26, 0x00	; 0
    4756:	b0 e0       	ldi	r27, 0x00	; 0
    4758:	8d 87       	std	Y+13, r24	; 0x0d
    475a:	9e 87       	std	Y+14, r25	; 0x0e
    475c:	af 87       	std	Y+15, r26	; 0x0f
    475e:	b8 8b       	std	Y+16, r27	; 0x10
    4760:	80 e0       	ldi	r24, 0x00	; 0
    4762:	62 e0       	ldi	r22, 0x02	; 2
    4764:	4d e2       	ldi	r20, 0x2D	; 45
    4766:	0e 94 99 0e 	call	0x1d32	; 0x1d32 <GLCD_SetCursor>
    476a:	80 e1       	ldi	r24, 0x10	; 16
    476c:	90 e0       	ldi	r25, 0x00	; 0
    476e:	0e 94 2f 19 	call	0x325e	; 0x325e <GLCD_DisplayChar32>
    4772:	80 e0       	ldi	r24, 0x00	; 0
    4774:	62 e0       	ldi	r22, 0x02	; 2
    4776:	4c e3       	ldi	r20, 0x3C	; 60
    4778:	0e 94 99 0e 	call	0x1d32	; 0x1d32 <GLCD_SetCursor>
    477c:	8e e0       	ldi	r24, 0x0E	; 14
    477e:	90 e0       	ldi	r25, 0x00	; 0
    4780:	0e 94 2f 19 	call	0x325e	; 0x325e <GLCD_DisplayChar32>
    4784:	81 e0       	ldi	r24, 0x01	; 1
    4786:	62 e0       	ldi	r22, 0x02	; 2
    4788:	4c e0       	ldi	r20, 0x0C	; 12
    478a:	0e 94 99 0e 	call	0x1d32	; 0x1d32 <GLCD_SetCursor>
    478e:	80 e0       	ldi	r24, 0x00	; 0
    4790:	90 e0       	ldi	r25, 0x00	; 0
    4792:	0e 94 2f 19 	call	0x325e	; 0x325e <GLCD_DisplayChar32>
    4796:	81 e0       	ldi	r24, 0x01	; 1
    4798:	62 e0       	ldi	r22, 0x02	; 2
    479a:	4b e1       	ldi	r20, 0x1B	; 27
    479c:	0e 94 99 0e 	call	0x1d32	; 0x1d32 <GLCD_SetCursor>
    47a0:	8a e0       	ldi	r24, 0x0A	; 10
    47a2:	90 e0       	ldi	r25, 0x00	; 0
    47a4:	0e 94 2f 19 	call	0x325e	; 0x325e <GLCD_DisplayChar32>
    47a8:	81 e0       	ldi	r24, 0x01	; 1
    47aa:	62 e0       	ldi	r22, 0x02	; 2
    47ac:	40 e2       	ldi	r20, 0x20	; 32
    47ae:	0e 94 99 0e 	call	0x1d32	; 0x1d32 <GLCD_SetCursor>
    47b2:	82 e0       	ldi	r24, 0x02	; 2
    47b4:	90 e0       	ldi	r25, 0x00	; 0
    47b6:	0e 94 2f 19 	call	0x325e	; 0x325e <GLCD_DisplayChar32>
    47ba:	dd c1       	rjmp	.+954    	; 0x4b76 <MENU_Status+0x9c2>
    47bc:	81 e0       	ldi	r24, 0x01	; 1
    47be:	62 e0       	ldi	r22, 0x02	; 2
    47c0:	4a e0       	ldi	r20, 0x0A	; 10
    47c2:	0e 94 99 0e 	call	0x1d32	; 0x1d32 <GLCD_SetCursor>
    47c6:	8a e0       	ldi	r24, 0x0A	; 10
    47c8:	90 e0       	ldi	r25, 0x00	; 0
    47ca:	0e 94 2f 19 	call	0x325e	; 0x325e <GLCD_DisplayChar32>
    47ce:	8d 85       	ldd	r24, Y+13	; 0x0d
    47d0:	9e 85       	ldd	r25, Y+14	; 0x0e
    47d2:	af 85       	ldd	r26, Y+15	; 0x0f
    47d4:	b8 89       	ldd	r27, Y+16	; 0x10
    47d6:	20 e1       	ldi	r18, 0x10	; 16
    47d8:	37 e2       	ldi	r19, 0x27	; 39
    47da:	40 e0       	ldi	r20, 0x00	; 0
    47dc:	50 e0       	ldi	r21, 0x00	; 0
    47de:	bc 01       	movw	r22, r24
    47e0:	cd 01       	movw	r24, r26
    47e2:	0e 94 da 2e 	call	0x5db4	; 0x5db4 <__udivmodsi4>
    47e6:	da 01       	movw	r26, r20
    47e8:	c9 01       	movw	r24, r18
    47ea:	8b 83       	std	Y+3, r24	; 0x03
    47ec:	8d 85       	ldd	r24, Y+13	; 0x0d
    47ee:	9e 85       	ldd	r25, Y+14	; 0x0e
    47f0:	af 85       	ldd	r26, Y+15	; 0x0f
    47f2:	b8 89       	ldd	r27, Y+16	; 0x10
    47f4:	20 e1       	ldi	r18, 0x10	; 16
    47f6:	37 e2       	ldi	r19, 0x27	; 39
    47f8:	40 e0       	ldi	r20, 0x00	; 0
    47fa:	50 e0       	ldi	r21, 0x00	; 0
    47fc:	bc 01       	movw	r22, r24
    47fe:	cd 01       	movw	r24, r26
    4800:	0e 94 da 2e 	call	0x5db4	; 0x5db4 <__udivmodsi4>
    4804:	dc 01       	movw	r26, r24
    4806:	cb 01       	movw	r24, r22
    4808:	8d 87       	std	Y+13, r24	; 0x0d
    480a:	9e 87       	std	Y+14, r25	; 0x0e
    480c:	af 87       	std	Y+15, r26	; 0x0f
    480e:	b8 8b       	std	Y+16, r27	; 0x10
    4810:	8b 81       	ldd	r24, Y+3	; 0x03
    4812:	88 23       	and	r24, r24
    4814:	59 f0       	breq	.+22     	; 0x482c <MENU_Status+0x678>
    4816:	80 e0       	ldi	r24, 0x00	; 0
    4818:	62 e0       	ldi	r22, 0x02	; 2
    481a:	4a e2       	ldi	r20, 0x2A	; 42
    481c:	0e 94 99 0e 	call	0x1d32	; 0x1d32 <GLCD_SetCursor>
    4820:	8b 81       	ldd	r24, Y+3	; 0x03
    4822:	88 2f       	mov	r24, r24
    4824:	90 e0       	ldi	r25, 0x00	; 0
    4826:	0e 94 2f 19 	call	0x325e	; 0x325e <GLCD_DisplayChar32>
    482a:	09 c0       	rjmp	.+18     	; 0x483e <MENU_Status+0x68a>
    482c:	80 e0       	ldi	r24, 0x00	; 0
    482e:	62 e0       	ldi	r22, 0x02	; 2
    4830:	4a e2       	ldi	r20, 0x2A	; 42
    4832:	0e 94 99 0e 	call	0x1d32	; 0x1d32 <GLCD_SetCursor>
    4836:	80 e1       	ldi	r24, 0x10	; 16
    4838:	90 e0       	ldi	r25, 0x00	; 0
    483a:	0e 94 2f 19 	call	0x325e	; 0x325e <GLCD_DisplayChar32>
    483e:	8d 85       	ldd	r24, Y+13	; 0x0d
    4840:	9e 85       	ldd	r25, Y+14	; 0x0e
    4842:	af 85       	ldd	r26, Y+15	; 0x0f
    4844:	b8 89       	ldd	r27, Y+16	; 0x10
    4846:	28 ee       	ldi	r18, 0xE8	; 232
    4848:	33 e0       	ldi	r19, 0x03	; 3
    484a:	40 e0       	ldi	r20, 0x00	; 0
    484c:	50 e0       	ldi	r21, 0x00	; 0
    484e:	bc 01       	movw	r22, r24
    4850:	cd 01       	movw	r24, r26
    4852:	0e 94 da 2e 	call	0x5db4	; 0x5db4 <__udivmodsi4>
    4856:	da 01       	movw	r26, r20
    4858:	c9 01       	movw	r24, r18
    485a:	8b 83       	std	Y+3, r24	; 0x03
    485c:	8d 85       	ldd	r24, Y+13	; 0x0d
    485e:	9e 85       	ldd	r25, Y+14	; 0x0e
    4860:	af 85       	ldd	r26, Y+15	; 0x0f
    4862:	b8 89       	ldd	r27, Y+16	; 0x10
    4864:	28 ee       	ldi	r18, 0xE8	; 232
    4866:	33 e0       	ldi	r19, 0x03	; 3
    4868:	40 e0       	ldi	r20, 0x00	; 0
    486a:	50 e0       	ldi	r21, 0x00	; 0
    486c:	bc 01       	movw	r22, r24
    486e:	cd 01       	movw	r24, r26
    4870:	0e 94 da 2e 	call	0x5db4	; 0x5db4 <__udivmodsi4>
    4874:	dc 01       	movw	r26, r24
    4876:	cb 01       	movw	r24, r22
    4878:	8d 87       	std	Y+13, r24	; 0x0d
    487a:	9e 87       	std	Y+14, r25	; 0x0e
    487c:	af 87       	std	Y+15, r26	; 0x0f
    487e:	b8 8b       	std	Y+16, r27	; 0x10
    4880:	80 e0       	ldi	r24, 0x00	; 0
    4882:	62 e0       	ldi	r22, 0x02	; 2
    4884:	4a e3       	ldi	r20, 0x3A	; 58
    4886:	0e 94 99 0e 	call	0x1d32	; 0x1d32 <GLCD_SetCursor>
    488a:	8b 81       	ldd	r24, Y+3	; 0x03
    488c:	88 2f       	mov	r24, r24
    488e:	90 e0       	ldi	r25, 0x00	; 0
    4890:	0e 94 2f 19 	call	0x325e	; 0x325e <GLCD_DisplayChar32>
    4894:	8d 85       	ldd	r24, Y+13	; 0x0d
    4896:	9e 85       	ldd	r25, Y+14	; 0x0e
    4898:	af 85       	ldd	r26, Y+15	; 0x0f
    489a:	b8 89       	ldd	r27, Y+16	; 0x10
    489c:	24 e6       	ldi	r18, 0x64	; 100
    489e:	30 e0       	ldi	r19, 0x00	; 0
    48a0:	40 e0       	ldi	r20, 0x00	; 0
    48a2:	50 e0       	ldi	r21, 0x00	; 0
    48a4:	bc 01       	movw	r22, r24
    48a6:	cd 01       	movw	r24, r26
    48a8:	0e 94 da 2e 	call	0x5db4	; 0x5db4 <__udivmodsi4>
    48ac:	da 01       	movw	r26, r20
    48ae:	c9 01       	movw	r24, r18
    48b0:	8b 83       	std	Y+3, r24	; 0x03
    48b2:	8d 85       	ldd	r24, Y+13	; 0x0d
    48b4:	9e 85       	ldd	r25, Y+14	; 0x0e
    48b6:	af 85       	ldd	r26, Y+15	; 0x0f
    48b8:	b8 89       	ldd	r27, Y+16	; 0x10
    48ba:	24 e6       	ldi	r18, 0x64	; 100
    48bc:	30 e0       	ldi	r19, 0x00	; 0
    48be:	40 e0       	ldi	r20, 0x00	; 0
    48c0:	50 e0       	ldi	r21, 0x00	; 0
    48c2:	bc 01       	movw	r22, r24
    48c4:	cd 01       	movw	r24, r26
    48c6:	0e 94 da 2e 	call	0x5db4	; 0x5db4 <__udivmodsi4>
    48ca:	dc 01       	movw	r26, r24
    48cc:	cb 01       	movw	r24, r22
    48ce:	8d 87       	std	Y+13, r24	; 0x0d
    48d0:	9e 87       	std	Y+14, r25	; 0x0e
    48d2:	af 87       	std	Y+15, r26	; 0x0f
    48d4:	b8 8b       	std	Y+16, r27	; 0x10
    48d6:	81 e0       	ldi	r24, 0x01	; 1
    48d8:	62 e0       	ldi	r22, 0x02	; 2
    48da:	40 e1       	ldi	r20, 0x10	; 16
    48dc:	0e 94 99 0e 	call	0x1d32	; 0x1d32 <GLCD_SetCursor>
    48e0:	8b 81       	ldd	r24, Y+3	; 0x03
    48e2:	88 2f       	mov	r24, r24
    48e4:	90 e0       	ldi	r25, 0x00	; 0
    48e6:	0e 94 2f 19 	call	0x325e	; 0x325e <GLCD_DisplayChar32>
    48ea:	8d 85       	ldd	r24, Y+13	; 0x0d
    48ec:	9e 85       	ldd	r25, Y+14	; 0x0e
    48ee:	af 85       	ldd	r26, Y+15	; 0x0f
    48f0:	b8 89       	ldd	r27, Y+16	; 0x10
    48f2:	2a e0       	ldi	r18, 0x0A	; 10
    48f4:	30 e0       	ldi	r19, 0x00	; 0
    48f6:	40 e0       	ldi	r20, 0x00	; 0
    48f8:	50 e0       	ldi	r21, 0x00	; 0
    48fa:	bc 01       	movw	r22, r24
    48fc:	cd 01       	movw	r24, r26
    48fe:	0e 94 da 2e 	call	0x5db4	; 0x5db4 <__udivmodsi4>
    4902:	da 01       	movw	r26, r20
    4904:	c9 01       	movw	r24, r18
    4906:	8b 83       	std	Y+3, r24	; 0x03
    4908:	8d 85       	ldd	r24, Y+13	; 0x0d
    490a:	9e 85       	ldd	r25, Y+14	; 0x0e
    490c:	af 85       	ldd	r26, Y+15	; 0x0f
    490e:	b8 89       	ldd	r27, Y+16	; 0x10
    4910:	2a e0       	ldi	r18, 0x0A	; 10
    4912:	30 e0       	ldi	r19, 0x00	; 0
    4914:	40 e0       	ldi	r20, 0x00	; 0
    4916:	50 e0       	ldi	r21, 0x00	; 0
    4918:	bc 01       	movw	r22, r24
    491a:	cd 01       	movw	r24, r26
    491c:	0e 94 da 2e 	call	0x5db4	; 0x5db4 <__udivmodsi4>
    4920:	dc 01       	movw	r26, r24
    4922:	cb 01       	movw	r24, r22
    4924:	8d 87       	std	Y+13, r24	; 0x0d
    4926:	9e 87       	std	Y+14, r25	; 0x0e
    4928:	af 87       	std	Y+15, r26	; 0x0f
    492a:	b8 8b       	std	Y+16, r27	; 0x10
    492c:	81 e0       	ldi	r24, 0x01	; 1
    492e:	62 e0       	ldi	r22, 0x02	; 2
    4930:	40 e2       	ldi	r20, 0x20	; 32
    4932:	0e 94 99 0e 	call	0x1d32	; 0x1d32 <GLCD_SetCursor>
    4936:	8b 81       	ldd	r24, Y+3	; 0x03
    4938:	88 2f       	mov	r24, r24
    493a:	90 e0       	ldi	r25, 0x00	; 0
    493c:	0e 94 2f 19 	call	0x325e	; 0x325e <GLCD_DisplayChar32>
    4940:	1a c1       	rjmp	.+564    	; 0x4b76 <MENU_Status+0x9c2>
    4942:	0e 94 12 0b 	call	0x1624	; 0x1624 <COND_Get_US>
    4946:	dc 01       	movw	r26, r24
    4948:	cb 01       	movw	r24, r22
    494a:	89 8b       	std	Y+17, r24	; 0x11
    494c:	9a 8b       	std	Y+18, r25	; 0x12
    494e:	ab 8b       	std	Y+19, r26	; 0x13
    4950:	bc 8b       	std	Y+20, r27	; 0x14
    4952:	89 89       	ldd	r24, Y+17	; 0x11
    4954:	9a 89       	ldd	r25, Y+18	; 0x12
    4956:	ab 89       	ldd	r26, Y+19	; 0x13
    4958:	bc 89       	ldd	r27, Y+20	; 0x14
    495a:	87 33       	cpi	r24, 0x37	; 55
    495c:	91 05       	cpc	r25, r1
    495e:	a1 05       	cpc	r26, r1
    4960:	b1 05       	cpc	r27, r1
    4962:	40 f4       	brcc	.+16     	; 0x4974 <MENU_Status+0x7c0>
    4964:	87 e3       	ldi	r24, 0x37	; 55
    4966:	90 e0       	ldi	r25, 0x00	; 0
    4968:	a0 e0       	ldi	r26, 0x00	; 0
    496a:	b0 e0       	ldi	r27, 0x00	; 0
    496c:	89 8b       	std	Y+17, r24	; 0x11
    496e:	9a 8b       	std	Y+18, r25	; 0x12
    4970:	ab 8b       	std	Y+19, r26	; 0x13
    4972:	bc 8b       	std	Y+20, r27	; 0x14
    4974:	89 89       	ldd	r24, Y+17	; 0x11
    4976:	9a 89       	ldd	r25, Y+18	; 0x12
    4978:	ab 89       	ldd	r26, Y+19	; 0x13
    497a:	bc 89       	ldd	r27, Y+20	; 0x14
    497c:	89 38       	cpi	r24, 0x89	; 137
    497e:	e3 e1       	ldi	r30, 0x13	; 19
    4980:	9e 07       	cpc	r25, r30
    4982:	e0 e0       	ldi	r30, 0x00	; 0
    4984:	ae 07       	cpc	r26, r30
    4986:	e0 e0       	ldi	r30, 0x00	; 0
    4988:	be 07       	cpc	r27, r30
    498a:	70 f1       	brcs	.+92     	; 0x49e8 <MENU_Status+0x834>
    498c:	80 e0       	ldi	r24, 0x00	; 0
    498e:	62 e0       	ldi	r22, 0x02	; 2
    4990:	44 e3       	ldi	r20, 0x34	; 52
    4992:	0e 94 99 0e 	call	0x1d32	; 0x1d32 <GLCD_SetCursor>
    4996:	80 e1       	ldi	r24, 0x10	; 16
    4998:	90 e0       	ldi	r25, 0x00	; 0
    499a:	0e 94 2f 19 	call	0x325e	; 0x325e <GLCD_DisplayChar32>
    499e:	80 e0       	ldi	r24, 0x00	; 0
    49a0:	62 e0       	ldi	r22, 0x02	; 2
    49a2:	49 e2       	ldi	r20, 0x29	; 41
    49a4:	0e 94 99 0e 	call	0x1d32	; 0x1d32 <GLCD_SetCursor>
    49a8:	80 e1       	ldi	r24, 0x10	; 16
    49aa:	90 e0       	ldi	r25, 0x00	; 0
    49ac:	0e 94 2f 19 	call	0x325e	; 0x325e <GLCD_DisplayChar32>
    49b0:	81 e0       	ldi	r24, 0x01	; 1
    49b2:	62 e0       	ldi	r22, 0x02	; 2
    49b4:	41 e0       	ldi	r20, 0x01	; 1
    49b6:	0e 94 99 0e 	call	0x1d32	; 0x1d32 <GLCD_SetCursor>
    49ba:	80 e1       	ldi	r24, 0x10	; 16
    49bc:	90 e0       	ldi	r25, 0x00	; 0
    49be:	0e 94 2f 19 	call	0x325e	; 0x325e <GLCD_DisplayChar32>
    49c2:	81 e0       	ldi	r24, 0x01	; 1
    49c4:	62 e0       	ldi	r22, 0x02	; 2
    49c6:	40 e1       	ldi	r20, 0x10	; 16
    49c8:	0e 94 99 0e 	call	0x1d32	; 0x1d32 <GLCD_SetCursor>
    49cc:	8d e0       	ldi	r24, 0x0D	; 13
    49ce:	90 e0       	ldi	r25, 0x00	; 0
    49d0:	0e 94 2f 19 	call	0x325e	; 0x325e <GLCD_DisplayChar32>
    49d4:	81 e0       	ldi	r24, 0x01	; 1
    49d6:	62 e0       	ldi	r22, 0x02	; 2
    49d8:	40 e2       	ldi	r20, 0x20	; 32
    49da:	0e 94 99 0e 	call	0x1d32	; 0x1d32 <GLCD_SetCursor>
    49de:	85 e0       	ldi	r24, 0x05	; 5
    49e0:	90 e0       	ldi	r25, 0x00	; 0
    49e2:	0e 94 2f 19 	call	0x325e	; 0x325e <GLCD_DisplayChar32>
    49e6:	c7 c0       	rjmp	.+398    	; 0x4b76 <MENU_Status+0x9c2>
    49e8:	80 e0       	ldi	r24, 0x00	; 0
    49ea:	62 e0       	ldi	r22, 0x02	; 2
    49ec:	4a e3       	ldi	r20, 0x3A	; 58
    49ee:	0e 94 99 0e 	call	0x1d32	; 0x1d32 <GLCD_SetCursor>
    49f2:	8a e0       	ldi	r24, 0x0A	; 10
    49f4:	90 e0       	ldi	r25, 0x00	; 0
    49f6:	0e 94 2f 19 	call	0x325e	; 0x325e <GLCD_DisplayChar32>
    49fa:	89 89       	ldd	r24, Y+17	; 0x11
    49fc:	9a 89       	ldd	r25, Y+18	; 0x12
    49fe:	ab 89       	ldd	r26, Y+19	; 0x13
    4a00:	bc 89       	ldd	r27, Y+20	; 0x14
    4a02:	28 ee       	ldi	r18, 0xE8	; 232
    4a04:	33 e0       	ldi	r19, 0x03	; 3
    4a06:	40 e0       	ldi	r20, 0x00	; 0
    4a08:	50 e0       	ldi	r21, 0x00	; 0
    4a0a:	bc 01       	movw	r22, r24
    4a0c:	cd 01       	movw	r24, r26
    4a0e:	0e 94 da 2e 	call	0x5db4	; 0x5db4 <__udivmodsi4>
    4a12:	da 01       	movw	r26, r20
    4a14:	c9 01       	movw	r24, r18
    4a16:	8c 83       	std	Y+4, r24	; 0x04
    4a18:	89 89       	ldd	r24, Y+17	; 0x11
    4a1a:	9a 89       	ldd	r25, Y+18	; 0x12
    4a1c:	ab 89       	ldd	r26, Y+19	; 0x13
    4a1e:	bc 89       	ldd	r27, Y+20	; 0x14
    4a20:	28 ee       	ldi	r18, 0xE8	; 232
    4a22:	33 e0       	ldi	r19, 0x03	; 3
    4a24:	40 e0       	ldi	r20, 0x00	; 0
    4a26:	50 e0       	ldi	r21, 0x00	; 0
    4a28:	bc 01       	movw	r22, r24
    4a2a:	cd 01       	movw	r24, r26
    4a2c:	0e 94 da 2e 	call	0x5db4	; 0x5db4 <__udivmodsi4>
    4a30:	dc 01       	movw	r26, r24
    4a32:	cb 01       	movw	r24, r22
    4a34:	89 8b       	std	Y+17, r24	; 0x11
    4a36:	9a 8b       	std	Y+18, r25	; 0x12
    4a38:	ab 8b       	std	Y+19, r26	; 0x13
    4a3a:	bc 8b       	std	Y+20, r27	; 0x14
    4a3c:	80 e0       	ldi	r24, 0x00	; 0
    4a3e:	62 e0       	ldi	r22, 0x02	; 2
    4a40:	49 e2       	ldi	r20, 0x29	; 41
    4a42:	0e 94 99 0e 	call	0x1d32	; 0x1d32 <GLCD_SetCursor>
    4a46:	8c 81       	ldd	r24, Y+4	; 0x04
    4a48:	88 2f       	mov	r24, r24
    4a4a:	90 e0       	ldi	r25, 0x00	; 0
    4a4c:	0e 94 2f 19 	call	0x325e	; 0x325e <GLCD_DisplayChar32>
    4a50:	89 89       	ldd	r24, Y+17	; 0x11
    4a52:	9a 89       	ldd	r25, Y+18	; 0x12
    4a54:	ab 89       	ldd	r26, Y+19	; 0x13
    4a56:	bc 89       	ldd	r27, Y+20	; 0x14
    4a58:	24 e6       	ldi	r18, 0x64	; 100
    4a5a:	30 e0       	ldi	r19, 0x00	; 0
    4a5c:	40 e0       	ldi	r20, 0x00	; 0
    4a5e:	50 e0       	ldi	r21, 0x00	; 0
    4a60:	bc 01       	movw	r22, r24
    4a62:	cd 01       	movw	r24, r26
    4a64:	0e 94 da 2e 	call	0x5db4	; 0x5db4 <__udivmodsi4>
    4a68:	da 01       	movw	r26, r20
    4a6a:	c9 01       	movw	r24, r18
    4a6c:	8c 83       	std	Y+4, r24	; 0x04
    4a6e:	89 89       	ldd	r24, Y+17	; 0x11
    4a70:	9a 89       	ldd	r25, Y+18	; 0x12
    4a72:	ab 89       	ldd	r26, Y+19	; 0x13
    4a74:	bc 89       	ldd	r27, Y+20	; 0x14
    4a76:	24 e6       	ldi	r18, 0x64	; 100
    4a78:	30 e0       	ldi	r19, 0x00	; 0
    4a7a:	40 e0       	ldi	r20, 0x00	; 0
    4a7c:	50 e0       	ldi	r21, 0x00	; 0
    4a7e:	bc 01       	movw	r22, r24
    4a80:	cd 01       	movw	r24, r26
    4a82:	0e 94 da 2e 	call	0x5db4	; 0x5db4 <__udivmodsi4>
    4a86:	dc 01       	movw	r26, r24
    4a88:	cb 01       	movw	r24, r22
    4a8a:	89 8b       	std	Y+17, r24	; 0x11
    4a8c:	9a 8b       	std	Y+18, r25	; 0x12
    4a8e:	ab 8b       	std	Y+19, r26	; 0x13
    4a90:	bc 8b       	std	Y+20, r27	; 0x14
    4a92:	81 e0       	ldi	r24, 0x01	; 1
    4a94:	62 e0       	ldi	r22, 0x02	; 2
    4a96:	40 e0       	ldi	r20, 0x00	; 0
    4a98:	0e 94 99 0e 	call	0x1d32	; 0x1d32 <GLCD_SetCursor>
    4a9c:	8c 81       	ldd	r24, Y+4	; 0x04
    4a9e:	88 2f       	mov	r24, r24
    4aa0:	90 e0       	ldi	r25, 0x00	; 0
    4aa2:	0e 94 2f 19 	call	0x325e	; 0x325e <GLCD_DisplayChar32>
    4aa6:	89 89       	ldd	r24, Y+17	; 0x11
    4aa8:	9a 89       	ldd	r25, Y+18	; 0x12
    4aaa:	ab 89       	ldd	r26, Y+19	; 0x13
    4aac:	bc 89       	ldd	r27, Y+20	; 0x14
    4aae:	2a e0       	ldi	r18, 0x0A	; 10
    4ab0:	30 e0       	ldi	r19, 0x00	; 0
    4ab2:	40 e0       	ldi	r20, 0x00	; 0
    4ab4:	50 e0       	ldi	r21, 0x00	; 0
    4ab6:	bc 01       	movw	r22, r24
    4ab8:	cd 01       	movw	r24, r26
    4aba:	0e 94 da 2e 	call	0x5db4	; 0x5db4 <__udivmodsi4>
    4abe:	da 01       	movw	r26, r20
    4ac0:	c9 01       	movw	r24, r18
    4ac2:	8c 83       	std	Y+4, r24	; 0x04
    4ac4:	89 89       	ldd	r24, Y+17	; 0x11
    4ac6:	9a 89       	ldd	r25, Y+18	; 0x12
    4ac8:	ab 89       	ldd	r26, Y+19	; 0x13
    4aca:	bc 89       	ldd	r27, Y+20	; 0x14
    4acc:	2a e0       	ldi	r18, 0x0A	; 10
    4ace:	30 e0       	ldi	r19, 0x00	; 0
    4ad0:	40 e0       	ldi	r20, 0x00	; 0
    4ad2:	50 e0       	ldi	r21, 0x00	; 0
    4ad4:	bc 01       	movw	r22, r24
    4ad6:	cd 01       	movw	r24, r26
    4ad8:	0e 94 da 2e 	call	0x5db4	; 0x5db4 <__udivmodsi4>
    4adc:	dc 01       	movw	r26, r24
    4ade:	cb 01       	movw	r24, r22
    4ae0:	89 8b       	std	Y+17, r24	; 0x11
    4ae2:	9a 8b       	std	Y+18, r25	; 0x12
    4ae4:	ab 8b       	std	Y+19, r26	; 0x13
    4ae6:	bc 8b       	std	Y+20, r27	; 0x14
    4ae8:	81 e0       	ldi	r24, 0x01	; 1
    4aea:	62 e0       	ldi	r22, 0x02	; 2
    4aec:	40 e1       	ldi	r20, 0x10	; 16
    4aee:	0e 94 99 0e 	call	0x1d32	; 0x1d32 <GLCD_SetCursor>
    4af2:	8c 81       	ldd	r24, Y+4	; 0x04
    4af4:	88 2f       	mov	r24, r24
    4af6:	90 e0       	ldi	r25, 0x00	; 0
    4af8:	0e 94 2f 19 	call	0x325e	; 0x325e <GLCD_DisplayChar32>
    4afc:	89 89       	ldd	r24, Y+17	; 0x11
    4afe:	9a 89       	ldd	r25, Y+18	; 0x12
    4b00:	ab 89       	ldd	r26, Y+19	; 0x13
    4b02:	bc 89       	ldd	r27, Y+20	; 0x14
    4b04:	8c 83       	std	Y+4, r24	; 0x04
    4b06:	81 e0       	ldi	r24, 0x01	; 1
    4b08:	62 e0       	ldi	r22, 0x02	; 2
    4b0a:	40 e2       	ldi	r20, 0x20	; 32
    4b0c:	0e 94 99 0e 	call	0x1d32	; 0x1d32 <GLCD_SetCursor>
    4b10:	8c 81       	ldd	r24, Y+4	; 0x04
    4b12:	88 2f       	mov	r24, r24
    4b14:	90 e0       	ldi	r25, 0x00	; 0
    4b16:	0e 94 2f 19 	call	0x325e	; 0x325e <GLCD_DisplayChar32>
    4b1a:	2d c0       	rjmp	.+90     	; 0x4b76 <MENU_Status+0x9c2>
    4b1c:	81 e0       	ldi	r24, 0x01	; 1
    4b1e:	62 e0       	ldi	r22, 0x02	; 2
    4b20:	40 e2       	ldi	r20, 0x20	; 32
    4b22:	0e 94 99 0e 	call	0x1d32	; 0x1d32 <GLCD_SetCursor>
    4b26:	8f e0       	ldi	r24, 0x0F	; 15
    4b28:	90 e0       	ldi	r25, 0x00	; 0
    4b2a:	0e 94 2f 19 	call	0x325e	; 0x325e <GLCD_DisplayChar32>
    4b2e:	81 e0       	ldi	r24, 0x01	; 1
    4b30:	62 e0       	ldi	r22, 0x02	; 2
    4b32:	40 e1       	ldi	r20, 0x10	; 16
    4b34:	0e 94 99 0e 	call	0x1d32	; 0x1d32 <GLCD_SetCursor>
    4b38:	8f e0       	ldi	r24, 0x0F	; 15
    4b3a:	90 e0       	ldi	r25, 0x00	; 0
    4b3c:	0e 94 2f 19 	call	0x325e	; 0x325e <GLCD_DisplayChar32>
    4b40:	81 e0       	ldi	r24, 0x01	; 1
    4b42:	62 e0       	ldi	r22, 0x02	; 2
    4b44:	40 e0       	ldi	r20, 0x00	; 0
    4b46:	0e 94 99 0e 	call	0x1d32	; 0x1d32 <GLCD_SetCursor>
    4b4a:	8f e0       	ldi	r24, 0x0F	; 15
    4b4c:	90 e0       	ldi	r25, 0x00	; 0
    4b4e:	0e 94 2f 19 	call	0x325e	; 0x325e <GLCD_DisplayChar32>
    4b52:	80 e0       	ldi	r24, 0x00	; 0
    4b54:	62 e0       	ldi	r22, 0x02	; 2
    4b56:	42 e3       	ldi	r20, 0x32	; 50
    4b58:	0e 94 99 0e 	call	0x1d32	; 0x1d32 <GLCD_SetCursor>
    4b5c:	80 e1       	ldi	r24, 0x10	; 16
    4b5e:	90 e0       	ldi	r25, 0x00	; 0
    4b60:	0e 94 2f 19 	call	0x325e	; 0x325e <GLCD_DisplayChar32>
    4b64:	80 e0       	ldi	r24, 0x00	; 0
    4b66:	62 e0       	ldi	r22, 0x02	; 2
    4b68:	47 e2       	ldi	r20, 0x27	; 39
    4b6a:	0e 94 99 0e 	call	0x1d32	; 0x1d32 <GLCD_SetCursor>
    4b6e:	80 e1       	ldi	r24, 0x10	; 16
    4b70:	90 e0       	ldi	r25, 0x00	; 0
    4b72:	0e 94 2f 19 	call	0x325e	; 0x325e <GLCD_DisplayChar32>
    4b76:	64 96       	adiw	r28, 0x14	; 20
    4b78:	0f b6       	in	r0, 0x3f	; 63
    4b7a:	f8 94       	cli
    4b7c:	de bf       	out	0x3e, r29	; 62
    4b7e:	0f be       	out	0x3f, r0	; 63
    4b80:	cd bf       	out	0x3d, r28	; 61
    4b82:	cf 91       	pop	r28
    4b84:	df 91       	pop	r29
    4b86:	08 95       	ret

00004b88 <MENU_Status_Header>:
    4b88:	df 93       	push	r29
    4b8a:	cf 93       	push	r28
    4b8c:	0f 92       	push	r0
    4b8e:	cd b7       	in	r28, 0x3d	; 61
    4b90:	de b7       	in	r29, 0x3e	; 62
    4b92:	89 83       	std	Y+1, r24	; 0x01
    4b94:	80 91 80 03 	lds	r24, 0x0380
    4b98:	88 23       	and	r24, r24
    4b9a:	09 f0       	breq	.+2      	; 0x4b9e <MENU_Status_Header+0x16>
    4b9c:	64 c0       	rjmp	.+200    	; 0x4c66 <MENU_Status_Header+0xde>
    4b9e:	89 81       	ldd	r24, Y+1	; 0x01
    4ba0:	88 2f       	mov	r24, r24
    4ba2:	90 e0       	ldi	r25, 0x00	; 0
    4ba4:	83 30       	cpi	r24, 0x03	; 3
    4ba6:	91 05       	cpc	r25, r1
    4ba8:	a9 f1       	breq	.+106    	; 0x4c14 <MENU_Status_Header+0x8c>
    4baa:	84 30       	cpi	r24, 0x04	; 4
    4bac:	91 05       	cpc	r25, r1
    4bae:	4c f4       	brge	.+18     	; 0x4bc2 <MENU_Status_Header+0x3a>
    4bb0:	81 30       	cpi	r24, 0x01	; 1
    4bb2:	91 05       	cpc	r25, r1
    4bb4:	f9 f0       	breq	.+62     	; 0x4bf4 <MENU_Status_Header+0x6c>
    4bb6:	82 30       	cpi	r24, 0x02	; 2
    4bb8:	91 05       	cpc	r25, r1
    4bba:	24 f5       	brge	.+72     	; 0x4c04 <MENU_Status_Header+0x7c>
    4bbc:	00 97       	sbiw	r24, 0x00	; 0
    4bbe:	91 f0       	breq	.+36     	; 0x4be4 <MENU_Status_Header+0x5c>
    4bc0:	53 c0       	rjmp	.+166    	; 0x4c68 <MENU_Status_Header+0xe0>
    4bc2:	86 30       	cpi	r24, 0x06	; 6
    4bc4:	91 05       	cpc	r25, r1
    4bc6:	b1 f1       	breq	.+108    	; 0x4c34 <MENU_Status_Header+0xac>
    4bc8:	87 30       	cpi	r24, 0x07	; 7
    4bca:	91 05       	cpc	r25, r1
    4bcc:	24 f4       	brge	.+8      	; 0x4bd6 <MENU_Status_Header+0x4e>
    4bce:	84 30       	cpi	r24, 0x04	; 4
    4bd0:	91 05       	cpc	r25, r1
    4bd2:	41 f1       	breq	.+80     	; 0x4c24 <MENU_Status_Header+0x9c>
    4bd4:	49 c0       	rjmp	.+146    	; 0x4c68 <MENU_Status_Header+0xe0>
    4bd6:	87 30       	cpi	r24, 0x07	; 7
    4bd8:	91 05       	cpc	r25, r1
    4bda:	a1 f1       	breq	.+104    	; 0x4c44 <MENU_Status_Header+0xbc>
    4bdc:	88 30       	cpi	r24, 0x08	; 8
    4bde:	91 05       	cpc	r25, r1
    4be0:	c9 f1       	breq	.+114    	; 0x4c54 <MENU_Status_Header+0xcc>
    4be2:	42 c0       	rjmp	.+132    	; 0x4c68 <MENU_Status_Header+0xe0>
    4be4:	80 e0       	ldi	r24, 0x00	; 0
    4be6:	0e 94 1d 0f 	call	0x1e3a	; 0x1e3a <GLCD_GoToLine>
    4bea:	80 e2       	ldi	r24, 0x20	; 32
    4bec:	91 e0       	ldi	r25, 0x01	; 1
    4bee:	0e 94 bd 0f 	call	0x1f7a	; 0x1f7a <GLCD_DisplayString>
    4bf2:	3a c0       	rjmp	.+116    	; 0x4c68 <MENU_Status_Header+0xe0>
    4bf4:	80 e0       	ldi	r24, 0x00	; 0
    4bf6:	0e 94 1d 0f 	call	0x1e3a	; 0x1e3a <GLCD_GoToLine>
    4bfa:	8a e2       	ldi	r24, 0x2A	; 42
    4bfc:	91 e0       	ldi	r25, 0x01	; 1
    4bfe:	0e 94 bd 0f 	call	0x1f7a	; 0x1f7a <GLCD_DisplayString>
    4c02:	32 c0       	rjmp	.+100    	; 0x4c68 <MENU_Status_Header+0xe0>
    4c04:	80 e0       	ldi	r24, 0x00	; 0
    4c06:	0e 94 1d 0f 	call	0x1e3a	; 0x1e3a <GLCD_GoToLine>
    4c0a:	86 e1       	ldi	r24, 0x16	; 22
    4c0c:	91 e0       	ldi	r25, 0x01	; 1
    4c0e:	0e 94 bd 0f 	call	0x1f7a	; 0x1f7a <GLCD_DisplayString>
    4c12:	2a c0       	rjmp	.+84     	; 0x4c68 <MENU_Status_Header+0xe0>
    4c14:	80 e0       	ldi	r24, 0x00	; 0
    4c16:	0e 94 1d 0f 	call	0x1e3a	; 0x1e3a <GLCD_GoToLine>
    4c1a:	84 e3       	ldi	r24, 0x34	; 52
    4c1c:	91 e0       	ldi	r25, 0x01	; 1
    4c1e:	0e 94 bd 0f 	call	0x1f7a	; 0x1f7a <GLCD_DisplayString>
    4c22:	22 c0       	rjmp	.+68     	; 0x4c68 <MENU_Status_Header+0xe0>
    4c24:	80 e0       	ldi	r24, 0x00	; 0
    4c26:	0e 94 1d 0f 	call	0x1e3a	; 0x1e3a <GLCD_GoToLine>
    4c2a:	8e e3       	ldi	r24, 0x3E	; 62
    4c2c:	91 e0       	ldi	r25, 0x01	; 1
    4c2e:	0e 94 bd 0f 	call	0x1f7a	; 0x1f7a <GLCD_DisplayString>
    4c32:	1a c0       	rjmp	.+52     	; 0x4c68 <MENU_Status_Header+0xe0>
    4c34:	80 e0       	ldi	r24, 0x00	; 0
    4c36:	0e 94 1d 0f 	call	0x1e3a	; 0x1e3a <GLCD_GoToLine>
    4c3a:	8a e2       	ldi	r24, 0x2A	; 42
    4c3c:	91 e0       	ldi	r25, 0x01	; 1
    4c3e:	0e 94 bd 0f 	call	0x1f7a	; 0x1f7a <GLCD_DisplayString>
    4c42:	12 c0       	rjmp	.+36     	; 0x4c68 <MENU_Status_Header+0xe0>
    4c44:	80 e0       	ldi	r24, 0x00	; 0
    4c46:	0e 94 1d 0f 	call	0x1e3a	; 0x1e3a <GLCD_GoToLine>
    4c4a:	8a e2       	ldi	r24, 0x2A	; 42
    4c4c:	91 e0       	ldi	r25, 0x01	; 1
    4c4e:	0e 94 bd 0f 	call	0x1f7a	; 0x1f7a <GLCD_DisplayString>
    4c52:	0a c0       	rjmp	.+20     	; 0x4c68 <MENU_Status_Header+0xe0>
    4c54:	80 e0       	ldi	r24, 0x00	; 0
    4c56:	0e 94 1d 0f 	call	0x1e3a	; 0x1e3a <GLCD_GoToLine>
    4c5a:	86 e6       	ldi	r24, 0x66	; 102
    4c5c:	91 e0       	ldi	r25, 0x01	; 1
    4c5e:	0e 94 bd 0f 	call	0x1f7a	; 0x1f7a <GLCD_DisplayString>
    4c62:	00 00       	nop
    4c64:	01 c0       	rjmp	.+2      	; 0x4c68 <MENU_Status_Header+0xe0>
    4c66:	00 00       	nop
    4c68:	0f 90       	pop	r0
    4c6a:	cf 91       	pop	r28
    4c6c:	df 91       	pop	r29
    4c6e:	08 95       	ret

00004c70 <MENU_Status_Header2>:
    4c70:	df 93       	push	r29
    4c72:	cf 93       	push	r28
    4c74:	cd b7       	in	r28, 0x3d	; 61
    4c76:	de b7       	in	r29, 0x3e	; 62
    4c78:	80 91 80 03 	lds	r24, 0x0380
    4c7c:	88 23       	and	r24, r24
    4c7e:	79 f5       	brne	.+94     	; 0x4cde <MENU_Status_Header2+0x6e>
    4c80:	0e 94 4b 1a 	call	0x3496	; 0x3496 <Tank_Full>
    4c84:	88 23       	and	r24, r24
    4c86:	51 f0       	breq	.+20     	; 0x4c9c <MENU_Status_Header2+0x2c>
    4c88:	81 e0       	ldi	r24, 0x01	; 1
    4c8a:	60 e0       	ldi	r22, 0x00	; 0
    4c8c:	4c e0       	ldi	r20, 0x0C	; 12
    4c8e:	0e 94 99 0e 	call	0x1d32	; 0x1d32 <GLCD_SetCursor>
    4c92:	82 e5       	ldi	r24, 0x52	; 82
    4c94:	91 e0       	ldi	r25, 0x01	; 1
    4c96:	0e 94 bd 0f 	call	0x1f7a	; 0x1f7a <GLCD_DisplayString>
    4c9a:	17 c0       	rjmp	.+46     	; 0x4cca <MENU_Status_Header2+0x5a>
    4c9c:	80 91 99 03 	lds	r24, 0x0399
    4ca0:	86 30       	cpi	r24, 0x06	; 6
    4ca2:	51 f4       	brne	.+20     	; 0x4cb8 <MENU_Status_Header2+0x48>
    4ca4:	81 e0       	ldi	r24, 0x01	; 1
    4ca6:	60 e0       	ldi	r22, 0x00	; 0
    4ca8:	4c e0       	ldi	r20, 0x0C	; 12
    4caa:	0e 94 99 0e 	call	0x1d32	; 0x1d32 <GLCD_SetCursor>
    4cae:	88 e4       	ldi	r24, 0x48	; 72
    4cb0:	91 e0       	ldi	r25, 0x01	; 1
    4cb2:	0e 94 bd 0f 	call	0x1f7a	; 0x1f7a <GLCD_DisplayString>
    4cb6:	09 c0       	rjmp	.+18     	; 0x4cca <MENU_Status_Header2+0x5a>
    4cb8:	81 e0       	ldi	r24, 0x01	; 1
    4cba:	60 e0       	ldi	r22, 0x00	; 0
    4cbc:	4c e0       	ldi	r20, 0x0C	; 12
    4cbe:	0e 94 99 0e 	call	0x1d32	; 0x1d32 <GLCD_SetCursor>
    4cc2:	8c e5       	ldi	r24, 0x5C	; 92
    4cc4:	91 e0       	ldi	r25, 0x01	; 1
    4cc6:	0e 94 bd 0f 	call	0x1f7a	; 0x1f7a <GLCD_DisplayString>
    4cca:	80 91 7a 03 	lds	r24, 0x037A
    4cce:	88 23       	and	r24, r24
    4cd0:	19 f0       	breq	.+6      	; 0x4cd8 <MENU_Status_Header2+0x68>
    4cd2:	0e 94 05 1a 	call	0x340a	; 0x340a <GLCD_ShowMOhm>
    4cd6:	04 c0       	rjmp	.+8      	; 0x4ce0 <MENU_Status_Header2+0x70>
    4cd8:	0e 94 f6 19 	call	0x33ec	; 0x33ec <GLCD_ShowUS>
    4cdc:	01 c0       	rjmp	.+2      	; 0x4ce0 <MENU_Status_Header2+0x70>
    4cde:	00 00       	nop
    4ce0:	cf 91       	pop	r28
    4ce2:	df 91       	pop	r29
    4ce4:	08 95       	ret

00004ce6 <PWM_Init>:
    4ce6:	df 93       	push	r29
    4ce8:	cf 93       	push	r28
    4cea:	cd b7       	in	r28, 0x3d	; 61
    4cec:	de b7       	in	r29, 0x3e	; 62
    4cee:	83 e5       	ldi	r24, 0x53	; 83
    4cf0:	90 e0       	ldi	r25, 0x00	; 0
    4cf2:	23 e5       	ldi	r18, 0x53	; 83
    4cf4:	30 e0       	ldi	r19, 0x00	; 0
    4cf6:	f9 01       	movw	r30, r18
    4cf8:	20 81       	ld	r18, Z
    4cfa:	29 67       	ori	r18, 0x79	; 121
    4cfc:	fc 01       	movw	r30, r24
    4cfe:	20 83       	st	Z, r18
    4d00:	87 e3       	ldi	r24, 0x37	; 55
    4d02:	90 e0       	ldi	r25, 0x00	; 0
    4d04:	27 e3       	ldi	r18, 0x37	; 55
    4d06:	30 e0       	ldi	r19, 0x00	; 0
    4d08:	f9 01       	movw	r30, r18
    4d0a:	20 81       	ld	r18, Z
    4d0c:	28 60       	ori	r18, 0x08	; 8
    4d0e:	fc 01       	movw	r30, r24
    4d10:	20 83       	st	Z, r18
    4d12:	8c e5       	ldi	r24, 0x5C	; 92
    4d14:	90 e0       	ldi	r25, 0x00	; 0
    4d16:	20 91 08 03 	lds	r18, 0x0308
    4d1a:	30 91 09 03 	lds	r19, 0x0309
    4d1e:	fc 01       	movw	r30, r24
    4d20:	20 83       	st	Z, r18
    4d22:	cf 91       	pop	r28
    4d24:	df 91       	pop	r29
    4d26:	08 95       	ret

00004d28 <PWM_Set>:
    4d28:	df 93       	push	r29
    4d2a:	cf 93       	push	r28
    4d2c:	cd b7       	in	r28, 0x3d	; 61
    4d2e:	de b7       	in	r29, 0x3e	; 62
    4d30:	80 91 0a 03 	lds	r24, 0x030A
    4d34:	90 91 0b 03 	lds	r25, 0x030B
    4d38:	9c 01       	movw	r18, r24
    4d3a:	28 5f       	subi	r18, 0xF8	; 248
    4d3c:	3f 4f       	sbci	r19, 0xFF	; 255
    4d3e:	80 91 0c 03 	lds	r24, 0x030C
    4d42:	90 91 0d 03 	lds	r25, 0x030D
    4d46:	28 17       	cp	r18, r24
    4d48:	39 07       	cpc	r19, r25
    4d4a:	00 f5       	brcc	.+64     	; 0x4d8c <PWM_Set+0x64>
    4d4c:	80 91 97 03 	lds	r24, 0x0397
    4d50:	8f 5f       	subi	r24, 0xFF	; 255
    4d52:	80 93 97 03 	sts	0x0397, r24
    4d56:	10 92 98 03 	sts	0x0398, r1
    4d5a:	80 91 97 03 	lds	r24, 0x0397
    4d5e:	84 30       	cpi	r24, 0x04	; 4
    4d60:	08 f4       	brcc	.+2      	; 0x4d64 <PWM_Set+0x3c>
    4d62:	40 c0       	rjmp	.+128    	; 0x4de4 <PWM_Set+0xbc>
    4d64:	80 91 08 03 	lds	r24, 0x0308
    4d68:	90 91 09 03 	lds	r25, 0x0309
    4d6c:	01 96       	adiw	r24, 0x01	; 1
    4d6e:	90 93 09 03 	sts	0x0309, r25
    4d72:	80 93 08 03 	sts	0x0308, r24
    4d76:	10 92 97 03 	sts	0x0397, r1
    4d7a:	8c e5       	ldi	r24, 0x5C	; 92
    4d7c:	90 e0       	ldi	r25, 0x00	; 0
    4d7e:	20 91 08 03 	lds	r18, 0x0308
    4d82:	30 91 09 03 	lds	r19, 0x0309
    4d86:	fc 01       	movw	r30, r24
    4d88:	20 83       	st	Z, r18
    4d8a:	2c c0       	rjmp	.+88     	; 0x4de4 <PWM_Set+0xbc>
    4d8c:	80 91 0a 03 	lds	r24, 0x030A
    4d90:	90 91 0b 03 	lds	r25, 0x030B
    4d94:	9c 01       	movw	r18, r24
    4d96:	28 50       	subi	r18, 0x08	; 8
    4d98:	30 40       	sbci	r19, 0x00	; 0
    4d9a:	80 91 0c 03 	lds	r24, 0x030C
    4d9e:	90 91 0d 03 	lds	r25, 0x030D
    4da2:	82 17       	cp	r24, r18
    4da4:	93 07       	cpc	r25, r19
    4da6:	f0 f4       	brcc	.+60     	; 0x4de4 <PWM_Set+0xbc>
    4da8:	10 92 97 03 	sts	0x0397, r1
    4dac:	80 91 98 03 	lds	r24, 0x0398
    4db0:	8f 5f       	subi	r24, 0xFF	; 255
    4db2:	80 93 98 03 	sts	0x0398, r24
    4db6:	80 91 98 03 	lds	r24, 0x0398
    4dba:	84 30       	cpi	r24, 0x04	; 4
    4dbc:	98 f0       	brcs	.+38     	; 0x4de4 <PWM_Set+0xbc>
    4dbe:	80 91 08 03 	lds	r24, 0x0308
    4dc2:	90 91 09 03 	lds	r25, 0x0309
    4dc6:	01 97       	sbiw	r24, 0x01	; 1
    4dc8:	90 93 09 03 	sts	0x0309, r25
    4dcc:	80 93 08 03 	sts	0x0308, r24
    4dd0:	10 92 98 03 	sts	0x0398, r1
    4dd4:	8c e5       	ldi	r24, 0x5C	; 92
    4dd6:	90 e0       	ldi	r25, 0x00	; 0
    4dd8:	20 91 08 03 	lds	r18, 0x0308
    4ddc:	30 91 09 03 	lds	r19, 0x0309
    4de0:	fc 01       	movw	r30, r24
    4de2:	20 83       	st	Z, r18
    4de4:	cf 91       	pop	r28
    4de6:	df 91       	pop	r29
    4de8:	08 95       	ret

00004dea <HC595_Init>:
    4dea:	df 93       	push	r29
    4dec:	cf 93       	push	r28
    4dee:	cd b7       	in	r28, 0x3d	; 61
    4df0:	de b7       	in	r29, 0x3e	; 62
    4df2:	81 e3       	ldi	r24, 0x31	; 49
    4df4:	90 e0       	ldi	r25, 0x00	; 0
    4df6:	21 e3       	ldi	r18, 0x31	; 49
    4df8:	30 e0       	ldi	r19, 0x00	; 0
    4dfa:	f9 01       	movw	r30, r18
    4dfc:	20 81       	ld	r18, Z
    4dfe:	20 6e       	ori	r18, 0xE0	; 224
    4e00:	fc 01       	movw	r30, r24
    4e02:	20 83       	st	Z, r18
    4e04:	80 e0       	ldi	r24, 0x00	; 0
    4e06:	90 e0       	ldi	r25, 0x00	; 0
    4e08:	0e 94 4e 27 	call	0x4e9c	; 0x4e9c <HC595_Write>
    4e0c:	cf 91       	pop	r28
    4e0e:	df 91       	pop	r29
    4e10:	08 95       	ret

00004e12 <HC595_Pulse>:
    4e12:	df 93       	push	r29
    4e14:	cf 93       	push	r28
    4e16:	cd b7       	in	r28, 0x3d	; 61
    4e18:	de b7       	in	r29, 0x3e	; 62
    4e1a:	82 e3       	ldi	r24, 0x32	; 50
    4e1c:	90 e0       	ldi	r25, 0x00	; 0
    4e1e:	22 e3       	ldi	r18, 0x32	; 50
    4e20:	30 e0       	ldi	r19, 0x00	; 0
    4e22:	f9 01       	movw	r30, r18
    4e24:	20 81       	ld	r18, Z
    4e26:	20 64       	ori	r18, 0x40	; 64
    4e28:	fc 01       	movw	r30, r24
    4e2a:	20 83       	st	Z, r18
    4e2c:	82 e3       	ldi	r24, 0x32	; 50
    4e2e:	90 e0       	ldi	r25, 0x00	; 0
    4e30:	22 e3       	ldi	r18, 0x32	; 50
    4e32:	30 e0       	ldi	r19, 0x00	; 0
    4e34:	f9 01       	movw	r30, r18
    4e36:	20 81       	ld	r18, Z
    4e38:	2f 7b       	andi	r18, 0xBF	; 191
    4e3a:	fc 01       	movw	r30, r24
    4e3c:	20 83       	st	Z, r18
    4e3e:	cf 91       	pop	r28
    4e40:	df 91       	pop	r29
    4e42:	08 95       	ret

00004e44 <HC595_Latch>:
    4e44:	1f 93       	push	r17
    4e46:	df 93       	push	r29
    4e48:	cf 93       	push	r28
    4e4a:	00 d0       	rcall	.+0      	; 0x4e4c <HC595_Latch+0x8>
    4e4c:	cd b7       	in	r28, 0x3d	; 61
    4e4e:	de b7       	in	r29, 0x3e	; 62
    4e50:	82 e3       	ldi	r24, 0x32	; 50
    4e52:	90 e0       	ldi	r25, 0x00	; 0
    4e54:	22 e3       	ldi	r18, 0x32	; 50
    4e56:	30 e0       	ldi	r19, 0x00	; 0
    4e58:	f9 01       	movw	r30, r18
    4e5a:	20 81       	ld	r18, Z
    4e5c:	20 68       	ori	r18, 0x80	; 128
    4e5e:	fc 01       	movw	r30, r24
    4e60:	20 83       	st	Z, r18
    4e62:	81 e0       	ldi	r24, 0x01	; 1
    4e64:	89 83       	std	Y+1, r24	; 0x01
    4e66:	89 81       	ldd	r24, Y+1	; 0x01
    4e68:	18 2f       	mov	r17, r24
    4e6a:	1a 95       	dec	r17
    4e6c:	f1 f7       	brne	.-4      	; 0x4e6a <HC595_Latch+0x26>
    4e6e:	19 83       	std	Y+1, r17	; 0x01
    4e70:	82 e3       	ldi	r24, 0x32	; 50
    4e72:	90 e0       	ldi	r25, 0x00	; 0
    4e74:	22 e3       	ldi	r18, 0x32	; 50
    4e76:	30 e0       	ldi	r19, 0x00	; 0
    4e78:	f9 01       	movw	r30, r18
    4e7a:	20 81       	ld	r18, Z
    4e7c:	2f 77       	andi	r18, 0x7F	; 127
    4e7e:	fc 01       	movw	r30, r24
    4e80:	20 83       	st	Z, r18
    4e82:	81 e0       	ldi	r24, 0x01	; 1
    4e84:	8a 83       	std	Y+2, r24	; 0x02
    4e86:	8a 81       	ldd	r24, Y+2	; 0x02
    4e88:	18 2f       	mov	r17, r24
    4e8a:	1a 95       	dec	r17
    4e8c:	f1 f7       	brne	.-4      	; 0x4e8a <HC595_Latch+0x46>
    4e8e:	1a 83       	std	Y+2, r17	; 0x02
    4e90:	0f 90       	pop	r0
    4e92:	0f 90       	pop	r0
    4e94:	cf 91       	pop	r28
    4e96:	df 91       	pop	r29
    4e98:	1f 91       	pop	r17
    4e9a:	08 95       	ret

00004e9c <HC595_Write>:
    4e9c:	df 93       	push	r29
    4e9e:	cf 93       	push	r28
    4ea0:	00 d0       	rcall	.+0      	; 0x4ea2 <HC595_Write+0x6>
    4ea2:	0f 92       	push	r0
    4ea4:	cd b7       	in	r28, 0x3d	; 61
    4ea6:	de b7       	in	r29, 0x3e	; 62
    4ea8:	9b 83       	std	Y+3, r25	; 0x03
    4eaa:	8a 83       	std	Y+2, r24	; 0x02
    4eac:	19 82       	std	Y+1, r1	; 0x01
    4eae:	22 c0       	rjmp	.+68     	; 0x4ef4 <HC595_Write+0x58>
    4eb0:	8a 81       	ldd	r24, Y+2	; 0x02
    4eb2:	9b 81       	ldd	r25, Y+3	; 0x03
    4eb4:	99 23       	and	r25, r25
    4eb6:	54 f4       	brge	.+20     	; 0x4ecc <HC595_Write+0x30>
    4eb8:	82 e3       	ldi	r24, 0x32	; 50
    4eba:	90 e0       	ldi	r25, 0x00	; 0
    4ebc:	22 e3       	ldi	r18, 0x32	; 50
    4ebe:	30 e0       	ldi	r19, 0x00	; 0
    4ec0:	f9 01       	movw	r30, r18
    4ec2:	20 81       	ld	r18, Z
    4ec4:	20 62       	ori	r18, 0x20	; 32
    4ec6:	fc 01       	movw	r30, r24
    4ec8:	20 83       	st	Z, r18
    4eca:	09 c0       	rjmp	.+18     	; 0x4ede <HC595_Write+0x42>
    4ecc:	82 e3       	ldi	r24, 0x32	; 50
    4ece:	90 e0       	ldi	r25, 0x00	; 0
    4ed0:	22 e3       	ldi	r18, 0x32	; 50
    4ed2:	30 e0       	ldi	r19, 0x00	; 0
    4ed4:	f9 01       	movw	r30, r18
    4ed6:	20 81       	ld	r18, Z
    4ed8:	2f 7d       	andi	r18, 0xDF	; 223
    4eda:	fc 01       	movw	r30, r24
    4edc:	20 83       	st	Z, r18
    4ede:	0e 94 09 27 	call	0x4e12	; 0x4e12 <HC595_Pulse>
    4ee2:	8a 81       	ldd	r24, Y+2	; 0x02
    4ee4:	9b 81       	ldd	r25, Y+3	; 0x03
    4ee6:	88 0f       	add	r24, r24
    4ee8:	99 1f       	adc	r25, r25
    4eea:	9b 83       	std	Y+3, r25	; 0x03
    4eec:	8a 83       	std	Y+2, r24	; 0x02
    4eee:	89 81       	ldd	r24, Y+1	; 0x01
    4ef0:	8f 5f       	subi	r24, 0xFF	; 255
    4ef2:	89 83       	std	Y+1, r24	; 0x01
    4ef4:	89 81       	ldd	r24, Y+1	; 0x01
    4ef6:	80 31       	cpi	r24, 0x10	; 16
    4ef8:	d8 f2       	brcs	.-74     	; 0x4eb0 <HC595_Write+0x14>
    4efa:	0e 94 22 27 	call	0x4e44	; 0x4e44 <HC595_Latch>
    4efe:	0f 90       	pop	r0
    4f00:	0f 90       	pop	r0
    4f02:	0f 90       	pop	r0
    4f04:	cf 91       	pop	r28
    4f06:	df 91       	pop	r29
    4f08:	08 95       	ret

00004f0a <HC595_Clear_Output>:
    4f0a:	df 93       	push	r29
    4f0c:	cf 93       	push	r28
    4f0e:	cd b7       	in	r28, 0x3d	; 61
    4f10:	de b7       	in	r29, 0x3e	; 62
    4f12:	80 91 07 01 	lds	r24, 0x0107
    4f16:	8f 7d       	andi	r24, 0xDF	; 223
    4f18:	80 93 07 01 	sts	0x0107, r24
    4f1c:	80 91 08 01 	lds	r24, 0x0108
    4f20:	8f 77       	andi	r24, 0x7F	; 127
    4f22:	80 93 08 01 	sts	0x0108, r24
    4f26:	80 91 07 01 	lds	r24, 0x0107
    4f2a:	8f 7e       	andi	r24, 0xEF	; 239
    4f2c:	80 93 07 01 	sts	0x0107, r24
    4f30:	80 91 07 01 	lds	r24, 0x0107
    4f34:	8f 7b       	andi	r24, 0xBF	; 191
    4f36:	80 93 07 01 	sts	0x0107, r24
    4f3a:	80 91 07 01 	lds	r24, 0x0107
    4f3e:	8f 77       	andi	r24, 0x7F	; 127
    4f40:	80 93 07 01 	sts	0x0107, r24
    4f44:	cf 91       	pop	r28
    4f46:	df 91       	pop	r29
    4f48:	08 95       	ret

00004f4a <STATE_Init>:
    4f4a:	df 93       	push	r29
    4f4c:	cf 93       	push	r28
    4f4e:	cd b7       	in	r28, 0x3d	; 61
    4f50:	de b7       	in	r29, 0x3e	; 62
    4f52:	0e 94 66 0e 	call	0x1ccc	; 0x1ccc <GLCD_Clear>
    4f56:	10 92 99 03 	sts	0x0399, r1
    4f5a:	80 91 99 03 	lds	r24, 0x0399
    4f5e:	88 2f       	mov	r24, r24
    4f60:	90 e0       	ldi	r25, 0x00	; 0
    4f62:	0e 94 c4 25 	call	0x4b88	; 0x4b88 <MENU_Status_Header>
    4f66:	cf 91       	pop	r28
    4f68:	df 91       	pop	r29
    4f6a:	08 95       	ret

00004f6c <STATE_Check>:
    4f6c:	df 93       	push	r29
    4f6e:	cf 93       	push	r28
    4f70:	cd b7       	in	r28, 0x3d	; 61
    4f72:	de b7       	in	r29, 0x3e	; 62
    4f74:	80 91 99 03 	lds	r24, 0x0399
    4f78:	88 2f       	mov	r24, r24
    4f7a:	90 e0       	ldi	r25, 0x00	; 0
    4f7c:	84 30       	cpi	r24, 0x04	; 4
    4f7e:	91 05       	cpc	r25, r1
    4f80:	09 f4       	brne	.+2      	; 0x4f84 <STATE_Check+0x18>
    4f82:	08 c1       	rjmp	.+528    	; 0x5194 <STATE_Check+0x228>
    4f84:	85 30       	cpi	r24, 0x05	; 5
    4f86:	91 05       	cpc	r25, r1
    4f88:	3c f4       	brge	.+14     	; 0x4f98 <STATE_Check+0x2c>
    4f8a:	81 30       	cpi	r24, 0x01	; 1
    4f8c:	91 05       	cpc	r25, r1
    4f8e:	c9 f0       	breq	.+50     	; 0x4fc2 <STATE_Check+0x56>
    4f90:	82 30       	cpi	r24, 0x02	; 2
    4f92:	91 05       	cpc	r25, r1
    4f94:	89 f1       	breq	.+98     	; 0x4ff8 <STATE_Check+0x8c>
    4f96:	01 c1       	rjmp	.+514    	; 0x519a <STATE_Check+0x22e>
    4f98:	87 30       	cpi	r24, 0x07	; 7
    4f9a:	91 05       	cpc	r25, r1
    4f9c:	09 f4       	brne	.+2      	; 0x4fa0 <STATE_Check+0x34>
    4f9e:	89 c0       	rjmp	.+274    	; 0x50b2 <STATE_Check+0x146>
    4fa0:	88 30       	cpi	r24, 0x08	; 8
    4fa2:	91 05       	cpc	r25, r1
    4fa4:	2c f4       	brge	.+10     	; 0x4fb0 <STATE_Check+0x44>
    4fa6:	86 30       	cpi	r24, 0x06	; 6
    4fa8:	91 05       	cpc	r25, r1
    4faa:	09 f4       	brne	.+2      	; 0x4fae <STATE_Check+0x42>
    4fac:	67 c0       	rjmp	.+206    	; 0x507c <STATE_Check+0x110>
    4fae:	f5 c0       	rjmp	.+490    	; 0x519a <STATE_Check+0x22e>
    4fb0:	88 30       	cpi	r24, 0x08	; 8
    4fb2:	91 05       	cpc	r25, r1
    4fb4:	09 f4       	brne	.+2      	; 0x4fb8 <STATE_Check+0x4c>
    4fb6:	b1 c0       	rjmp	.+354    	; 0x511a <STATE_Check+0x1ae>
    4fb8:	89 30       	cpi	r24, 0x09	; 9
    4fba:	91 05       	cpc	r25, r1
    4fbc:	09 f4       	brne	.+2      	; 0x4fc0 <STATE_Check+0x54>
    4fbe:	bf c0       	rjmp	.+382    	; 0x513e <STATE_Check+0x1d2>
    4fc0:	ec c0       	rjmp	.+472    	; 0x519a <STATE_Check+0x22e>
    4fc2:	0e 94 4b 1a 	call	0x3496	; 0x3496 <Tank_Full>
    4fc6:	88 23       	and	r24, r24
    4fc8:	29 f4       	brne	.+10     	; 0x4fd4 <STATE_Check+0x68>
    4fca:	82 e0       	ldi	r24, 0x02	; 2
    4fcc:	80 93 99 03 	sts	0x0399, r24
    4fd0:	0e 94 d0 28 	call	0x51a0	; 0x51a0 <STATE_Set>
    4fd4:	0e 94 57 1a 	call	0x34ae	; 0x34ae <Grade2Flow>
    4fd8:	88 23       	and	r24, r24
    4fda:	39 f0       	breq	.+14     	; 0x4fea <STATE_Check+0x7e>
    4fdc:	0e 94 cf 08 	call	0x119e	; 0x119e <COND_Set_Grade1>
    4fe0:	84 e0       	ldi	r24, 0x04	; 4
    4fe2:	90 e0       	ldi	r25, 0x00	; 0
    4fe4:	0e 94 c4 25 	call	0x4b88	; 0x4b88 <MENU_Status_Header>
    4fe8:	d8 c0       	rjmp	.+432    	; 0x519a <STATE_Check+0x22e>
    4fea:	0e 94 08 09 	call	0x1210	; 0x1210 <COND_Set_Grade2>
    4fee:	81 e0       	ldi	r24, 0x01	; 1
    4ff0:	90 e0       	ldi	r25, 0x00	; 0
    4ff2:	0e 94 c4 25 	call	0x4b88	; 0x4b88 <MENU_Status_Header>
    4ff6:	d1 c0       	rjmp	.+418    	; 0x519a <STATE_Check+0x22e>
    4ff8:	0e 94 4b 1a 	call	0x3496	; 0x3496 <Tank_Full>
    4ffc:	88 23       	and	r24, r24
    4ffe:	a9 f0       	breq	.+42     	; 0x502a <STATE_Check+0xbe>
    5000:	80 91 10 03 	lds	r24, 0x0310
    5004:	90 91 11 03 	lds	r25, 0x0311
    5008:	cc 01       	movw	r24, r24
    500a:	a0 e0       	ldi	r26, 0x00	; 0
    500c:	b0 e0       	ldi	r27, 0x00	; 0
    500e:	80 93 9e 03 	sts	0x039E, r24
    5012:	90 93 9f 03 	sts	0x039F, r25
    5016:	a0 93 a0 03 	sts	0x03A0, r26
    501a:	b0 93 a1 03 	sts	0x03A1, r27
    501e:	89 e0       	ldi	r24, 0x09	; 9
    5020:	80 93 99 03 	sts	0x0399, r24
    5024:	0e 94 d0 28 	call	0x51a0	; 0x51a0 <STATE_Set>
    5028:	09 c0       	rjmp	.+18     	; 0x503c <STATE_Check+0xd0>
    502a:	0e 94 3f 1a 	call	0x347e	; 0x347e <Low_Pressure>
    502e:	88 23       	and	r24, r24
    5030:	29 f0       	breq	.+10     	; 0x503c <STATE_Check+0xd0>
    5032:	86 e0       	ldi	r24, 0x06	; 6
    5034:	80 93 99 03 	sts	0x0399, r24
    5038:	0e 94 d0 28 	call	0x51a0	; 0x51a0 <STATE_Set>
    503c:	80 91 af 03 	lds	r24, 0x03AF
    5040:	90 91 b0 03 	lds	r25, 0x03B0
    5044:	a0 91 b1 03 	lds	r26, 0x03B1
    5048:	b0 91 b2 03 	lds	r27, 0x03B2
    504c:	00 97       	sbiw	r24, 0x00	; 0
    504e:	a1 05       	cpc	r26, r1
    5050:	b1 05       	cpc	r27, r1
    5052:	11 f4       	brne	.+4      	; 0x5058 <STATE_Check+0xec>
    5054:	0e 94 e3 0c 	call	0x19c6	; 0x19c6 <ERROR_Check_Grade>
    5058:	0e 94 57 1a 	call	0x34ae	; 0x34ae <Grade2Flow>
    505c:	88 23       	and	r24, r24
    505e:	39 f0       	breq	.+14     	; 0x506e <STATE_Check+0x102>
    5060:	0e 94 cf 08 	call	0x119e	; 0x119e <COND_Set_Grade1>
    5064:	84 e0       	ldi	r24, 0x04	; 4
    5066:	90 e0       	ldi	r25, 0x00	; 0
    5068:	0e 94 c4 25 	call	0x4b88	; 0x4b88 <MENU_Status_Header>
    506c:	96 c0       	rjmp	.+300    	; 0x519a <STATE_Check+0x22e>
    506e:	0e 94 08 09 	call	0x1210	; 0x1210 <COND_Set_Grade2>
    5072:	82 e0       	ldi	r24, 0x02	; 2
    5074:	90 e0       	ldi	r25, 0x00	; 0
    5076:	0e 94 c4 25 	call	0x4b88	; 0x4b88 <MENU_Status_Header>
    507a:	8f c0       	rjmp	.+286    	; 0x519a <STATE_Check+0x22e>
    507c:	0e 94 3f 1a 	call	0x347e	; 0x347e <Low_Pressure>
    5080:	88 23       	and	r24, r24
    5082:	29 f4       	brne	.+10     	; 0x508e <STATE_Check+0x122>
    5084:	82 e0       	ldi	r24, 0x02	; 2
    5086:	80 93 99 03 	sts	0x0399, r24
    508a:	0e 94 d0 28 	call	0x51a0	; 0x51a0 <STATE_Set>
    508e:	0e 94 57 1a 	call	0x34ae	; 0x34ae <Grade2Flow>
    5092:	88 23       	and	r24, r24
    5094:	39 f0       	breq	.+14     	; 0x50a4 <STATE_Check+0x138>
    5096:	0e 94 cf 08 	call	0x119e	; 0x119e <COND_Set_Grade1>
    509a:	84 e0       	ldi	r24, 0x04	; 4
    509c:	90 e0       	ldi	r25, 0x00	; 0
    509e:	0e 94 c4 25 	call	0x4b88	; 0x4b88 <MENU_Status_Header>
    50a2:	7b c0       	rjmp	.+246    	; 0x519a <STATE_Check+0x22e>
    50a4:	0e 94 08 09 	call	0x1210	; 0x1210 <COND_Set_Grade2>
    50a8:	86 e0       	ldi	r24, 0x06	; 6
    50aa:	90 e0       	ldi	r25, 0x00	; 0
    50ac:	0e 94 c4 25 	call	0x4b88	; 0x4b88 <MENU_Status_Header>
    50b0:	74 c0       	rjmp	.+232    	; 0x519a <STATE_Check+0x22e>
    50b2:	0e 94 4b 1a 	call	0x3496	; 0x3496 <Tank_Full>
    50b6:	88 23       	and	r24, r24
    50b8:	91 f4       	brne	.+36     	; 0x50de <STATE_Check+0x172>
    50ba:	80 91 9e 03 	lds	r24, 0x039E
    50be:	90 91 9f 03 	lds	r25, 0x039F
    50c2:	a0 91 a0 03 	lds	r26, 0x03A0
    50c6:	b0 91 a1 03 	lds	r27, 0x03A1
    50ca:	00 97       	sbiw	r24, 0x00	; 0
    50cc:	a1 05       	cpc	r26, r1
    50ce:	b1 05       	cpc	r27, r1
    50d0:	91 f4       	brne	.+36     	; 0x50f6 <STATE_Check+0x18a>
    50d2:	82 e0       	ldi	r24, 0x02	; 2
    50d4:	80 93 99 03 	sts	0x0399, r24
    50d8:	0e 94 d0 28 	call	0x51a0	; 0x51a0 <STATE_Set>
    50dc:	0c c0       	rjmp	.+24     	; 0x50f6 <STATE_Check+0x18a>
    50de:	8a e0       	ldi	r24, 0x0A	; 10
    50e0:	90 e0       	ldi	r25, 0x00	; 0
    50e2:	a0 e0       	ldi	r26, 0x00	; 0
    50e4:	b0 e0       	ldi	r27, 0x00	; 0
    50e6:	80 93 9e 03 	sts	0x039E, r24
    50ea:	90 93 9f 03 	sts	0x039F, r25
    50ee:	a0 93 a0 03 	sts	0x03A0, r26
    50f2:	b0 93 a1 03 	sts	0x03A1, r27
    50f6:	0e 94 57 1a 	call	0x34ae	; 0x34ae <Grade2Flow>
    50fa:	88 23       	and	r24, r24
    50fc:	39 f0       	breq	.+14     	; 0x510c <STATE_Check+0x1a0>
    50fe:	0e 94 cf 08 	call	0x119e	; 0x119e <COND_Set_Grade1>
    5102:	84 e0       	ldi	r24, 0x04	; 4
    5104:	90 e0       	ldi	r25, 0x00	; 0
    5106:	0e 94 c4 25 	call	0x4b88	; 0x4b88 <MENU_Status_Header>
    510a:	47 c0       	rjmp	.+142    	; 0x519a <STATE_Check+0x22e>
    510c:	0e 94 08 09 	call	0x1210	; 0x1210 <COND_Set_Grade2>
    5110:	87 e0       	ldi	r24, 0x07	; 7
    5112:	90 e0       	ldi	r25, 0x00	; 0
    5114:	0e 94 c4 25 	call	0x4b88	; 0x4b88 <MENU_Status_Header>
    5118:	40 c0       	rjmp	.+128    	; 0x519a <STATE_Check+0x22e>
    511a:	80 91 b5 03 	lds	r24, 0x03B5
    511e:	90 91 b6 03 	lds	r25, 0x03B6
    5122:	a0 91 b7 03 	lds	r26, 0x03B7
    5126:	b0 91 b8 03 	lds	r27, 0x03B8
    512a:	00 97       	sbiw	r24, 0x00	; 0
    512c:	a1 05       	cpc	r26, r1
    512e:	b1 05       	cpc	r27, r1
    5130:	99 f5       	brne	.+102    	; 0x5198 <STATE_Check+0x22c>
    5132:	81 e0       	ldi	r24, 0x01	; 1
    5134:	80 93 99 03 	sts	0x0399, r24
    5138:	0e 94 d0 28 	call	0x51a0	; 0x51a0 <STATE_Set>
    513c:	2e c0       	rjmp	.+92     	; 0x519a <STATE_Check+0x22e>
    513e:	80 91 9e 03 	lds	r24, 0x039E
    5142:	90 91 9f 03 	lds	r25, 0x039F
    5146:	a0 91 a0 03 	lds	r26, 0x03A0
    514a:	b0 91 a1 03 	lds	r27, 0x03A1
    514e:	00 97       	sbiw	r24, 0x00	; 0
    5150:	a1 05       	cpc	r26, r1
    5152:	b1 05       	cpc	r27, r1
    5154:	69 f4       	brne	.+26     	; 0x5170 <STATE_Check+0x204>
    5156:	0e 94 4b 1a 	call	0x3496	; 0x3496 <Tank_Full>
    515a:	88 23       	and	r24, r24
    515c:	21 f0       	breq	.+8      	; 0x5166 <STATE_Check+0x1fa>
    515e:	87 e0       	ldi	r24, 0x07	; 7
    5160:	80 93 99 03 	sts	0x0399, r24
    5164:	03 c0       	rjmp	.+6      	; 0x516c <STATE_Check+0x200>
    5166:	82 e0       	ldi	r24, 0x02	; 2
    5168:	80 93 99 03 	sts	0x0399, r24
    516c:	0e 94 d0 28 	call	0x51a0	; 0x51a0 <STATE_Set>
    5170:	0e 94 57 1a 	call	0x34ae	; 0x34ae <Grade2Flow>
    5174:	88 23       	and	r24, r24
    5176:	39 f0       	breq	.+14     	; 0x5186 <STATE_Check+0x21a>
    5178:	0e 94 cf 08 	call	0x119e	; 0x119e <COND_Set_Grade1>
    517c:	84 e0       	ldi	r24, 0x04	; 4
    517e:	90 e0       	ldi	r25, 0x00	; 0
    5180:	0e 94 c4 25 	call	0x4b88	; 0x4b88 <MENU_Status_Header>
    5184:	0a c0       	rjmp	.+20     	; 0x519a <STATE_Check+0x22e>
    5186:	0e 94 08 09 	call	0x1210	; 0x1210 <COND_Set_Grade2>
    518a:	82 e0       	ldi	r24, 0x02	; 2
    518c:	90 e0       	ldi	r25, 0x00	; 0
    518e:	0e 94 c4 25 	call	0x4b88	; 0x4b88 <MENU_Status_Header>
    5192:	03 c0       	rjmp	.+6      	; 0x519a <STATE_Check+0x22e>
    5194:	00 00       	nop
    5196:	01 c0       	rjmp	.+2      	; 0x519a <STATE_Check+0x22e>
    5198:	00 00       	nop
    519a:	cf 91       	pop	r28
    519c:	df 91       	pop	r29
    519e:	08 95       	ret

000051a0 <STATE_Set>:
    51a0:	df 93       	push	r29
    51a2:	cf 93       	push	r28
    51a4:	cd b7       	in	r28, 0x3d	; 61
    51a6:	de b7       	in	r29, 0x3e	; 62
    51a8:	80 91 99 03 	lds	r24, 0x0399
    51ac:	88 2f       	mov	r24, r24
    51ae:	90 e0       	ldi	r25, 0x00	; 0
    51b0:	84 30       	cpi	r24, 0x04	; 4
    51b2:	91 05       	cpc	r25, r1
    51b4:	09 f4       	brne	.+2      	; 0x51b8 <STATE_Set+0x18>
    51b6:	81 c0       	rjmp	.+258    	; 0x52ba <STATE_Set+0x11a>
    51b8:	85 30       	cpi	r24, 0x05	; 5
    51ba:	91 05       	cpc	r25, r1
    51bc:	4c f4       	brge	.+18     	; 0x51d0 <STATE_Set+0x30>
    51be:	81 30       	cpi	r24, 0x01	; 1
    51c0:	91 05       	cpc	r25, r1
    51c2:	01 f1       	breq	.+64     	; 0x5204 <STATE_Set+0x64>
    51c4:	82 30       	cpi	r24, 0x02	; 2
    51c6:	91 05       	cpc	r25, r1
    51c8:	b1 f1       	breq	.+108    	; 0x5236 <STATE_Set+0x96>
    51ca:	00 97       	sbiw	r24, 0x00	; 0
    51cc:	91 f0       	breq	.+36     	; 0x51f2 <STATE_Set+0x52>
    51ce:	b7 c0       	rjmp	.+366    	; 0x533e <STATE_Set+0x19e>
    51d0:	87 30       	cpi	r24, 0x07	; 7
    51d2:	91 05       	cpc	r25, r1
    51d4:	09 f4       	brne	.+2      	; 0x51d8 <STATE_Set+0x38>
    51d6:	8d c0       	rjmp	.+282    	; 0x52f2 <STATE_Set+0x152>
    51d8:	88 30       	cpi	r24, 0x08	; 8
    51da:	91 05       	cpc	r25, r1
    51dc:	2c f4       	brge	.+10     	; 0x51e8 <STATE_Set+0x48>
    51de:	86 30       	cpi	r24, 0x06	; 6
    51e0:	91 05       	cpc	r25, r1
    51e2:	09 f4       	brne	.+2      	; 0x51e6 <STATE_Set+0x46>
    51e4:	78 c0       	rjmp	.+240    	; 0x52d6 <STATE_Set+0x136>
    51e6:	ab c0       	rjmp	.+342    	; 0x533e <STATE_Set+0x19e>
    51e8:	88 30       	cpi	r24, 0x08	; 8
    51ea:	91 05       	cpc	r25, r1
    51ec:	09 f4       	brne	.+2      	; 0x51f0 <STATE_Set+0x50>
    51ee:	8a c0       	rjmp	.+276    	; 0x5304 <STATE_Set+0x164>
    51f0:	a6 c0       	rjmp	.+332    	; 0x533e <STATE_Set+0x19e>
    51f2:	0e 94 85 27 	call	0x4f0a	; 0x4f0a <HC595_Clear_Output>
    51f6:	80 91 99 03 	lds	r24, 0x0399
    51fa:	88 2f       	mov	r24, r24
    51fc:	90 e0       	ldi	r25, 0x00	; 0
    51fe:	0e 94 c4 25 	call	0x4b88	; 0x4b88 <MENU_Status_Header>
    5202:	9d c0       	rjmp	.+314    	; 0x533e <STATE_Set+0x19e>
    5204:	10 92 b5 03 	sts	0x03B5, r1
    5208:	10 92 b6 03 	sts	0x03B6, r1
    520c:	10 92 b7 03 	sts	0x03B7, r1
    5210:	10 92 b8 03 	sts	0x03B8, r1
    5214:	10 92 9e 03 	sts	0x039E, r1
    5218:	10 92 9f 03 	sts	0x039F, r1
    521c:	10 92 a0 03 	sts	0x03A0, r1
    5220:	10 92 a1 03 	sts	0x03A1, r1
    5224:	80 91 99 03 	lds	r24, 0x0399
    5228:	88 2f       	mov	r24, r24
    522a:	90 e0       	ldi	r25, 0x00	; 0
    522c:	0e 94 c4 25 	call	0x4b88	; 0x4b88 <MENU_Status_Header>
    5230:	0e 94 85 27 	call	0x4f0a	; 0x4f0a <HC595_Clear_Output>
    5234:	84 c0       	rjmp	.+264    	; 0x533e <STATE_Set+0x19e>
    5236:	0e 94 4b 1a 	call	0x3496	; 0x3496 <Tank_Full>
    523a:	88 23       	and	r24, r24
    523c:	31 f0       	breq	.+12     	; 0x524a <STATE_Set+0xaa>
    523e:	87 e0       	ldi	r24, 0x07	; 7
    5240:	80 93 99 03 	sts	0x0399, r24
    5244:	0e 94 d0 28 	call	0x51a0	; 0x51a0 <STATE_Set>
    5248:	7a c0       	rjmp	.+244    	; 0x533e <STATE_Set+0x19e>
    524a:	0e 94 3f 1a 	call	0x347e	; 0x347e <Low_Pressure>
    524e:	88 23       	and	r24, r24
    5250:	31 f0       	breq	.+12     	; 0x525e <STATE_Set+0xbe>
    5252:	86 e0       	ldi	r24, 0x06	; 6
    5254:	80 93 99 03 	sts	0x0399, r24
    5258:	0e 94 d0 28 	call	0x51a0	; 0x51a0 <STATE_Set>
    525c:	70 c0       	rjmp	.+224    	; 0x533e <STATE_Set+0x19e>
    525e:	0e 94 08 09 	call	0x1210	; 0x1210 <COND_Set_Grade2>
    5262:	0e 94 85 27 	call	0x4f0a	; 0x4f0a <HC595_Clear_Output>
    5266:	80 91 07 01 	lds	r24, 0x0107
    526a:	80 61       	ori	r24, 0x10	; 16
    526c:	80 93 07 01 	sts	0x0107, r24
    5270:	80 91 07 01 	lds	r24, 0x0107
    5274:	80 62       	ori	r24, 0x20	; 32
    5276:	80 93 07 01 	sts	0x0107, r24
    527a:	80 91 07 01 	lds	r24, 0x0107
    527e:	80 64       	ori	r24, 0x40	; 64
    5280:	80 93 07 01 	sts	0x0107, r24
    5284:	80 91 07 01 	lds	r24, 0x0107
    5288:	88 60       	ori	r24, 0x08	; 8
    528a:	80 93 07 01 	sts	0x0107, r24
    528e:	80 91 99 03 	lds	r24, 0x0399
    5292:	88 2f       	mov	r24, r24
    5294:	90 e0       	ldi	r25, 0x00	; 0
    5296:	0e 94 c4 25 	call	0x4b88	; 0x4b88 <MENU_Status_Header>
    529a:	80 91 0e 03 	lds	r24, 0x030E
    529e:	90 91 0f 03 	lds	r25, 0x030F
    52a2:	cc 01       	movw	r24, r24
    52a4:	a0 e0       	ldi	r26, 0x00	; 0
    52a6:	b0 e0       	ldi	r27, 0x00	; 0
    52a8:	80 93 af 03 	sts	0x03AF, r24
    52ac:	90 93 b0 03 	sts	0x03B0, r25
    52b0:	a0 93 b1 03 	sts	0x03B1, r26
    52b4:	b0 93 b2 03 	sts	0x03B2, r27
    52b8:	42 c0       	rjmp	.+132    	; 0x533e <STATE_Set+0x19e>
    52ba:	0e 94 cf 08 	call	0x119e	; 0x119e <COND_Set_Grade1>
    52be:	80 91 08 01 	lds	r24, 0x0108
    52c2:	80 68       	ori	r24, 0x80	; 128
    52c4:	80 93 08 01 	sts	0x0108, r24
    52c8:	80 91 99 03 	lds	r24, 0x0399
    52cc:	88 2f       	mov	r24, r24
    52ce:	90 e0       	ldi	r25, 0x00	; 0
    52d0:	0e 94 c4 25 	call	0x4b88	; 0x4b88 <MENU_Status_Header>
    52d4:	34 c0       	rjmp	.+104    	; 0x533e <STATE_Set+0x19e>
    52d6:	0e 94 85 27 	call	0x4f0a	; 0x4f0a <HC595_Clear_Output>
    52da:	80 91 07 01 	lds	r24, 0x0107
    52de:	80 61       	ori	r24, 0x10	; 16
    52e0:	80 93 07 01 	sts	0x0107, r24
    52e4:	80 91 99 03 	lds	r24, 0x0399
    52e8:	88 2f       	mov	r24, r24
    52ea:	90 e0       	ldi	r25, 0x00	; 0
    52ec:	0e 94 c4 25 	call	0x4b88	; 0x4b88 <MENU_Status_Header>
    52f0:	26 c0       	rjmp	.+76     	; 0x533e <STATE_Set+0x19e>
    52f2:	0e 94 85 27 	call	0x4f0a	; 0x4f0a <HC595_Clear_Output>
    52f6:	80 91 99 03 	lds	r24, 0x0399
    52fa:	88 2f       	mov	r24, r24
    52fc:	90 e0       	ldi	r25, 0x00	; 0
    52fe:	0e 94 c4 25 	call	0x4b88	; 0x4b88 <MENU_Status_Header>
    5302:	1d c0       	rjmp	.+58     	; 0x533e <STATE_Set+0x19e>
    5304:	0e 94 85 27 	call	0x4f0a	; 0x4f0a <HC595_Clear_Output>
    5308:	80 91 07 01 	lds	r24, 0x0107
    530c:	8f 77       	andi	r24, 0x7F	; 127
    530e:	80 93 07 01 	sts	0x0107, r24
    5312:	80 91 99 03 	lds	r24, 0x0399
    5316:	88 2f       	mov	r24, r24
    5318:	90 e0       	ldi	r25, 0x00	; 0
    531a:	0e 94 c4 25 	call	0x4b88	; 0x4b88 <MENU_Status_Header>
    531e:	80 91 b3 03 	lds	r24, 0x03B3
    5322:	90 91 b4 03 	lds	r25, 0x03B4
    5326:	cc 01       	movw	r24, r24
    5328:	a0 e0       	ldi	r26, 0x00	; 0
    532a:	b0 e0       	ldi	r27, 0x00	; 0
    532c:	80 93 b5 03 	sts	0x03B5, r24
    5330:	90 93 b6 03 	sts	0x03B6, r25
    5334:	a0 93 b7 03 	sts	0x03B7, r26
    5338:	b0 93 b8 03 	sts	0x03B8, r27
    533c:	00 00       	nop
    533e:	cf 91       	pop	r28
    5340:	df 91       	pop	r29
    5342:	08 95       	ret

00005344 <getTemperature>:
    5344:	df 93       	push	r29
    5346:	cf 93       	push	r28
    5348:	00 d0       	rcall	.+0      	; 0x534a <getTemperature+0x6>
    534a:	cd b7       	in	r28, 0x3d	; 61
    534c:	de b7       	in	r29, 0x3e	; 62
    534e:	9a 83       	std	Y+2, r25	; 0x02
    5350:	89 83       	std	Y+1, r24	; 0x01
    5352:	89 81       	ldd	r24, Y+1	; 0x01
    5354:	9a 81       	ldd	r25, Y+2	; 0x02
    5356:	fc 01       	movw	r30, r24
    5358:	80 81       	ld	r24, Z
    535a:	91 81       	ldd	r25, Z+1	; 0x01
    535c:	0f 90       	pop	r0
    535e:	0f 90       	pop	r0
    5360:	cf 91       	pop	r28
    5362:	df 91       	pop	r29
    5364:	08 95       	ret

00005366 <setTemperature>:
    5366:	df 93       	push	r29
    5368:	cf 93       	push	r28
    536a:	00 d0       	rcall	.+0      	; 0x536c <setTemperature+0x6>
    536c:	00 d0       	rcall	.+0      	; 0x536e <setTemperature+0x8>
    536e:	cd b7       	in	r28, 0x3d	; 61
    5370:	de b7       	in	r29, 0x3e	; 62
    5372:	9a 83       	std	Y+2, r25	; 0x02
    5374:	89 83       	std	Y+1, r24	; 0x01
    5376:	7c 83       	std	Y+4, r23	; 0x04
    5378:	6b 83       	std	Y+3, r22	; 0x03
    537a:	89 81       	ldd	r24, Y+1	; 0x01
    537c:	9a 81       	ldd	r25, Y+2	; 0x02
    537e:	2b 81       	ldd	r18, Y+3	; 0x03
    5380:	3c 81       	ldd	r19, Y+4	; 0x04
    5382:	fc 01       	movw	r30, r24
    5384:	31 83       	std	Z+1, r19	; 0x01
    5386:	20 83       	st	Z, r18
    5388:	0f 90       	pop	r0
    538a:	0f 90       	pop	r0
    538c:	0f 90       	pop	r0
    538e:	0f 90       	pop	r0
    5390:	cf 91       	pop	r28
    5392:	df 91       	pop	r29
    5394:	08 95       	ret

00005396 <TEMPERATURE_Calculate>:
    5396:	df 93       	push	r29
    5398:	cf 93       	push	r28
    539a:	00 d0       	rcall	.+0      	; 0x539c <TEMPERATURE_Calculate+0x6>
    539c:	cd b7       	in	r28, 0x3d	; 61
    539e:	de b7       	in	r29, 0x3e	; 62
    53a0:	80 91 3e 03 	lds	r24, 0x033E
    53a4:	90 91 3f 03 	lds	r25, 0x033F
    53a8:	cc 01       	movw	r24, r24
    53aa:	a0 e0       	ldi	r26, 0x00	; 0
    53ac:	b0 e0       	ldi	r27, 0x00	; 0
    53ae:	bc 01       	movw	r22, r24
    53b0:	cd 01       	movw	r24, r26
    53b2:	0e 94 82 2d 	call	0x5b04	; 0x5b04 <__floatunsisf>
    53b6:	dc 01       	movw	r26, r24
    53b8:	cb 01       	movw	r24, r22
    53ba:	20 91 44 03 	lds	r18, 0x0344
    53be:	30 91 45 03 	lds	r19, 0x0345
    53c2:	40 91 46 03 	lds	r20, 0x0346
    53c6:	50 91 47 03 	lds	r21, 0x0347
    53ca:	bc 01       	movw	r22, r24
    53cc:	cd 01       	movw	r24, r26
    53ce:	0e 94 38 2e 	call	0x5c70	; 0x5c70 <__mulsf3>
    53d2:	dc 01       	movw	r26, r24
    53d4:	cb 01       	movw	r24, r22
    53d6:	20 91 40 03 	lds	r18, 0x0340
    53da:	30 91 41 03 	lds	r19, 0x0341
    53de:	40 91 42 03 	lds	r20, 0x0342
    53e2:	50 91 43 03 	lds	r21, 0x0343
    53e6:	bc 01       	movw	r22, r24
    53e8:	cd 01       	movw	r24, r26
    53ea:	0e 94 86 2c 	call	0x590c	; 0x590c <__addsf3>
    53ee:	dc 01       	movw	r26, r24
    53f0:	cb 01       	movw	r24, r22
    53f2:	bc 01       	movw	r22, r24
    53f4:	cd 01       	movw	r24, r26
    53f6:	0e 94 56 2d 	call	0x5aac	; 0x5aac <__fixunssfsi>
    53fa:	dc 01       	movw	r26, r24
    53fc:	cb 01       	movw	r24, r22
    53fe:	9a 83       	std	Y+2, r25	; 0x02
    5400:	89 83       	std	Y+1, r24	; 0x01
    5402:	89 81       	ldd	r24, Y+1	; 0x01
    5404:	9a 81       	ldd	r25, Y+2	; 0x02
    5406:	22 e0       	ldi	r18, 0x02	; 2
    5408:	8f 3e       	cpi	r24, 0xEF	; 239
    540a:	92 07       	cpc	r25, r18
    540c:	20 f0       	brcs	.+8      	; 0x5416 <TEMPERATURE_Calculate+0x80>
    540e:	8a ef       	ldi	r24, 0xFA	; 250
    5410:	90 e0       	ldi	r25, 0x00	; 0
    5412:	9a 83       	std	Y+2, r25	; 0x02
    5414:	89 83       	std	Y+1, r24	; 0x01
    5416:	89 81       	ldd	r24, Y+1	; 0x01
    5418:	9a 81       	ldd	r25, Y+2	; 0x02
    541a:	0f 90       	pop	r0
    541c:	0f 90       	pop	r0
    541e:	cf 91       	pop	r28
    5420:	df 91       	pop	r29
    5422:	08 95       	ret

00005424 <TEMPERATURE_Display>:
    5424:	df 93       	push	r29
    5426:	cf 93       	push	r28
    5428:	cd b7       	in	r28, 0x3d	; 61
    542a:	de b7       	in	r29, 0x3e	; 62
    542c:	27 97       	sbiw	r28, 0x07	; 7
    542e:	0f b6       	in	r0, 0x3f	; 63
    5430:	f8 94       	cli
    5432:	de bf       	out	0x3e, r29	; 62
    5434:	0f be       	out	0x3f, r0	; 63
    5436:	cd bf       	out	0x3d, r28	; 61
    5438:	9f 83       	std	Y+7, r25	; 0x07
    543a:	8e 83       	std	Y+6, r24	; 0x06
    543c:	8e 81       	ldd	r24, Y+6	; 0x06
    543e:	9f 81       	ldd	r25, Y+7	; 0x07
    5440:	cc 01       	movw	r24, r24
    5442:	a0 e0       	ldi	r26, 0x00	; 0
    5444:	b0 e0       	ldi	r27, 0x00	; 0
    5446:	2d b7       	in	r18, 0x3d	; 61
    5448:	3e b7       	in	r19, 0x3e	; 62
    544a:	2a 50       	subi	r18, 0x0A	; 10
    544c:	30 40       	sbci	r19, 0x00	; 0
    544e:	0f b6       	in	r0, 0x3f	; 63
    5450:	f8 94       	cli
    5452:	3e bf       	out	0x3e, r19	; 62
    5454:	0f be       	out	0x3f, r0	; 63
    5456:	2d bf       	out	0x3d, r18	; 61
    5458:	2d b7       	in	r18, 0x3d	; 61
    545a:	3e b7       	in	r19, 0x3e	; 62
    545c:	2f 5f       	subi	r18, 0xFF	; 255
    545e:	3f 4f       	sbci	r19, 0xFF	; 255
    5460:	ae 01       	movw	r20, r28
    5462:	4f 5f       	subi	r20, 0xFF	; 255
    5464:	5f 4f       	sbci	r21, 0xFF	; 255
    5466:	f9 01       	movw	r30, r18
    5468:	51 83       	std	Z+1, r21	; 0x01
    546a:	40 83       	st	Z, r20
    546c:	45 e0       	ldi	r20, 0x05	; 5
    546e:	50 e0       	ldi	r21, 0x00	; 0
    5470:	f9 01       	movw	r30, r18
    5472:	53 83       	std	Z+3, r21	; 0x03
    5474:	42 83       	std	Z+2, r20	; 0x02
    5476:	48 e4       	ldi	r20, 0x48	; 72
    5478:	53 e0       	ldi	r21, 0x03	; 3
    547a:	f9 01       	movw	r30, r18
    547c:	55 83       	std	Z+5, r21	; 0x05
    547e:	44 83       	std	Z+4, r20	; 0x04
    5480:	f9 01       	movw	r30, r18
    5482:	86 83       	std	Z+6, r24	; 0x06
    5484:	97 83       	std	Z+7, r25	; 0x07
    5486:	a0 87       	std	Z+8, r26	; 0x08
    5488:	b1 87       	std	Z+9, r27	; 0x09
    548a:	0e 94 5c 2f 	call	0x5eb8	; 0x5eb8 <snprintf>
    548e:	2d b7       	in	r18, 0x3d	; 61
    5490:	3e b7       	in	r19, 0x3e	; 62
    5492:	26 5f       	subi	r18, 0xF6	; 246
    5494:	3f 4f       	sbci	r19, 0xFF	; 255
    5496:	0f b6       	in	r0, 0x3f	; 63
    5498:	f8 94       	cli
    549a:	3e bf       	out	0x3e, r19	; 62
    549c:	0f be       	out	0x3f, r0	; 63
    549e:	2d bf       	out	0x3d, r18	; 61
    54a0:	8e 81       	ldd	r24, Y+6	; 0x06
    54a2:	9f 81       	ldd	r25, Y+7	; 0x07
    54a4:	84 36       	cpi	r24, 0x64	; 100
    54a6:	91 05       	cpc	r25, r1
    54a8:	80 f1       	brcs	.+96     	; 0x550a <TEMPERATURE_Display+0xe6>
    54aa:	89 81       	ldd	r24, Y+1	; 0x01
    54ac:	68 2f       	mov	r22, r24
    54ae:	70 e0       	ldi	r23, 0x00	; 0
    54b0:	8a 81       	ldd	r24, Y+2	; 0x02
    54b2:	48 2f       	mov	r20, r24
    54b4:	50 e0       	ldi	r21, 0x00	; 0
    54b6:	8b 81       	ldd	r24, Y+3	; 0x03
    54b8:	28 2f       	mov	r18, r24
    54ba:	30 e0       	ldi	r19, 0x00	; 0
    54bc:	8d b7       	in	r24, 0x3d	; 61
    54be:	9e b7       	in	r25, 0x3e	; 62
    54c0:	08 97       	sbiw	r24, 0x08	; 8
    54c2:	0f b6       	in	r0, 0x3f	; 63
    54c4:	f8 94       	cli
    54c6:	9e bf       	out	0x3e, r25	; 62
    54c8:	0f be       	out	0x3f, r0	; 63
    54ca:	8d bf       	out	0x3d, r24	; 61
    54cc:	8d b7       	in	r24, 0x3d	; 61
    54ce:	9e b7       	in	r25, 0x3e	; 62
    54d0:	01 96       	adiw	r24, 0x01	; 1
    54d2:	ec e4       	ldi	r30, 0x4C	; 76
    54d4:	f3 e0       	ldi	r31, 0x03	; 3
    54d6:	dc 01       	movw	r26, r24
    54d8:	ed 93       	st	X+, r30
    54da:	fc 93       	st	X, r31
    54dc:	fc 01       	movw	r30, r24
    54de:	73 83       	std	Z+3, r23	; 0x03
    54e0:	62 83       	std	Z+2, r22	; 0x02
    54e2:	dc 01       	movw	r26, r24
    54e4:	15 96       	adiw	r26, 0x05	; 5
    54e6:	5c 93       	st	X, r21
    54e8:	4e 93       	st	-X, r20
    54ea:	14 97       	sbiw	r26, 0x04	; 4
    54ec:	fc 01       	movw	r30, r24
    54ee:	37 83       	std	Z+7, r19	; 0x07
    54f0:	26 83       	std	Z+6, r18	; 0x06
    54f2:	0e 94 e3 11 	call	0x23c6	; 0x23c6 <GLCD_Printf>
    54f6:	2d b7       	in	r18, 0x3d	; 61
    54f8:	3e b7       	in	r19, 0x3e	; 62
    54fa:	28 5f       	subi	r18, 0xF8	; 248
    54fc:	3f 4f       	sbci	r19, 0xFF	; 255
    54fe:	0f b6       	in	r0, 0x3f	; 63
    5500:	f8 94       	cli
    5502:	3e bf       	out	0x3e, r19	; 62
    5504:	0f be       	out	0x3f, r0	; 63
    5506:	2d bf       	out	0x3d, r18	; 61
    5508:	3f c0       	rjmp	.+126    	; 0x5588 <TEMPERATURE_Display+0x164>
    550a:	8e 81       	ldd	r24, Y+6	; 0x06
    550c:	9f 81       	ldd	r25, Y+7	; 0x07
    550e:	8a 30       	cpi	r24, 0x0A	; 10
    5510:	91 05       	cpc	r25, r1
    5512:	20 f1       	brcs	.+72     	; 0x555c <TEMPERATURE_Display+0x138>
    5514:	89 81       	ldd	r24, Y+1	; 0x01
    5516:	48 2f       	mov	r20, r24
    5518:	50 e0       	ldi	r21, 0x00	; 0
    551a:	8a 81       	ldd	r24, Y+2	; 0x02
    551c:	28 2f       	mov	r18, r24
    551e:	30 e0       	ldi	r19, 0x00	; 0
    5520:	00 d0       	rcall	.+0      	; 0x5522 <TEMPERATURE_Display+0xfe>
    5522:	00 d0       	rcall	.+0      	; 0x5524 <TEMPERATURE_Display+0x100>
    5524:	00 d0       	rcall	.+0      	; 0x5526 <TEMPERATURE_Display+0x102>
    5526:	8d b7       	in	r24, 0x3d	; 61
    5528:	9e b7       	in	r25, 0x3e	; 62
    552a:	01 96       	adiw	r24, 0x01	; 1
    552c:	69 e5       	ldi	r22, 0x59	; 89
    552e:	73 e0       	ldi	r23, 0x03	; 3
    5530:	dc 01       	movw	r26, r24
    5532:	6d 93       	st	X+, r22
    5534:	7c 93       	st	X, r23
    5536:	fc 01       	movw	r30, r24
    5538:	53 83       	std	Z+3, r21	; 0x03
    553a:	42 83       	std	Z+2, r20	; 0x02
    553c:	dc 01       	movw	r26, r24
    553e:	15 96       	adiw	r26, 0x05	; 5
    5540:	3c 93       	st	X, r19
    5542:	2e 93       	st	-X, r18
    5544:	14 97       	sbiw	r26, 0x04	; 4
    5546:	0e 94 e3 11 	call	0x23c6	; 0x23c6 <GLCD_Printf>
    554a:	ed b7       	in	r30, 0x3d	; 61
    554c:	fe b7       	in	r31, 0x3e	; 62
    554e:	36 96       	adiw	r30, 0x06	; 6
    5550:	0f b6       	in	r0, 0x3f	; 63
    5552:	f8 94       	cli
    5554:	fe bf       	out	0x3e, r31	; 62
    5556:	0f be       	out	0x3f, r0	; 63
    5558:	ed bf       	out	0x3d, r30	; 61
    555a:	16 c0       	rjmp	.+44     	; 0x5588 <TEMPERATURE_Display+0x164>
    555c:	89 81       	ldd	r24, Y+1	; 0x01
    555e:	28 2f       	mov	r18, r24
    5560:	30 e0       	ldi	r19, 0x00	; 0
    5562:	00 d0       	rcall	.+0      	; 0x5564 <TEMPERATURE_Display+0x140>
    5564:	00 d0       	rcall	.+0      	; 0x5566 <TEMPERATURE_Display+0x142>
    5566:	8d b7       	in	r24, 0x3d	; 61
    5568:	9e b7       	in	r25, 0x3e	; 62
    556a:	01 96       	adiw	r24, 0x01	; 1
    556c:	45 e6       	ldi	r20, 0x65	; 101
    556e:	53 e0       	ldi	r21, 0x03	; 3
    5570:	dc 01       	movw	r26, r24
    5572:	4d 93       	st	X+, r20
    5574:	5c 93       	st	X, r21
    5576:	fc 01       	movw	r30, r24
    5578:	33 83       	std	Z+3, r19	; 0x03
    557a:	22 83       	std	Z+2, r18	; 0x02
    557c:	0e 94 e3 11 	call	0x23c6	; 0x23c6 <GLCD_Printf>
    5580:	0f 90       	pop	r0
    5582:	0f 90       	pop	r0
    5584:	0f 90       	pop	r0
    5586:	0f 90       	pop	r0
    5588:	27 96       	adiw	r28, 0x07	; 7
    558a:	0f b6       	in	r0, 0x3f	; 63
    558c:	f8 94       	cli
    558e:	de bf       	out	0x3e, r29	; 62
    5590:	0f be       	out	0x3f, r0	; 63
    5592:	cd bf       	out	0x3d, r28	; 61
    5594:	cf 91       	pop	r28
    5596:	df 91       	pop	r29
    5598:	08 95       	ret

0000559a <Temperature_Compensate>:
    559a:	0f 93       	push	r16
    559c:	1f 93       	push	r17
    559e:	df 93       	push	r29
    55a0:	cf 93       	push	r28
    55a2:	cd b7       	in	r28, 0x3d	; 61
    55a4:	de b7       	in	r29, 0x3e	; 62
    55a6:	2a 97       	sbiw	r28, 0x0a	; 10
    55a8:	0f b6       	in	r0, 0x3f	; 63
    55aa:	f8 94       	cli
    55ac:	de bf       	out	0x3e, r29	; 62
    55ae:	0f be       	out	0x3f, r0	; 63
    55b0:	cd bf       	out	0x3d, r28	; 61
    55b2:	0e 94 cb 29 	call	0x5396	; 0x5396 <TEMPERATURE_Calculate>
    55b6:	9a 83       	std	Y+2, r25	; 0x02
    55b8:	89 83       	std	Y+1, r24	; 0x01
    55ba:	89 81       	ldd	r24, Y+1	; 0x01
    55bc:	9a 81       	ldd	r25, Y+2	; 0x02
    55be:	21 e0       	ldi	r18, 0x01	; 1
    55c0:	85 3f       	cpi	r24, 0xF5	; 245
    55c2:	92 07       	cpc	r25, r18
    55c4:	20 f0       	brcs	.+8      	; 0x55ce <Temperature_Compensate+0x34>
    55c6:	84 ef       	ldi	r24, 0xF4	; 244
    55c8:	91 e0       	ldi	r25, 0x01	; 1
    55ca:	9a 83       	std	Y+2, r25	; 0x02
    55cc:	89 83       	std	Y+1, r24	; 0x01
    55ce:	89 81       	ldd	r24, Y+1	; 0x01
    55d0:	9a 81       	ldd	r25, Y+2	; 0x02
    55d2:	00 97       	sbiw	r24, 0x00	; 0
    55d4:	11 f4       	brne	.+4      	; 0x55da <Temperature_Compensate+0x40>
    55d6:	1a 82       	std	Y+2, r1	; 0x02
    55d8:	19 82       	std	Y+1, r1	; 0x01
    55da:	89 81       	ldd	r24, Y+1	; 0x01
    55dc:	9a 81       	ldd	r25, Y+2	; 0x02
    55de:	22 e3       	ldi	r18, 0x32	; 50
    55e0:	30 e0       	ldi	r19, 0x00	; 0
    55e2:	b9 01       	movw	r22, r18
    55e4:	0e 94 c6 2e 	call	0x5d8c	; 0x5d8c <__udivmodhi4>
    55e8:	9b 01       	movw	r18, r22
    55ea:	c9 01       	movw	r24, r18
    55ec:	8b 83       	std	Y+3, r24	; 0x03
    55ee:	89 81       	ldd	r24, Y+1	; 0x01
    55f0:	9a 81       	ldd	r25, Y+2	; 0x02
    55f2:	22 e3       	ldi	r18, 0x32	; 50
    55f4:	30 e0       	ldi	r19, 0x00	; 0
    55f6:	b9 01       	movw	r22, r18
    55f8:	0e 94 c6 2e 	call	0x5d8c	; 0x5d8c <__udivmodhi4>
    55fc:	8c 83       	std	Y+4, r24	; 0x04
    55fe:	8b 81       	ldd	r24, Y+3	; 0x03
    5600:	88 2f       	mov	r24, r24
    5602:	90 e0       	ldi	r25, 0x00	; 0
    5604:	88 0f       	add	r24, r24
    5606:	99 1f       	adc	r25, r25
    5608:	88 0f       	add	r24, r24
    560a:	99 1f       	adc	r25, r25
    560c:	8e 5e       	subi	r24, 0xEE	; 238
    560e:	9c 4f       	sbci	r25, 0xFC	; 252
    5610:	fc 01       	movw	r30, r24
    5612:	80 81       	ld	r24, Z
    5614:	91 81       	ldd	r25, Z+1	; 0x01
    5616:	a2 81       	ldd	r26, Z+2	; 0x02
    5618:	b3 81       	ldd	r27, Z+3	; 0x03
    561a:	9c 01       	movw	r18, r24
    561c:	8b 81       	ldd	r24, Y+3	; 0x03
    561e:	88 2f       	mov	r24, r24
    5620:	90 e0       	ldi	r25, 0x00	; 0
    5622:	01 96       	adiw	r24, 0x01	; 1
    5624:	88 0f       	add	r24, r24
    5626:	99 1f       	adc	r25, r25
    5628:	88 0f       	add	r24, r24
    562a:	99 1f       	adc	r25, r25
    562c:	8e 5e       	subi	r24, 0xEE	; 238
    562e:	9c 4f       	sbci	r25, 0xFC	; 252
    5630:	fc 01       	movw	r30, r24
    5632:	80 81       	ld	r24, Z
    5634:	91 81       	ldd	r25, Z+1	; 0x01
    5636:	a2 81       	ldd	r26, Z+2	; 0x02
    5638:	b3 81       	ldd	r27, Z+3	; 0x03
    563a:	a9 01       	movw	r20, r18
    563c:	48 1b       	sub	r20, r24
    563e:	59 0b       	sbc	r21, r25
    5640:	ca 01       	movw	r24, r20
    5642:	9e 83       	std	Y+6, r25	; 0x06
    5644:	8d 83       	std	Y+5, r24	; 0x05
    5646:	8b 81       	ldd	r24, Y+3	; 0x03
    5648:	88 2f       	mov	r24, r24
    564a:	90 e0       	ldi	r25, 0x00	; 0
    564c:	88 0f       	add	r24, r24
    564e:	99 1f       	adc	r25, r25
    5650:	88 0f       	add	r24, r24
    5652:	99 1f       	adc	r25, r25
    5654:	8e 5e       	subi	r24, 0xEE	; 238
    5656:	9c 4f       	sbci	r25, 0xFC	; 252
    5658:	fc 01       	movw	r30, r24
    565a:	00 81       	ld	r16, Z
    565c:	11 81       	ldd	r17, Z+1	; 0x01
    565e:	22 81       	ldd	r18, Z+2	; 0x02
    5660:	33 81       	ldd	r19, Z+3	; 0x03
    5662:	8d 81       	ldd	r24, Y+5	; 0x05
    5664:	9e 81       	ldd	r25, Y+6	; 0x06
    5666:	42 e3       	ldi	r20, 0x32	; 50
    5668:	50 e0       	ldi	r21, 0x00	; 0
    566a:	ba 01       	movw	r22, r20
    566c:	0e 94 c6 2e 	call	0x5d8c	; 0x5d8c <__udivmodhi4>
    5670:	ab 01       	movw	r20, r22
    5672:	ba 01       	movw	r22, r20
    5674:	8c 81       	ldd	r24, Y+4	; 0x04
    5676:	48 2f       	mov	r20, r24
    5678:	50 e0       	ldi	r21, 0x00	; 0
    567a:	64 9f       	mul	r22, r20
    567c:	c0 01       	movw	r24, r0
    567e:	65 9f       	mul	r22, r21
    5680:	90 0d       	add	r25, r0
    5682:	74 9f       	mul	r23, r20
    5684:	90 0d       	add	r25, r0
    5686:	11 24       	eor	r1, r1
    5688:	cc 01       	movw	r24, r24
    568a:	a0 e0       	ldi	r26, 0x00	; 0
    568c:	b0 e0       	ldi	r27, 0x00	; 0
    568e:	b9 01       	movw	r22, r18
    5690:	a8 01       	movw	r20, r16
    5692:	48 1b       	sub	r20, r24
    5694:	59 0b       	sbc	r21, r25
    5696:	6a 0b       	sbc	r22, r26
    5698:	7b 0b       	sbc	r23, r27
    569a:	db 01       	movw	r26, r22
    569c:	ca 01       	movw	r24, r20
    569e:	8f 83       	std	Y+7, r24	; 0x07
    56a0:	98 87       	std	Y+8, r25	; 0x08
    56a2:	a9 87       	std	Y+9, r26	; 0x09
    56a4:	ba 87       	std	Y+10, r27	; 0x0a
    56a6:	8f 81       	ldd	r24, Y+7	; 0x07
    56a8:	98 85       	ldd	r25, Y+8	; 0x08
    56aa:	a9 85       	ldd	r26, Y+9	; 0x09
    56ac:	ba 85       	ldd	r27, Y+10	; 0x0a
    56ae:	bc 01       	movw	r22, r24
    56b0:	cd 01       	movw	r24, r26
    56b2:	2a 96       	adiw	r28, 0x0a	; 10
    56b4:	0f b6       	in	r0, 0x3f	; 63
    56b6:	f8 94       	cli
    56b8:	de bf       	out	0x3e, r29	; 62
    56ba:	0f be       	out	0x3f, r0	; 63
    56bc:	cd bf       	out	0x3d, r28	; 61
    56be:	cf 91       	pop	r28
    56c0:	df 91       	pop	r29
    56c2:	1f 91       	pop	r17
    56c4:	0f 91       	pop	r16
    56c6:	08 95       	ret

000056c8 <TIMER_Init>:
    56c8:	df 93       	push	r29
    56ca:	cf 93       	push	r28
    56cc:	cd b7       	in	r28, 0x3d	; 61
    56ce:	de b7       	in	r29, 0x3e	; 62
    56d0:	85 e4       	ldi	r24, 0x45	; 69
    56d2:	90 e0       	ldi	r25, 0x00	; 0
    56d4:	25 e4       	ldi	r18, 0x45	; 69
    56d6:	30 e0       	ldi	r19, 0x00	; 0
    56d8:	f9 01       	movw	r30, r18
    56da:	20 81       	ld	r18, Z
    56dc:	2f 60       	ori	r18, 0x0F	; 15
    56de:	fc 01       	movw	r30, r24
    56e0:	20 83       	st	Z, r18
    56e2:	83 e4       	ldi	r24, 0x43	; 67
    56e4:	90 e0       	ldi	r25, 0x00	; 0
    56e6:	23 e4       	ldi	r18, 0x43	; 67
    56e8:	30 e0       	ldi	r19, 0x00	; 0
    56ea:	f9 01       	movw	r30, r18
    56ec:	20 81       	ld	r18, Z
    56ee:	2d 67       	ori	r18, 0x7D	; 125
    56f0:	fc 01       	movw	r30, r24
    56f2:	20 83       	st	Z, r18
    56f4:	89 e5       	ldi	r24, 0x59	; 89
    56f6:	90 e0       	ldi	r25, 0x00	; 0
    56f8:	29 e5       	ldi	r18, 0x59	; 89
    56fa:	30 e0       	ldi	r19, 0x00	; 0
    56fc:	f9 01       	movw	r30, r18
    56fe:	20 81       	ld	r18, Z
    5700:	20 68       	ori	r18, 0x80	; 128
    5702:	fc 01       	movw	r30, r24
    5704:	20 83       	st	Z, r18
    5706:	cf 91       	pop	r28
    5708:	df 91       	pop	r29
    570a:	08 95       	ret

0000570c <__vector_4>:
    570c:	1f 92       	push	r1
    570e:	0f 92       	push	r0
    5710:	0f b6       	in	r0, 0x3f	; 63
    5712:	0f 92       	push	r0
    5714:	11 24       	eor	r1, r1
    5716:	8f 93       	push	r24
    5718:	9f 93       	push	r25
    571a:	af 93       	push	r26
    571c:	bf 93       	push	r27
    571e:	df 93       	push	r29
    5720:	cf 93       	push	r28
    5722:	cd b7       	in	r28, 0x3d	; 61
    5724:	de b7       	in	r29, 0x3e	; 62
    5726:	80 91 a3 03 	lds	r24, 0x03A3
    572a:	8d 37       	cpi	r24, 0x7D	; 125
    572c:	09 f0       	breq	.+2      	; 0x5730 <__vector_4+0x24>
    572e:	44 c0       	rjmp	.+136    	; 0x57b8 <__vector_4+0xac>
    5730:	81 e0       	ldi	r24, 0x01	; 1
    5732:	80 93 a2 03 	sts	0x03A2, r24
    5736:	80 91 9a 03 	lds	r24, 0x039A
    573a:	90 91 9b 03 	lds	r25, 0x039B
    573e:	a0 91 9c 03 	lds	r26, 0x039C
    5742:	b0 91 9d 03 	lds	r27, 0x039D
    5746:	00 97       	sbiw	r24, 0x00	; 0
    5748:	a1 05       	cpc	r26, r1
    574a:	b1 05       	cpc	r27, r1
    574c:	99 f0       	breq	.+38     	; 0x5774 <__vector_4+0x68>
    574e:	80 91 9a 03 	lds	r24, 0x039A
    5752:	90 91 9b 03 	lds	r25, 0x039B
    5756:	a0 91 9c 03 	lds	r26, 0x039C
    575a:	b0 91 9d 03 	lds	r27, 0x039D
    575e:	01 97       	sbiw	r24, 0x01	; 1
    5760:	a1 09       	sbc	r26, r1
    5762:	b1 09       	sbc	r27, r1
    5764:	80 93 9a 03 	sts	0x039A, r24
    5768:	90 93 9b 03 	sts	0x039B, r25
    576c:	a0 93 9c 03 	sts	0x039C, r26
    5770:	b0 93 9d 03 	sts	0x039D, r27
    5774:	80 91 9e 03 	lds	r24, 0x039E
    5778:	90 91 9f 03 	lds	r25, 0x039F
    577c:	a0 91 a0 03 	lds	r26, 0x03A0
    5780:	b0 91 a1 03 	lds	r27, 0x03A1
    5784:	00 97       	sbiw	r24, 0x00	; 0
    5786:	a1 05       	cpc	r26, r1
    5788:	b1 05       	cpc	r27, r1
    578a:	99 f0       	breq	.+38     	; 0x57b2 <__vector_4+0xa6>
    578c:	80 91 9e 03 	lds	r24, 0x039E
    5790:	90 91 9f 03 	lds	r25, 0x039F
    5794:	a0 91 a0 03 	lds	r26, 0x03A0
    5798:	b0 91 a1 03 	lds	r27, 0x03A1
    579c:	01 97       	sbiw	r24, 0x01	; 1
    579e:	a1 09       	sbc	r26, r1
    57a0:	b1 09       	sbc	r27, r1
    57a2:	80 93 9e 03 	sts	0x039E, r24
    57a6:	90 93 9f 03 	sts	0x039F, r25
    57aa:	a0 93 a0 03 	sts	0x03A0, r26
    57ae:	b0 93 a1 03 	sts	0x03A1, r27
    57b2:	10 92 a3 03 	sts	0x03A3, r1
    57b6:	05 c0       	rjmp	.+10     	; 0x57c2 <__vector_4+0xb6>
    57b8:	80 91 a3 03 	lds	r24, 0x03A3
    57bc:	8f 5f       	subi	r24, 0xFF	; 255
    57be:	80 93 a3 03 	sts	0x03A3, r24
    57c2:	cf 91       	pop	r28
    57c4:	df 91       	pop	r29
    57c6:	bf 91       	pop	r27
    57c8:	af 91       	pop	r26
    57ca:	9f 91       	pop	r25
    57cc:	8f 91       	pop	r24
    57ce:	0f 90       	pop	r0
    57d0:	0f be       	out	0x3f, r0	; 63
    57d2:	0f 90       	pop	r0
    57d4:	1f 90       	pop	r1
    57d6:	18 95       	reti

000057d8 <UART_Init>:
    57d8:	df 93       	push	r29
    57da:	cf 93       	push	r28
    57dc:	cd b7       	in	r28, 0x3d	; 61
    57de:	de b7       	in	r29, 0x3e	; 62
    57e0:	80 e4       	ldi	r24, 0x40	; 64
    57e2:	90 e0       	ldi	r25, 0x00	; 0
    57e4:	fc 01       	movw	r30, r24
    57e6:	10 82       	st	Z, r1
    57e8:	89 e2       	ldi	r24, 0x29	; 41
    57ea:	90 e0       	ldi	r25, 0x00	; 0
    57ec:	27 e6       	ldi	r18, 0x67	; 103
    57ee:	fc 01       	movw	r30, r24
    57f0:	20 83       	st	Z, r18
    57f2:	8a e2       	ldi	r24, 0x2A	; 42
    57f4:	90 e0       	ldi	r25, 0x00	; 0
    57f6:	2a e2       	ldi	r18, 0x2A	; 42
    57f8:	30 e0       	ldi	r19, 0x00	; 0
    57fa:	f9 01       	movw	r30, r18
    57fc:	20 81       	ld	r18, Z
    57fe:	28 61       	ori	r18, 0x18	; 24
    5800:	fc 01       	movw	r30, r24
    5802:	20 83       	st	Z, r18
    5804:	8a e2       	ldi	r24, 0x2A	; 42
    5806:	90 e0       	ldi	r25, 0x00	; 0
    5808:	2a e2       	ldi	r18, 0x2A	; 42
    580a:	30 e0       	ldi	r19, 0x00	; 0
    580c:	f9 01       	movw	r30, r18
    580e:	20 81       	ld	r18, Z
    5810:	20 68       	ori	r18, 0x80	; 128
    5812:	fc 01       	movw	r30, r24
    5814:	20 83       	st	Z, r18
    5816:	80 e4       	ldi	r24, 0x40	; 64
    5818:	90 e0       	ldi	r25, 0x00	; 0
    581a:	20 e4       	ldi	r18, 0x40	; 64
    581c:	30 e0       	ldi	r19, 0x00	; 0
    581e:	f9 01       	movw	r30, r18
    5820:	20 81       	ld	r18, Z
    5822:	26 68       	ori	r18, 0x86	; 134
    5824:	fc 01       	movw	r30, r24
    5826:	20 83       	st	Z, r18
    5828:	86 e4       	ldi	r24, 0x46	; 70
    582a:	9c e2       	ldi	r25, 0x2C	; 44
    582c:	60 e0       	ldi	r22, 0x00	; 0
    582e:	70 e0       	ldi	r23, 0x00	; 0
    5830:	0e 94 fc 2e 	call	0x5df8	; 0x5df8 <fdevopen>
    5834:	cf 91       	pop	r28
    5836:	df 91       	pop	r29
    5838:	08 95       	ret

0000583a <UART_Transmit>:
    583a:	df 93       	push	r29
    583c:	cf 93       	push	r28
    583e:	0f 92       	push	r0
    5840:	cd b7       	in	r28, 0x3d	; 61
    5842:	de b7       	in	r29, 0x3e	; 62
    5844:	89 83       	std	Y+1, r24	; 0x01
    5846:	00 00       	nop
    5848:	8b e2       	ldi	r24, 0x2B	; 43
    584a:	90 e0       	ldi	r25, 0x00	; 0
    584c:	fc 01       	movw	r30, r24
    584e:	80 81       	ld	r24, Z
    5850:	88 2f       	mov	r24, r24
    5852:	90 e0       	ldi	r25, 0x00	; 0
    5854:	80 72       	andi	r24, 0x20	; 32
    5856:	90 70       	andi	r25, 0x00	; 0
    5858:	00 97       	sbiw	r24, 0x00	; 0
    585a:	b1 f3       	breq	.-20     	; 0x5848 <UART_Transmit+0xe>
    585c:	8c e2       	ldi	r24, 0x2C	; 44
    585e:	90 e0       	ldi	r25, 0x00	; 0
    5860:	29 81       	ldd	r18, Y+1	; 0x01
    5862:	fc 01       	movw	r30, r24
    5864:	20 83       	st	Z, r18
    5866:	0f 90       	pop	r0
    5868:	cf 91       	pop	r28
    586a:	df 91       	pop	r29
    586c:	08 95       	ret

0000586e <UART_Recieve>:
    586e:	df 93       	push	r29
    5870:	cf 93       	push	r28
    5872:	cd b7       	in	r28, 0x3d	; 61
    5874:	de b7       	in	r29, 0x3e	; 62
    5876:	8b e2       	ldi	r24, 0x2B	; 43
    5878:	90 e0       	ldi	r25, 0x00	; 0
    587a:	fc 01       	movw	r30, r24
    587c:	80 81       	ld	r24, Z
    587e:	8c e2       	ldi	r24, 0x2C	; 44
    5880:	90 e0       	ldi	r25, 0x00	; 0
    5882:	fc 01       	movw	r30, r24
    5884:	80 81       	ld	r24, Z
    5886:	cf 91       	pop	r28
    5888:	df 91       	pop	r29
    588a:	08 95       	ret

0000588c <UART_Put_Char>:
    588c:	df 93       	push	r29
    588e:	cf 93       	push	r28
    5890:	00 d0       	rcall	.+0      	; 0x5892 <UART_Put_Char+0x6>
    5892:	0f 92       	push	r0
    5894:	cd b7       	in	r28, 0x3d	; 61
    5896:	de b7       	in	r29, 0x3e	; 62
    5898:	89 83       	std	Y+1, r24	; 0x01
    589a:	7b 83       	std	Y+3, r23	; 0x03
    589c:	6a 83       	std	Y+2, r22	; 0x02
    589e:	00 00       	nop
    58a0:	8b e2       	ldi	r24, 0x2B	; 43
    58a2:	90 e0       	ldi	r25, 0x00	; 0
    58a4:	fc 01       	movw	r30, r24
    58a6:	80 81       	ld	r24, Z
    58a8:	88 2f       	mov	r24, r24
    58aa:	90 e0       	ldi	r25, 0x00	; 0
    58ac:	80 72       	andi	r24, 0x20	; 32
    58ae:	90 70       	andi	r25, 0x00	; 0
    58b0:	00 97       	sbiw	r24, 0x00	; 0
    58b2:	b1 f3       	breq	.-20     	; 0x58a0 <UART_Put_Char+0x14>
    58b4:	8c e2       	ldi	r24, 0x2C	; 44
    58b6:	90 e0       	ldi	r25, 0x00	; 0
    58b8:	29 81       	ldd	r18, Y+1	; 0x01
    58ba:	fc 01       	movw	r30, r24
    58bc:	20 83       	st	Z, r18
    58be:	80 e0       	ldi	r24, 0x00	; 0
    58c0:	90 e0       	ldi	r25, 0x00	; 0
    58c2:	0f 90       	pop	r0
    58c4:	0f 90       	pop	r0
    58c6:	0f 90       	pop	r0
    58c8:	cf 91       	pop	r28
    58ca:	df 91       	pop	r29
    58cc:	08 95       	ret

000058ce <__vector_13>:
    58ce:	1f 92       	push	r1
    58d0:	0f 92       	push	r0
    58d2:	0f b6       	in	r0, 0x3f	; 63
    58d4:	0f 92       	push	r0
    58d6:	11 24       	eor	r1, r1
    58d8:	8f 93       	push	r24
    58da:	9f 93       	push	r25
    58dc:	ef 93       	push	r30
    58de:	ff 93       	push	r31
    58e0:	df 93       	push	r29
    58e2:	cf 93       	push	r28
    58e4:	cd b7       	in	r28, 0x3d	; 61
    58e6:	de b7       	in	r29, 0x3e	; 62
    58e8:	8c e2       	ldi	r24, 0x2C	; 44
    58ea:	90 e0       	ldi	r25, 0x00	; 0
    58ec:	fc 01       	movw	r30, r24
    58ee:	80 81       	ld	r24, Z
    58f0:	80 93 09 01 	sts	0x0109, r24
    58f4:	cf 91       	pop	r28
    58f6:	df 91       	pop	r29
    58f8:	ff 91       	pop	r31
    58fa:	ef 91       	pop	r30
    58fc:	9f 91       	pop	r25
    58fe:	8f 91       	pop	r24
    5900:	0f 90       	pop	r0
    5902:	0f be       	out	0x3f, r0	; 63
    5904:	0f 90       	pop	r0
    5906:	1f 90       	pop	r1
    5908:	18 95       	reti

0000590a <__subsf3>:
    590a:	50 58       	subi	r21, 0x80	; 128

0000590c <__addsf3>:
    590c:	bb 27       	eor	r27, r27
    590e:	aa 27       	eor	r26, r26
    5910:	0e d0       	rcall	.+28     	; 0x592e <__addsf3x>
    5912:	70 c1       	rjmp	.+736    	; 0x5bf4 <__fp_round>
    5914:	61 d1       	rcall	.+706    	; 0x5bd8 <__fp_pscA>
    5916:	30 f0       	brcs	.+12     	; 0x5924 <__addsf3+0x18>
    5918:	66 d1       	rcall	.+716    	; 0x5be6 <__fp_pscB>
    591a:	20 f0       	brcs	.+8      	; 0x5924 <__addsf3+0x18>
    591c:	31 f4       	brne	.+12     	; 0x592a <__addsf3+0x1e>
    591e:	9f 3f       	cpi	r25, 0xFF	; 255
    5920:	11 f4       	brne	.+4      	; 0x5926 <__addsf3+0x1a>
    5922:	1e f4       	brtc	.+6      	; 0x592a <__addsf3+0x1e>
    5924:	56 c1       	rjmp	.+684    	; 0x5bd2 <__fp_nan>
    5926:	0e f4       	brtc	.+2      	; 0x592a <__addsf3+0x1e>
    5928:	e0 95       	com	r30
    592a:	e7 fb       	bst	r30, 7
    592c:	4c c1       	rjmp	.+664    	; 0x5bc6 <__fp_inf>

0000592e <__addsf3x>:
    592e:	e9 2f       	mov	r30, r25
    5930:	72 d1       	rcall	.+740    	; 0x5c16 <__fp_split3>
    5932:	80 f3       	brcs	.-32     	; 0x5914 <__addsf3+0x8>
    5934:	ba 17       	cp	r27, r26
    5936:	62 07       	cpc	r22, r18
    5938:	73 07       	cpc	r23, r19
    593a:	84 07       	cpc	r24, r20
    593c:	95 07       	cpc	r25, r21
    593e:	18 f0       	brcs	.+6      	; 0x5946 <__addsf3x+0x18>
    5940:	71 f4       	brne	.+28     	; 0x595e <__addsf3x+0x30>
    5942:	9e f5       	brtc	.+102    	; 0x59aa <__addsf3x+0x7c>
    5944:	8a c1       	rjmp	.+788    	; 0x5c5a <__fp_zero>
    5946:	0e f4       	brtc	.+2      	; 0x594a <__addsf3x+0x1c>
    5948:	e0 95       	com	r30
    594a:	0b 2e       	mov	r0, r27
    594c:	ba 2f       	mov	r27, r26
    594e:	a0 2d       	mov	r26, r0
    5950:	0b 01       	movw	r0, r22
    5952:	b9 01       	movw	r22, r18
    5954:	90 01       	movw	r18, r0
    5956:	0c 01       	movw	r0, r24
    5958:	ca 01       	movw	r24, r20
    595a:	a0 01       	movw	r20, r0
    595c:	11 24       	eor	r1, r1
    595e:	ff 27       	eor	r31, r31
    5960:	59 1b       	sub	r21, r25
    5962:	99 f0       	breq	.+38     	; 0x598a <__addsf3x+0x5c>
    5964:	59 3f       	cpi	r21, 0xF9	; 249
    5966:	50 f4       	brcc	.+20     	; 0x597c <__addsf3x+0x4e>
    5968:	50 3e       	cpi	r21, 0xE0	; 224
    596a:	68 f1       	brcs	.+90     	; 0x59c6 <__addsf3x+0x98>
    596c:	1a 16       	cp	r1, r26
    596e:	f0 40       	sbci	r31, 0x00	; 0
    5970:	a2 2f       	mov	r26, r18
    5972:	23 2f       	mov	r18, r19
    5974:	34 2f       	mov	r19, r20
    5976:	44 27       	eor	r20, r20
    5978:	58 5f       	subi	r21, 0xF8	; 248
    597a:	f3 cf       	rjmp	.-26     	; 0x5962 <__addsf3x+0x34>
    597c:	46 95       	lsr	r20
    597e:	37 95       	ror	r19
    5980:	27 95       	ror	r18
    5982:	a7 95       	ror	r26
    5984:	f0 40       	sbci	r31, 0x00	; 0
    5986:	53 95       	inc	r21
    5988:	c9 f7       	brne	.-14     	; 0x597c <__addsf3x+0x4e>
    598a:	7e f4       	brtc	.+30     	; 0x59aa <__addsf3x+0x7c>
    598c:	1f 16       	cp	r1, r31
    598e:	ba 0b       	sbc	r27, r26
    5990:	62 0b       	sbc	r22, r18
    5992:	73 0b       	sbc	r23, r19
    5994:	84 0b       	sbc	r24, r20
    5996:	ba f0       	brmi	.+46     	; 0x59c6 <__addsf3x+0x98>
    5998:	91 50       	subi	r25, 0x01	; 1
    599a:	a1 f0       	breq	.+40     	; 0x59c4 <__addsf3x+0x96>
    599c:	ff 0f       	add	r31, r31
    599e:	bb 1f       	adc	r27, r27
    59a0:	66 1f       	adc	r22, r22
    59a2:	77 1f       	adc	r23, r23
    59a4:	88 1f       	adc	r24, r24
    59a6:	c2 f7       	brpl	.-16     	; 0x5998 <__addsf3x+0x6a>
    59a8:	0e c0       	rjmp	.+28     	; 0x59c6 <__addsf3x+0x98>
    59aa:	ba 0f       	add	r27, r26
    59ac:	62 1f       	adc	r22, r18
    59ae:	73 1f       	adc	r23, r19
    59b0:	84 1f       	adc	r24, r20
    59b2:	48 f4       	brcc	.+18     	; 0x59c6 <__addsf3x+0x98>
    59b4:	87 95       	ror	r24
    59b6:	77 95       	ror	r23
    59b8:	67 95       	ror	r22
    59ba:	b7 95       	ror	r27
    59bc:	f7 95       	ror	r31
    59be:	9e 3f       	cpi	r25, 0xFE	; 254
    59c0:	08 f0       	brcs	.+2      	; 0x59c4 <__addsf3x+0x96>
    59c2:	b3 cf       	rjmp	.-154    	; 0x592a <__addsf3+0x1e>
    59c4:	93 95       	inc	r25
    59c6:	88 0f       	add	r24, r24
    59c8:	08 f0       	brcs	.+2      	; 0x59cc <__addsf3x+0x9e>
    59ca:	99 27       	eor	r25, r25
    59cc:	ee 0f       	add	r30, r30
    59ce:	97 95       	ror	r25
    59d0:	87 95       	ror	r24
    59d2:	08 95       	ret

000059d4 <__cmpsf2>:
    59d4:	d4 d0       	rcall	.+424    	; 0x5b7e <__fp_cmp>
    59d6:	08 f4       	brcc	.+2      	; 0x59da <__cmpsf2+0x6>
    59d8:	81 e0       	ldi	r24, 0x01	; 1
    59da:	08 95       	ret

000059dc <__divsf3>:
    59dc:	0c d0       	rcall	.+24     	; 0x59f6 <__divsf3x>
    59de:	0a c1       	rjmp	.+532    	; 0x5bf4 <__fp_round>
    59e0:	02 d1       	rcall	.+516    	; 0x5be6 <__fp_pscB>
    59e2:	40 f0       	brcs	.+16     	; 0x59f4 <__divsf3+0x18>
    59e4:	f9 d0       	rcall	.+498    	; 0x5bd8 <__fp_pscA>
    59e6:	30 f0       	brcs	.+12     	; 0x59f4 <__divsf3+0x18>
    59e8:	21 f4       	brne	.+8      	; 0x59f2 <__divsf3+0x16>
    59ea:	5f 3f       	cpi	r21, 0xFF	; 255
    59ec:	19 f0       	breq	.+6      	; 0x59f4 <__divsf3+0x18>
    59ee:	eb c0       	rjmp	.+470    	; 0x5bc6 <__fp_inf>
    59f0:	51 11       	cpse	r21, r1
    59f2:	34 c1       	rjmp	.+616    	; 0x5c5c <__fp_szero>
    59f4:	ee c0       	rjmp	.+476    	; 0x5bd2 <__fp_nan>

000059f6 <__divsf3x>:
    59f6:	0f d1       	rcall	.+542    	; 0x5c16 <__fp_split3>
    59f8:	98 f3       	brcs	.-26     	; 0x59e0 <__divsf3+0x4>

000059fa <__divsf3_pse>:
    59fa:	99 23       	and	r25, r25
    59fc:	c9 f3       	breq	.-14     	; 0x59f0 <__divsf3+0x14>
    59fe:	55 23       	and	r21, r21
    5a00:	b1 f3       	breq	.-20     	; 0x59ee <__divsf3+0x12>
    5a02:	95 1b       	sub	r25, r21
    5a04:	55 0b       	sbc	r21, r21
    5a06:	bb 27       	eor	r27, r27
    5a08:	aa 27       	eor	r26, r26
    5a0a:	62 17       	cp	r22, r18
    5a0c:	73 07       	cpc	r23, r19
    5a0e:	84 07       	cpc	r24, r20
    5a10:	38 f0       	brcs	.+14     	; 0x5a20 <__divsf3_pse+0x26>
    5a12:	9f 5f       	subi	r25, 0xFF	; 255
    5a14:	5f 4f       	sbci	r21, 0xFF	; 255
    5a16:	22 0f       	add	r18, r18
    5a18:	33 1f       	adc	r19, r19
    5a1a:	44 1f       	adc	r20, r20
    5a1c:	aa 1f       	adc	r26, r26
    5a1e:	a9 f3       	breq	.-22     	; 0x5a0a <__divsf3_pse+0x10>
    5a20:	33 d0       	rcall	.+102    	; 0x5a88 <__divsf3_pse+0x8e>
    5a22:	0e 2e       	mov	r0, r30
    5a24:	3a f0       	brmi	.+14     	; 0x5a34 <__divsf3_pse+0x3a>
    5a26:	e0 e8       	ldi	r30, 0x80	; 128
    5a28:	30 d0       	rcall	.+96     	; 0x5a8a <__divsf3_pse+0x90>
    5a2a:	91 50       	subi	r25, 0x01	; 1
    5a2c:	50 40       	sbci	r21, 0x00	; 0
    5a2e:	e6 95       	lsr	r30
    5a30:	00 1c       	adc	r0, r0
    5a32:	ca f7       	brpl	.-14     	; 0x5a26 <__divsf3_pse+0x2c>
    5a34:	29 d0       	rcall	.+82     	; 0x5a88 <__divsf3_pse+0x8e>
    5a36:	fe 2f       	mov	r31, r30
    5a38:	27 d0       	rcall	.+78     	; 0x5a88 <__divsf3_pse+0x8e>
    5a3a:	66 0f       	add	r22, r22
    5a3c:	77 1f       	adc	r23, r23
    5a3e:	88 1f       	adc	r24, r24
    5a40:	bb 1f       	adc	r27, r27
    5a42:	26 17       	cp	r18, r22
    5a44:	37 07       	cpc	r19, r23
    5a46:	48 07       	cpc	r20, r24
    5a48:	ab 07       	cpc	r26, r27
    5a4a:	b0 e8       	ldi	r27, 0x80	; 128
    5a4c:	09 f0       	breq	.+2      	; 0x5a50 <__divsf3_pse+0x56>
    5a4e:	bb 0b       	sbc	r27, r27
    5a50:	80 2d       	mov	r24, r0
    5a52:	bf 01       	movw	r22, r30
    5a54:	ff 27       	eor	r31, r31
    5a56:	93 58       	subi	r25, 0x83	; 131
    5a58:	5f 4f       	sbci	r21, 0xFF	; 255
    5a5a:	2a f0       	brmi	.+10     	; 0x5a66 <__divsf3_pse+0x6c>
    5a5c:	9e 3f       	cpi	r25, 0xFE	; 254
    5a5e:	51 05       	cpc	r21, r1
    5a60:	68 f0       	brcs	.+26     	; 0x5a7c <__divsf3_pse+0x82>
    5a62:	b1 c0       	rjmp	.+354    	; 0x5bc6 <__fp_inf>
    5a64:	fb c0       	rjmp	.+502    	; 0x5c5c <__fp_szero>
    5a66:	5f 3f       	cpi	r21, 0xFF	; 255
    5a68:	ec f3       	brlt	.-6      	; 0x5a64 <__divsf3_pse+0x6a>
    5a6a:	98 3e       	cpi	r25, 0xE8	; 232
    5a6c:	dc f3       	brlt	.-10     	; 0x5a64 <__divsf3_pse+0x6a>
    5a6e:	86 95       	lsr	r24
    5a70:	77 95       	ror	r23
    5a72:	67 95       	ror	r22
    5a74:	b7 95       	ror	r27
    5a76:	f7 95       	ror	r31
    5a78:	9f 5f       	subi	r25, 0xFF	; 255
    5a7a:	c9 f7       	brne	.-14     	; 0x5a6e <__divsf3_pse+0x74>
    5a7c:	88 0f       	add	r24, r24
    5a7e:	91 1d       	adc	r25, r1
    5a80:	96 95       	lsr	r25
    5a82:	87 95       	ror	r24
    5a84:	97 f9       	bld	r25, 7
    5a86:	08 95       	ret
    5a88:	e1 e0       	ldi	r30, 0x01	; 1
    5a8a:	66 0f       	add	r22, r22
    5a8c:	77 1f       	adc	r23, r23
    5a8e:	88 1f       	adc	r24, r24
    5a90:	bb 1f       	adc	r27, r27
    5a92:	62 17       	cp	r22, r18
    5a94:	73 07       	cpc	r23, r19
    5a96:	84 07       	cpc	r24, r20
    5a98:	ba 07       	cpc	r27, r26
    5a9a:	20 f0       	brcs	.+8      	; 0x5aa4 <__divsf3_pse+0xaa>
    5a9c:	62 1b       	sub	r22, r18
    5a9e:	73 0b       	sbc	r23, r19
    5aa0:	84 0b       	sbc	r24, r20
    5aa2:	ba 0b       	sbc	r27, r26
    5aa4:	ee 1f       	adc	r30, r30
    5aa6:	88 f7       	brcc	.-30     	; 0x5a8a <__divsf3_pse+0x90>
    5aa8:	e0 95       	com	r30
    5aaa:	08 95       	ret

00005aac <__fixunssfsi>:
    5aac:	bc d0       	rcall	.+376    	; 0x5c26 <__fp_splitA>
    5aae:	88 f0       	brcs	.+34     	; 0x5ad2 <__fixunssfsi+0x26>
    5ab0:	9f 57       	subi	r25, 0x7F	; 127
    5ab2:	90 f0       	brcs	.+36     	; 0x5ad8 <__fixunssfsi+0x2c>
    5ab4:	b9 2f       	mov	r27, r25
    5ab6:	99 27       	eor	r25, r25
    5ab8:	b7 51       	subi	r27, 0x17	; 23
    5aba:	a0 f0       	brcs	.+40     	; 0x5ae4 <__fixunssfsi+0x38>
    5abc:	d1 f0       	breq	.+52     	; 0x5af2 <__fixunssfsi+0x46>
    5abe:	66 0f       	add	r22, r22
    5ac0:	77 1f       	adc	r23, r23
    5ac2:	88 1f       	adc	r24, r24
    5ac4:	99 1f       	adc	r25, r25
    5ac6:	1a f0       	brmi	.+6      	; 0x5ace <__fixunssfsi+0x22>
    5ac8:	ba 95       	dec	r27
    5aca:	c9 f7       	brne	.-14     	; 0x5abe <__fixunssfsi+0x12>
    5acc:	12 c0       	rjmp	.+36     	; 0x5af2 <__fixunssfsi+0x46>
    5ace:	b1 30       	cpi	r27, 0x01	; 1
    5ad0:	81 f0       	breq	.+32     	; 0x5af2 <__fixunssfsi+0x46>
    5ad2:	c3 d0       	rcall	.+390    	; 0x5c5a <__fp_zero>
    5ad4:	b1 e0       	ldi	r27, 0x01	; 1
    5ad6:	08 95       	ret
    5ad8:	c0 c0       	rjmp	.+384    	; 0x5c5a <__fp_zero>
    5ada:	67 2f       	mov	r22, r23
    5adc:	78 2f       	mov	r23, r24
    5ade:	88 27       	eor	r24, r24
    5ae0:	b8 5f       	subi	r27, 0xF8	; 248
    5ae2:	39 f0       	breq	.+14     	; 0x5af2 <__fixunssfsi+0x46>
    5ae4:	b9 3f       	cpi	r27, 0xF9	; 249
    5ae6:	cc f3       	brlt	.-14     	; 0x5ada <__fixunssfsi+0x2e>
    5ae8:	86 95       	lsr	r24
    5aea:	77 95       	ror	r23
    5aec:	67 95       	ror	r22
    5aee:	b3 95       	inc	r27
    5af0:	d9 f7       	brne	.-10     	; 0x5ae8 <__fixunssfsi+0x3c>
    5af2:	3e f4       	brtc	.+14     	; 0x5b02 <__fixunssfsi+0x56>
    5af4:	90 95       	com	r25
    5af6:	80 95       	com	r24
    5af8:	70 95       	com	r23
    5afa:	61 95       	neg	r22
    5afc:	7f 4f       	sbci	r23, 0xFF	; 255
    5afe:	8f 4f       	sbci	r24, 0xFF	; 255
    5b00:	9f 4f       	sbci	r25, 0xFF	; 255
    5b02:	08 95       	ret

00005b04 <__floatunsisf>:
    5b04:	e8 94       	clt
    5b06:	09 c0       	rjmp	.+18     	; 0x5b1a <__floatsisf+0x12>

00005b08 <__floatsisf>:
    5b08:	97 fb       	bst	r25, 7
    5b0a:	3e f4       	brtc	.+14     	; 0x5b1a <__floatsisf+0x12>
    5b0c:	90 95       	com	r25
    5b0e:	80 95       	com	r24
    5b10:	70 95       	com	r23
    5b12:	61 95       	neg	r22
    5b14:	7f 4f       	sbci	r23, 0xFF	; 255
    5b16:	8f 4f       	sbci	r24, 0xFF	; 255
    5b18:	9f 4f       	sbci	r25, 0xFF	; 255
    5b1a:	99 23       	and	r25, r25
    5b1c:	a9 f0       	breq	.+42     	; 0x5b48 <__floatsisf+0x40>
    5b1e:	f9 2f       	mov	r31, r25
    5b20:	96 e9       	ldi	r25, 0x96	; 150
    5b22:	bb 27       	eor	r27, r27
    5b24:	93 95       	inc	r25
    5b26:	f6 95       	lsr	r31
    5b28:	87 95       	ror	r24
    5b2a:	77 95       	ror	r23
    5b2c:	67 95       	ror	r22
    5b2e:	b7 95       	ror	r27
    5b30:	f1 11       	cpse	r31, r1
    5b32:	f8 cf       	rjmp	.-16     	; 0x5b24 <__floatsisf+0x1c>
    5b34:	fa f4       	brpl	.+62     	; 0x5b74 <__floatsisf+0x6c>
    5b36:	bb 0f       	add	r27, r27
    5b38:	11 f4       	brne	.+4      	; 0x5b3e <__floatsisf+0x36>
    5b3a:	60 ff       	sbrs	r22, 0
    5b3c:	1b c0       	rjmp	.+54     	; 0x5b74 <__floatsisf+0x6c>
    5b3e:	6f 5f       	subi	r22, 0xFF	; 255
    5b40:	7f 4f       	sbci	r23, 0xFF	; 255
    5b42:	8f 4f       	sbci	r24, 0xFF	; 255
    5b44:	9f 4f       	sbci	r25, 0xFF	; 255
    5b46:	16 c0       	rjmp	.+44     	; 0x5b74 <__floatsisf+0x6c>
    5b48:	88 23       	and	r24, r24
    5b4a:	11 f0       	breq	.+4      	; 0x5b50 <__floatsisf+0x48>
    5b4c:	96 e9       	ldi	r25, 0x96	; 150
    5b4e:	11 c0       	rjmp	.+34     	; 0x5b72 <__floatsisf+0x6a>
    5b50:	77 23       	and	r23, r23
    5b52:	21 f0       	breq	.+8      	; 0x5b5c <__floatsisf+0x54>
    5b54:	9e e8       	ldi	r25, 0x8E	; 142
    5b56:	87 2f       	mov	r24, r23
    5b58:	76 2f       	mov	r23, r22
    5b5a:	05 c0       	rjmp	.+10     	; 0x5b66 <__floatsisf+0x5e>
    5b5c:	66 23       	and	r22, r22
    5b5e:	71 f0       	breq	.+28     	; 0x5b7c <__floatsisf+0x74>
    5b60:	96 e8       	ldi	r25, 0x86	; 134
    5b62:	86 2f       	mov	r24, r22
    5b64:	70 e0       	ldi	r23, 0x00	; 0
    5b66:	60 e0       	ldi	r22, 0x00	; 0
    5b68:	2a f0       	brmi	.+10     	; 0x5b74 <__floatsisf+0x6c>
    5b6a:	9a 95       	dec	r25
    5b6c:	66 0f       	add	r22, r22
    5b6e:	77 1f       	adc	r23, r23
    5b70:	88 1f       	adc	r24, r24
    5b72:	da f7       	brpl	.-10     	; 0x5b6a <__floatsisf+0x62>
    5b74:	88 0f       	add	r24, r24
    5b76:	96 95       	lsr	r25
    5b78:	87 95       	ror	r24
    5b7a:	97 f9       	bld	r25, 7
    5b7c:	08 95       	ret

00005b7e <__fp_cmp>:
    5b7e:	99 0f       	add	r25, r25
    5b80:	00 08       	sbc	r0, r0
    5b82:	55 0f       	add	r21, r21
    5b84:	aa 0b       	sbc	r26, r26
    5b86:	e0 e8       	ldi	r30, 0x80	; 128
    5b88:	fe ef       	ldi	r31, 0xFE	; 254
    5b8a:	16 16       	cp	r1, r22
    5b8c:	17 06       	cpc	r1, r23
    5b8e:	e8 07       	cpc	r30, r24
    5b90:	f9 07       	cpc	r31, r25
    5b92:	c0 f0       	brcs	.+48     	; 0x5bc4 <__fp_cmp+0x46>
    5b94:	12 16       	cp	r1, r18
    5b96:	13 06       	cpc	r1, r19
    5b98:	e4 07       	cpc	r30, r20
    5b9a:	f5 07       	cpc	r31, r21
    5b9c:	98 f0       	brcs	.+38     	; 0x5bc4 <__fp_cmp+0x46>
    5b9e:	62 1b       	sub	r22, r18
    5ba0:	73 0b       	sbc	r23, r19
    5ba2:	84 0b       	sbc	r24, r20
    5ba4:	95 0b       	sbc	r25, r21
    5ba6:	39 f4       	brne	.+14     	; 0x5bb6 <__fp_cmp+0x38>
    5ba8:	0a 26       	eor	r0, r26
    5baa:	61 f0       	breq	.+24     	; 0x5bc4 <__fp_cmp+0x46>
    5bac:	23 2b       	or	r18, r19
    5bae:	24 2b       	or	r18, r20
    5bb0:	25 2b       	or	r18, r21
    5bb2:	21 f4       	brne	.+8      	; 0x5bbc <__fp_cmp+0x3e>
    5bb4:	08 95       	ret
    5bb6:	0a 26       	eor	r0, r26
    5bb8:	09 f4       	brne	.+2      	; 0x5bbc <__fp_cmp+0x3e>
    5bba:	a1 40       	sbci	r26, 0x01	; 1
    5bbc:	a6 95       	lsr	r26
    5bbe:	8f ef       	ldi	r24, 0xFF	; 255
    5bc0:	81 1d       	adc	r24, r1
    5bc2:	81 1d       	adc	r24, r1
    5bc4:	08 95       	ret

00005bc6 <__fp_inf>:
    5bc6:	97 f9       	bld	r25, 7
    5bc8:	9f 67       	ori	r25, 0x7F	; 127
    5bca:	80 e8       	ldi	r24, 0x80	; 128
    5bcc:	70 e0       	ldi	r23, 0x00	; 0
    5bce:	60 e0       	ldi	r22, 0x00	; 0
    5bd0:	08 95       	ret

00005bd2 <__fp_nan>:
    5bd2:	9f ef       	ldi	r25, 0xFF	; 255
    5bd4:	80 ec       	ldi	r24, 0xC0	; 192
    5bd6:	08 95       	ret

00005bd8 <__fp_pscA>:
    5bd8:	00 24       	eor	r0, r0
    5bda:	0a 94       	dec	r0
    5bdc:	16 16       	cp	r1, r22
    5bde:	17 06       	cpc	r1, r23
    5be0:	18 06       	cpc	r1, r24
    5be2:	09 06       	cpc	r0, r25
    5be4:	08 95       	ret

00005be6 <__fp_pscB>:
    5be6:	00 24       	eor	r0, r0
    5be8:	0a 94       	dec	r0
    5bea:	12 16       	cp	r1, r18
    5bec:	13 06       	cpc	r1, r19
    5bee:	14 06       	cpc	r1, r20
    5bf0:	05 06       	cpc	r0, r21
    5bf2:	08 95       	ret

00005bf4 <__fp_round>:
    5bf4:	09 2e       	mov	r0, r25
    5bf6:	03 94       	inc	r0
    5bf8:	00 0c       	add	r0, r0
    5bfa:	11 f4       	brne	.+4      	; 0x5c00 <__fp_round+0xc>
    5bfc:	88 23       	and	r24, r24
    5bfe:	52 f0       	brmi	.+20     	; 0x5c14 <__fp_round+0x20>
    5c00:	bb 0f       	add	r27, r27
    5c02:	40 f4       	brcc	.+16     	; 0x5c14 <__fp_round+0x20>
    5c04:	bf 2b       	or	r27, r31
    5c06:	11 f4       	brne	.+4      	; 0x5c0c <__fp_round+0x18>
    5c08:	60 ff       	sbrs	r22, 0
    5c0a:	04 c0       	rjmp	.+8      	; 0x5c14 <__fp_round+0x20>
    5c0c:	6f 5f       	subi	r22, 0xFF	; 255
    5c0e:	7f 4f       	sbci	r23, 0xFF	; 255
    5c10:	8f 4f       	sbci	r24, 0xFF	; 255
    5c12:	9f 4f       	sbci	r25, 0xFF	; 255
    5c14:	08 95       	ret

00005c16 <__fp_split3>:
    5c16:	57 fd       	sbrc	r21, 7
    5c18:	90 58       	subi	r25, 0x80	; 128
    5c1a:	44 0f       	add	r20, r20
    5c1c:	55 1f       	adc	r21, r21
    5c1e:	59 f0       	breq	.+22     	; 0x5c36 <__fp_splitA+0x10>
    5c20:	5f 3f       	cpi	r21, 0xFF	; 255
    5c22:	71 f0       	breq	.+28     	; 0x5c40 <__fp_splitA+0x1a>
    5c24:	47 95       	ror	r20

00005c26 <__fp_splitA>:
    5c26:	88 0f       	add	r24, r24
    5c28:	97 fb       	bst	r25, 7
    5c2a:	99 1f       	adc	r25, r25
    5c2c:	61 f0       	breq	.+24     	; 0x5c46 <__fp_splitA+0x20>
    5c2e:	9f 3f       	cpi	r25, 0xFF	; 255
    5c30:	79 f0       	breq	.+30     	; 0x5c50 <__fp_splitA+0x2a>
    5c32:	87 95       	ror	r24
    5c34:	08 95       	ret
    5c36:	12 16       	cp	r1, r18
    5c38:	13 06       	cpc	r1, r19
    5c3a:	14 06       	cpc	r1, r20
    5c3c:	55 1f       	adc	r21, r21
    5c3e:	f2 cf       	rjmp	.-28     	; 0x5c24 <__fp_split3+0xe>
    5c40:	46 95       	lsr	r20
    5c42:	f1 df       	rcall	.-30     	; 0x5c26 <__fp_splitA>
    5c44:	08 c0       	rjmp	.+16     	; 0x5c56 <__fp_splitA+0x30>
    5c46:	16 16       	cp	r1, r22
    5c48:	17 06       	cpc	r1, r23
    5c4a:	18 06       	cpc	r1, r24
    5c4c:	99 1f       	adc	r25, r25
    5c4e:	f1 cf       	rjmp	.-30     	; 0x5c32 <__fp_splitA+0xc>
    5c50:	86 95       	lsr	r24
    5c52:	71 05       	cpc	r23, r1
    5c54:	61 05       	cpc	r22, r1
    5c56:	08 94       	sec
    5c58:	08 95       	ret

00005c5a <__fp_zero>:
    5c5a:	e8 94       	clt

00005c5c <__fp_szero>:
    5c5c:	bb 27       	eor	r27, r27
    5c5e:	66 27       	eor	r22, r22
    5c60:	77 27       	eor	r23, r23
    5c62:	cb 01       	movw	r24, r22
    5c64:	97 f9       	bld	r25, 7
    5c66:	08 95       	ret

00005c68 <__gesf2>:
    5c68:	8a df       	rcall	.-236    	; 0x5b7e <__fp_cmp>
    5c6a:	08 f4       	brcc	.+2      	; 0x5c6e <__gesf2+0x6>
    5c6c:	8f ef       	ldi	r24, 0xFF	; 255
    5c6e:	08 95       	ret

00005c70 <__mulsf3>:
    5c70:	0b d0       	rcall	.+22     	; 0x5c88 <__mulsf3x>
    5c72:	c0 cf       	rjmp	.-128    	; 0x5bf4 <__fp_round>
    5c74:	b1 df       	rcall	.-158    	; 0x5bd8 <__fp_pscA>
    5c76:	28 f0       	brcs	.+10     	; 0x5c82 <__mulsf3+0x12>
    5c78:	b6 df       	rcall	.-148    	; 0x5be6 <__fp_pscB>
    5c7a:	18 f0       	brcs	.+6      	; 0x5c82 <__mulsf3+0x12>
    5c7c:	95 23       	and	r25, r21
    5c7e:	09 f0       	breq	.+2      	; 0x5c82 <__mulsf3+0x12>
    5c80:	a2 cf       	rjmp	.-188    	; 0x5bc6 <__fp_inf>
    5c82:	a7 cf       	rjmp	.-178    	; 0x5bd2 <__fp_nan>
    5c84:	11 24       	eor	r1, r1
    5c86:	ea cf       	rjmp	.-44     	; 0x5c5c <__fp_szero>

00005c88 <__mulsf3x>:
    5c88:	c6 df       	rcall	.-116    	; 0x5c16 <__fp_split3>
    5c8a:	a0 f3       	brcs	.-24     	; 0x5c74 <__mulsf3+0x4>

00005c8c <__mulsf3_pse>:
    5c8c:	95 9f       	mul	r25, r21
    5c8e:	d1 f3       	breq	.-12     	; 0x5c84 <__mulsf3+0x14>
    5c90:	95 0f       	add	r25, r21
    5c92:	50 e0       	ldi	r21, 0x00	; 0
    5c94:	55 1f       	adc	r21, r21
    5c96:	62 9f       	mul	r22, r18
    5c98:	f0 01       	movw	r30, r0
    5c9a:	72 9f       	mul	r23, r18
    5c9c:	bb 27       	eor	r27, r27
    5c9e:	f0 0d       	add	r31, r0
    5ca0:	b1 1d       	adc	r27, r1
    5ca2:	63 9f       	mul	r22, r19
    5ca4:	aa 27       	eor	r26, r26
    5ca6:	f0 0d       	add	r31, r0
    5ca8:	b1 1d       	adc	r27, r1
    5caa:	aa 1f       	adc	r26, r26
    5cac:	64 9f       	mul	r22, r20
    5cae:	66 27       	eor	r22, r22
    5cb0:	b0 0d       	add	r27, r0
    5cb2:	a1 1d       	adc	r26, r1
    5cb4:	66 1f       	adc	r22, r22
    5cb6:	82 9f       	mul	r24, r18
    5cb8:	22 27       	eor	r18, r18
    5cba:	b0 0d       	add	r27, r0
    5cbc:	a1 1d       	adc	r26, r1
    5cbe:	62 1f       	adc	r22, r18
    5cc0:	73 9f       	mul	r23, r19
    5cc2:	b0 0d       	add	r27, r0
    5cc4:	a1 1d       	adc	r26, r1
    5cc6:	62 1f       	adc	r22, r18
    5cc8:	83 9f       	mul	r24, r19
    5cca:	a0 0d       	add	r26, r0
    5ccc:	61 1d       	adc	r22, r1
    5cce:	22 1f       	adc	r18, r18
    5cd0:	74 9f       	mul	r23, r20
    5cd2:	33 27       	eor	r19, r19
    5cd4:	a0 0d       	add	r26, r0
    5cd6:	61 1d       	adc	r22, r1
    5cd8:	23 1f       	adc	r18, r19
    5cda:	84 9f       	mul	r24, r20
    5cdc:	60 0d       	add	r22, r0
    5cde:	21 1d       	adc	r18, r1
    5ce0:	82 2f       	mov	r24, r18
    5ce2:	76 2f       	mov	r23, r22
    5ce4:	6a 2f       	mov	r22, r26
    5ce6:	11 24       	eor	r1, r1
    5ce8:	9f 57       	subi	r25, 0x7F	; 127
    5cea:	50 40       	sbci	r21, 0x00	; 0
    5cec:	8a f0       	brmi	.+34     	; 0x5d10 <__mulsf3_pse+0x84>
    5cee:	e1 f0       	breq	.+56     	; 0x5d28 <__mulsf3_pse+0x9c>
    5cf0:	88 23       	and	r24, r24
    5cf2:	4a f0       	brmi	.+18     	; 0x5d06 <__mulsf3_pse+0x7a>
    5cf4:	ee 0f       	add	r30, r30
    5cf6:	ff 1f       	adc	r31, r31
    5cf8:	bb 1f       	adc	r27, r27
    5cfa:	66 1f       	adc	r22, r22
    5cfc:	77 1f       	adc	r23, r23
    5cfe:	88 1f       	adc	r24, r24
    5d00:	91 50       	subi	r25, 0x01	; 1
    5d02:	50 40       	sbci	r21, 0x00	; 0
    5d04:	a9 f7       	brne	.-22     	; 0x5cf0 <__mulsf3_pse+0x64>
    5d06:	9e 3f       	cpi	r25, 0xFE	; 254
    5d08:	51 05       	cpc	r21, r1
    5d0a:	70 f0       	brcs	.+28     	; 0x5d28 <__mulsf3_pse+0x9c>
    5d0c:	5c cf       	rjmp	.-328    	; 0x5bc6 <__fp_inf>
    5d0e:	a6 cf       	rjmp	.-180    	; 0x5c5c <__fp_szero>
    5d10:	5f 3f       	cpi	r21, 0xFF	; 255
    5d12:	ec f3       	brlt	.-6      	; 0x5d0e <__mulsf3_pse+0x82>
    5d14:	98 3e       	cpi	r25, 0xE8	; 232
    5d16:	dc f3       	brlt	.-10     	; 0x5d0e <__mulsf3_pse+0x82>
    5d18:	86 95       	lsr	r24
    5d1a:	77 95       	ror	r23
    5d1c:	67 95       	ror	r22
    5d1e:	b7 95       	ror	r27
    5d20:	f7 95       	ror	r31
    5d22:	e7 95       	ror	r30
    5d24:	9f 5f       	subi	r25, 0xFF	; 255
    5d26:	c1 f7       	brne	.-16     	; 0x5d18 <__mulsf3_pse+0x8c>
    5d28:	fe 2b       	or	r31, r30
    5d2a:	88 0f       	add	r24, r24
    5d2c:	91 1d       	adc	r25, r1
    5d2e:	96 95       	lsr	r25
    5d30:	87 95       	ror	r24
    5d32:	97 f9       	bld	r25, 7
    5d34:	08 95       	ret

00005d36 <__mulsi3>:
    5d36:	62 9f       	mul	r22, r18
    5d38:	d0 01       	movw	r26, r0
    5d3a:	73 9f       	mul	r23, r19
    5d3c:	f0 01       	movw	r30, r0
    5d3e:	82 9f       	mul	r24, r18
    5d40:	e0 0d       	add	r30, r0
    5d42:	f1 1d       	adc	r31, r1
    5d44:	64 9f       	mul	r22, r20
    5d46:	e0 0d       	add	r30, r0
    5d48:	f1 1d       	adc	r31, r1
    5d4a:	92 9f       	mul	r25, r18
    5d4c:	f0 0d       	add	r31, r0
    5d4e:	83 9f       	mul	r24, r19
    5d50:	f0 0d       	add	r31, r0
    5d52:	74 9f       	mul	r23, r20
    5d54:	f0 0d       	add	r31, r0
    5d56:	65 9f       	mul	r22, r21
    5d58:	f0 0d       	add	r31, r0
    5d5a:	99 27       	eor	r25, r25
    5d5c:	72 9f       	mul	r23, r18
    5d5e:	b0 0d       	add	r27, r0
    5d60:	e1 1d       	adc	r30, r1
    5d62:	f9 1f       	adc	r31, r25
    5d64:	63 9f       	mul	r22, r19
    5d66:	b0 0d       	add	r27, r0
    5d68:	e1 1d       	adc	r30, r1
    5d6a:	f9 1f       	adc	r31, r25
    5d6c:	bd 01       	movw	r22, r26
    5d6e:	cf 01       	movw	r24, r30
    5d70:	11 24       	eor	r1, r1
    5d72:	08 95       	ret

00005d74 <__udivmodqi4>:
    5d74:	99 1b       	sub	r25, r25
    5d76:	79 e0       	ldi	r23, 0x09	; 9
    5d78:	04 c0       	rjmp	.+8      	; 0x5d82 <__udivmodqi4_ep>

00005d7a <__udivmodqi4_loop>:
    5d7a:	99 1f       	adc	r25, r25
    5d7c:	96 17       	cp	r25, r22
    5d7e:	08 f0       	brcs	.+2      	; 0x5d82 <__udivmodqi4_ep>
    5d80:	96 1b       	sub	r25, r22

00005d82 <__udivmodqi4_ep>:
    5d82:	88 1f       	adc	r24, r24
    5d84:	7a 95       	dec	r23
    5d86:	c9 f7       	brne	.-14     	; 0x5d7a <__udivmodqi4_loop>
    5d88:	80 95       	com	r24
    5d8a:	08 95       	ret

00005d8c <__udivmodhi4>:
    5d8c:	aa 1b       	sub	r26, r26
    5d8e:	bb 1b       	sub	r27, r27
    5d90:	51 e1       	ldi	r21, 0x11	; 17
    5d92:	07 c0       	rjmp	.+14     	; 0x5da2 <__udivmodhi4_ep>

00005d94 <__udivmodhi4_loop>:
    5d94:	aa 1f       	adc	r26, r26
    5d96:	bb 1f       	adc	r27, r27
    5d98:	a6 17       	cp	r26, r22
    5d9a:	b7 07       	cpc	r27, r23
    5d9c:	10 f0       	brcs	.+4      	; 0x5da2 <__udivmodhi4_ep>
    5d9e:	a6 1b       	sub	r26, r22
    5da0:	b7 0b       	sbc	r27, r23

00005da2 <__udivmodhi4_ep>:
    5da2:	88 1f       	adc	r24, r24
    5da4:	99 1f       	adc	r25, r25
    5da6:	5a 95       	dec	r21
    5da8:	a9 f7       	brne	.-22     	; 0x5d94 <__udivmodhi4_loop>
    5daa:	80 95       	com	r24
    5dac:	90 95       	com	r25
    5dae:	bc 01       	movw	r22, r24
    5db0:	cd 01       	movw	r24, r26
    5db2:	08 95       	ret

00005db4 <__udivmodsi4>:
    5db4:	a1 e2       	ldi	r26, 0x21	; 33
    5db6:	1a 2e       	mov	r1, r26
    5db8:	aa 1b       	sub	r26, r26
    5dba:	bb 1b       	sub	r27, r27
    5dbc:	fd 01       	movw	r30, r26
    5dbe:	0d c0       	rjmp	.+26     	; 0x5dda <__udivmodsi4_ep>

00005dc0 <__udivmodsi4_loop>:
    5dc0:	aa 1f       	adc	r26, r26
    5dc2:	bb 1f       	adc	r27, r27
    5dc4:	ee 1f       	adc	r30, r30
    5dc6:	ff 1f       	adc	r31, r31
    5dc8:	a2 17       	cp	r26, r18
    5dca:	b3 07       	cpc	r27, r19
    5dcc:	e4 07       	cpc	r30, r20
    5dce:	f5 07       	cpc	r31, r21
    5dd0:	20 f0       	brcs	.+8      	; 0x5dda <__udivmodsi4_ep>
    5dd2:	a2 1b       	sub	r26, r18
    5dd4:	b3 0b       	sbc	r27, r19
    5dd6:	e4 0b       	sbc	r30, r20
    5dd8:	f5 0b       	sbc	r31, r21

00005dda <__udivmodsi4_ep>:
    5dda:	66 1f       	adc	r22, r22
    5ddc:	77 1f       	adc	r23, r23
    5dde:	88 1f       	adc	r24, r24
    5de0:	99 1f       	adc	r25, r25
    5de2:	1a 94       	dec	r1
    5de4:	69 f7       	brne	.-38     	; 0x5dc0 <__udivmodsi4_loop>
    5de6:	60 95       	com	r22
    5de8:	70 95       	com	r23
    5dea:	80 95       	com	r24
    5dec:	90 95       	com	r25
    5dee:	9b 01       	movw	r18, r22
    5df0:	ac 01       	movw	r20, r24
    5df2:	bd 01       	movw	r22, r26
    5df4:	cf 01       	movw	r24, r30
    5df6:	08 95       	ret

00005df8 <fdevopen>:
    5df8:	0f 93       	push	r16
    5dfa:	1f 93       	push	r17
    5dfc:	cf 93       	push	r28
    5dfe:	df 93       	push	r29
    5e00:	8c 01       	movw	r16, r24
    5e02:	eb 01       	movw	r28, r22
    5e04:	00 97       	sbiw	r24, 0x00	; 0
    5e06:	11 f4       	brne	.+4      	; 0x5e0c <fdevopen+0x14>
    5e08:	20 97       	sbiw	r28, 0x00	; 0
    5e0a:	c9 f1       	breq	.+114    	; 0x5e7e <fdevopen+0x86>
    5e0c:	81 e0       	ldi	r24, 0x01	; 1
    5e0e:	90 e0       	ldi	r25, 0x00	; 0
    5e10:	6e e0       	ldi	r22, 0x0E	; 14
    5e12:	70 e0       	ldi	r23, 0x00	; 0
    5e14:	0e 94 a2 31 	call	0x6344	; 0x6344 <calloc>
    5e18:	fc 01       	movw	r30, r24
    5e1a:	9c 01       	movw	r18, r24
    5e1c:	00 97       	sbiw	r24, 0x00	; 0
    5e1e:	89 f1       	breq	.+98     	; 0x5e82 <fdevopen+0x8a>
    5e20:	80 e8       	ldi	r24, 0x80	; 128
    5e22:	83 83       	std	Z+3, r24	; 0x03
    5e24:	20 97       	sbiw	r28, 0x00	; 0
    5e26:	71 f0       	breq	.+28     	; 0x5e44 <fdevopen+0x4c>
    5e28:	d3 87       	std	Z+11, r29	; 0x0b
    5e2a:	c2 87       	std	Z+10, r28	; 0x0a
    5e2c:	81 e8       	ldi	r24, 0x81	; 129
    5e2e:	83 83       	std	Z+3, r24	; 0x03
    5e30:	80 91 b9 03 	lds	r24, 0x03B9
    5e34:	90 91 ba 03 	lds	r25, 0x03BA
    5e38:	00 97       	sbiw	r24, 0x00	; 0
    5e3a:	21 f4       	brne	.+8      	; 0x5e44 <fdevopen+0x4c>
    5e3c:	f0 93 ba 03 	sts	0x03BA, r31
    5e40:	e0 93 b9 03 	sts	0x03B9, r30
    5e44:	01 15       	cp	r16, r1
    5e46:	11 05       	cpc	r17, r1
    5e48:	e1 f0       	breq	.+56     	; 0x5e82 <fdevopen+0x8a>
    5e4a:	11 87       	std	Z+9, r17	; 0x09
    5e4c:	00 87       	std	Z+8, r16	; 0x08
    5e4e:	83 81       	ldd	r24, Z+3	; 0x03
    5e50:	82 60       	ori	r24, 0x02	; 2
    5e52:	83 83       	std	Z+3, r24	; 0x03
    5e54:	80 91 bb 03 	lds	r24, 0x03BB
    5e58:	90 91 bc 03 	lds	r25, 0x03BC
    5e5c:	00 97       	sbiw	r24, 0x00	; 0
    5e5e:	89 f4       	brne	.+34     	; 0x5e82 <fdevopen+0x8a>
    5e60:	f0 93 bc 03 	sts	0x03BC, r31
    5e64:	e0 93 bb 03 	sts	0x03BB, r30
    5e68:	80 91 bd 03 	lds	r24, 0x03BD
    5e6c:	90 91 be 03 	lds	r25, 0x03BE
    5e70:	00 97       	sbiw	r24, 0x00	; 0
    5e72:	39 f4       	brne	.+14     	; 0x5e82 <fdevopen+0x8a>
    5e74:	f0 93 be 03 	sts	0x03BE, r31
    5e78:	e0 93 bd 03 	sts	0x03BD, r30
    5e7c:	02 c0       	rjmp	.+4      	; 0x5e82 <fdevopen+0x8a>
    5e7e:	20 e0       	ldi	r18, 0x00	; 0
    5e80:	30 e0       	ldi	r19, 0x00	; 0
    5e82:	c9 01       	movw	r24, r18
    5e84:	df 91       	pop	r29
    5e86:	cf 91       	pop	r28
    5e88:	1f 91       	pop	r17
    5e8a:	0f 91       	pop	r16
    5e8c:	08 95       	ret

00005e8e <printf>:
    5e8e:	a0 e0       	ldi	r26, 0x00	; 0
    5e90:	b0 e0       	ldi	r27, 0x00	; 0
    5e92:	ed e4       	ldi	r30, 0x4D	; 77
    5e94:	ff e2       	ldi	r31, 0x2F	; 47
    5e96:	0c 94 c0 33 	jmp	0x6780	; 0x6780 <__prologue_saves__+0x20>
    5e9a:	fe 01       	movw	r30, r28
    5e9c:	35 96       	adiw	r30, 0x05	; 5
    5e9e:	61 91       	ld	r22, Z+
    5ea0:	71 91       	ld	r23, Z+
    5ea2:	80 91 bb 03 	lds	r24, 0x03BB
    5ea6:	90 91 bc 03 	lds	r25, 0x03BC
    5eaa:	af 01       	movw	r20, r30
    5eac:	0e 94 8d 2f 	call	0x5f1a	; 0x5f1a <vfprintf>
    5eb0:	20 96       	adiw	r28, 0x00	; 0
    5eb2:	e2 e0       	ldi	r30, 0x02	; 2
    5eb4:	0c 94 dc 33 	jmp	0x67b8	; 0x67b8 <__epilogue_restores__+0x20>

00005eb8 <snprintf>:
    5eb8:	ae e0       	ldi	r26, 0x0E	; 14
    5eba:	b0 e0       	ldi	r27, 0x00	; 0
    5ebc:	e2 e6       	ldi	r30, 0x62	; 98
    5ebe:	ff e2       	ldi	r31, 0x2F	; 47
    5ec0:	0c 94 be 33 	jmp	0x677c	; 0x677c <__prologue_saves__+0x1c>
    5ec4:	0d 89       	ldd	r16, Y+21	; 0x15
    5ec6:	1e 89       	ldd	r17, Y+22	; 0x16
    5ec8:	8f 89       	ldd	r24, Y+23	; 0x17
    5eca:	98 8d       	ldd	r25, Y+24	; 0x18
    5ecc:	26 e0       	ldi	r18, 0x06	; 6
    5ece:	2c 83       	std	Y+4, r18	; 0x04
    5ed0:	1a 83       	std	Y+2, r17	; 0x02
    5ed2:	09 83       	std	Y+1, r16	; 0x01
    5ed4:	97 ff       	sbrs	r25, 7
    5ed6:	02 c0       	rjmp	.+4      	; 0x5edc <snprintf+0x24>
    5ed8:	80 e0       	ldi	r24, 0x00	; 0
    5eda:	90 e8       	ldi	r25, 0x80	; 128
    5edc:	01 97       	sbiw	r24, 0x01	; 1
    5ede:	9e 83       	std	Y+6, r25	; 0x06
    5ee0:	8d 83       	std	Y+5, r24	; 0x05
    5ee2:	9e 01       	movw	r18, r28
    5ee4:	25 5e       	subi	r18, 0xE5	; 229
    5ee6:	3f 4f       	sbci	r19, 0xFF	; 255
    5ee8:	ce 01       	movw	r24, r28
    5eea:	01 96       	adiw	r24, 0x01	; 1
    5eec:	69 8d       	ldd	r22, Y+25	; 0x19
    5eee:	7a 8d       	ldd	r23, Y+26	; 0x1a
    5ef0:	a9 01       	movw	r20, r18
    5ef2:	0e 94 8d 2f 	call	0x5f1a	; 0x5f1a <vfprintf>
    5ef6:	4d 81       	ldd	r20, Y+5	; 0x05
    5ef8:	5e 81       	ldd	r21, Y+6	; 0x06
    5efa:	57 fd       	sbrc	r21, 7
    5efc:	0a c0       	rjmp	.+20     	; 0x5f12 <snprintf+0x5a>
    5efe:	2f 81       	ldd	r18, Y+7	; 0x07
    5f00:	38 85       	ldd	r19, Y+8	; 0x08
    5f02:	42 17       	cp	r20, r18
    5f04:	53 07       	cpc	r21, r19
    5f06:	0c f4       	brge	.+2      	; 0x5f0a <snprintf+0x52>
    5f08:	9a 01       	movw	r18, r20
    5f0a:	02 0f       	add	r16, r18
    5f0c:	13 1f       	adc	r17, r19
    5f0e:	f8 01       	movw	r30, r16
    5f10:	10 82       	st	Z, r1
    5f12:	2e 96       	adiw	r28, 0x0e	; 14
    5f14:	e4 e0       	ldi	r30, 0x04	; 4
    5f16:	0c 94 da 33 	jmp	0x67b4	; 0x67b4 <__epilogue_restores__+0x1c>

00005f1a <vfprintf>:
    5f1a:	ac e0       	ldi	r26, 0x0C	; 12
    5f1c:	b0 e0       	ldi	r27, 0x00	; 0
    5f1e:	e3 e9       	ldi	r30, 0x93	; 147
    5f20:	ff e2       	ldi	r31, 0x2F	; 47
    5f22:	0c 94 b0 33 	jmp	0x6760	; 0x6760 <__prologue_saves__>
    5f26:	6c 01       	movw	r12, r24
    5f28:	1b 01       	movw	r2, r22
    5f2a:	8a 01       	movw	r16, r20
    5f2c:	fc 01       	movw	r30, r24
    5f2e:	17 82       	std	Z+7, r1	; 0x07
    5f30:	16 82       	std	Z+6, r1	; 0x06
    5f32:	83 81       	ldd	r24, Z+3	; 0x03
    5f34:	81 ff       	sbrs	r24, 1
    5f36:	d1 c1       	rjmp	.+930    	; 0x62da <vfprintf+0x3c0>
    5f38:	2e 01       	movw	r4, r28
    5f3a:	08 94       	sec
    5f3c:	41 1c       	adc	r4, r1
    5f3e:	51 1c       	adc	r5, r1
    5f40:	f6 01       	movw	r30, r12
    5f42:	93 81       	ldd	r25, Z+3	; 0x03
    5f44:	f1 01       	movw	r30, r2
    5f46:	93 fd       	sbrc	r25, 3
    5f48:	85 91       	lpm	r24, Z+
    5f4a:	93 ff       	sbrs	r25, 3
    5f4c:	81 91       	ld	r24, Z+
    5f4e:	1f 01       	movw	r2, r30
    5f50:	88 23       	and	r24, r24
    5f52:	09 f4       	brne	.+2      	; 0x5f56 <vfprintf+0x3c>
    5f54:	be c1       	rjmp	.+892    	; 0x62d2 <vfprintf+0x3b8>
    5f56:	85 32       	cpi	r24, 0x25	; 37
    5f58:	39 f4       	brne	.+14     	; 0x5f68 <vfprintf+0x4e>
    5f5a:	93 fd       	sbrc	r25, 3
    5f5c:	85 91       	lpm	r24, Z+
    5f5e:	93 ff       	sbrs	r25, 3
    5f60:	81 91       	ld	r24, Z+
    5f62:	1f 01       	movw	r2, r30
    5f64:	85 32       	cpi	r24, 0x25	; 37
    5f66:	29 f4       	brne	.+10     	; 0x5f72 <vfprintf+0x58>
    5f68:	90 e0       	ldi	r25, 0x00	; 0
    5f6a:	b6 01       	movw	r22, r12
    5f6c:	0e 94 16 33 	call	0x662c	; 0x662c <fputc>
    5f70:	e7 cf       	rjmp	.-50     	; 0x5f40 <vfprintf+0x26>
    5f72:	ee 24       	eor	r14, r14
    5f74:	ff 24       	eor	r15, r15
    5f76:	20 e0       	ldi	r18, 0x00	; 0
    5f78:	20 32       	cpi	r18, 0x20	; 32
    5f7a:	b0 f4       	brcc	.+44     	; 0x5fa8 <vfprintf+0x8e>
    5f7c:	8b 32       	cpi	r24, 0x2B	; 43
    5f7e:	69 f0       	breq	.+26     	; 0x5f9a <vfprintf+0x80>
    5f80:	8c 32       	cpi	r24, 0x2C	; 44
    5f82:	28 f4       	brcc	.+10     	; 0x5f8e <vfprintf+0x74>
    5f84:	80 32       	cpi	r24, 0x20	; 32
    5f86:	51 f0       	breq	.+20     	; 0x5f9c <vfprintf+0x82>
    5f88:	83 32       	cpi	r24, 0x23	; 35
    5f8a:	71 f4       	brne	.+28     	; 0x5fa8 <vfprintf+0x8e>
    5f8c:	0b c0       	rjmp	.+22     	; 0x5fa4 <vfprintf+0x8a>
    5f8e:	8d 32       	cpi	r24, 0x2D	; 45
    5f90:	39 f0       	breq	.+14     	; 0x5fa0 <vfprintf+0x86>
    5f92:	80 33       	cpi	r24, 0x30	; 48
    5f94:	49 f4       	brne	.+18     	; 0x5fa8 <vfprintf+0x8e>
    5f96:	21 60       	ori	r18, 0x01	; 1
    5f98:	2c c0       	rjmp	.+88     	; 0x5ff2 <vfprintf+0xd8>
    5f9a:	22 60       	ori	r18, 0x02	; 2
    5f9c:	24 60       	ori	r18, 0x04	; 4
    5f9e:	29 c0       	rjmp	.+82     	; 0x5ff2 <vfprintf+0xd8>
    5fa0:	28 60       	ori	r18, 0x08	; 8
    5fa2:	27 c0       	rjmp	.+78     	; 0x5ff2 <vfprintf+0xd8>
    5fa4:	20 61       	ori	r18, 0x10	; 16
    5fa6:	25 c0       	rjmp	.+74     	; 0x5ff2 <vfprintf+0xd8>
    5fa8:	27 fd       	sbrc	r18, 7
    5faa:	2c c0       	rjmp	.+88     	; 0x6004 <vfprintf+0xea>
    5fac:	38 2f       	mov	r19, r24
    5fae:	30 53       	subi	r19, 0x30	; 48
    5fb0:	3a 30       	cpi	r19, 0x0A	; 10
    5fb2:	98 f4       	brcc	.+38     	; 0x5fda <vfprintf+0xc0>
    5fb4:	26 ff       	sbrs	r18, 6
    5fb6:	08 c0       	rjmp	.+16     	; 0x5fc8 <vfprintf+0xae>
    5fb8:	8e 2d       	mov	r24, r14
    5fba:	88 0f       	add	r24, r24
    5fbc:	e8 2e       	mov	r14, r24
    5fbe:	ee 0c       	add	r14, r14
    5fc0:	ee 0c       	add	r14, r14
    5fc2:	e8 0e       	add	r14, r24
    5fc4:	e3 0e       	add	r14, r19
    5fc6:	15 c0       	rjmp	.+42     	; 0x5ff2 <vfprintf+0xd8>
    5fc8:	8f 2d       	mov	r24, r15
    5fca:	88 0f       	add	r24, r24
    5fcc:	f8 2e       	mov	r15, r24
    5fce:	ff 0c       	add	r15, r15
    5fd0:	ff 0c       	add	r15, r15
    5fd2:	f8 0e       	add	r15, r24
    5fd4:	f3 0e       	add	r15, r19
    5fd6:	20 62       	ori	r18, 0x20	; 32
    5fd8:	0c c0       	rjmp	.+24     	; 0x5ff2 <vfprintf+0xd8>
    5fda:	8e 32       	cpi	r24, 0x2E	; 46
    5fdc:	21 f4       	brne	.+8      	; 0x5fe6 <vfprintf+0xcc>
    5fde:	26 fd       	sbrc	r18, 6
    5fe0:	78 c1       	rjmp	.+752    	; 0x62d2 <vfprintf+0x3b8>
    5fe2:	20 64       	ori	r18, 0x40	; 64
    5fe4:	06 c0       	rjmp	.+12     	; 0x5ff2 <vfprintf+0xd8>
    5fe6:	8c 36       	cpi	r24, 0x6C	; 108
    5fe8:	11 f4       	brne	.+4      	; 0x5fee <vfprintf+0xd4>
    5fea:	20 68       	ori	r18, 0x80	; 128
    5fec:	02 c0       	rjmp	.+4      	; 0x5ff2 <vfprintf+0xd8>
    5fee:	88 36       	cpi	r24, 0x68	; 104
    5ff0:	49 f4       	brne	.+18     	; 0x6004 <vfprintf+0xea>
    5ff2:	f1 01       	movw	r30, r2
    5ff4:	93 fd       	sbrc	r25, 3
    5ff6:	85 91       	lpm	r24, Z+
    5ff8:	93 ff       	sbrs	r25, 3
    5ffa:	81 91       	ld	r24, Z+
    5ffc:	1f 01       	movw	r2, r30
    5ffe:	88 23       	and	r24, r24
    6000:	09 f0       	breq	.+2      	; 0x6004 <vfprintf+0xea>
    6002:	ba cf       	rjmp	.-140    	; 0x5f78 <vfprintf+0x5e>
    6004:	98 2f       	mov	r25, r24
    6006:	95 54       	subi	r25, 0x45	; 69
    6008:	93 30       	cpi	r25, 0x03	; 3
    600a:	18 f0       	brcs	.+6      	; 0x6012 <vfprintf+0xf8>
    600c:	90 52       	subi	r25, 0x20	; 32
    600e:	93 30       	cpi	r25, 0x03	; 3
    6010:	28 f4       	brcc	.+10     	; 0x601c <vfprintf+0x102>
    6012:	0c 5f       	subi	r16, 0xFC	; 252
    6014:	1f 4f       	sbci	r17, 0xFF	; 255
    6016:	ff e3       	ldi	r31, 0x3F	; 63
    6018:	f9 83       	std	Y+1, r31	; 0x01
    601a:	0d c0       	rjmp	.+26     	; 0x6036 <vfprintf+0x11c>
    601c:	83 36       	cpi	r24, 0x63	; 99
    601e:	31 f0       	breq	.+12     	; 0x602c <vfprintf+0x112>
    6020:	83 37       	cpi	r24, 0x73	; 115
    6022:	71 f0       	breq	.+28     	; 0x6040 <vfprintf+0x126>
    6024:	83 35       	cpi	r24, 0x53	; 83
    6026:	09 f0       	breq	.+2      	; 0x602a <vfprintf+0x110>
    6028:	60 c0       	rjmp	.+192    	; 0x60ea <vfprintf+0x1d0>
    602a:	22 c0       	rjmp	.+68     	; 0x6070 <vfprintf+0x156>
    602c:	f8 01       	movw	r30, r16
    602e:	80 81       	ld	r24, Z
    6030:	89 83       	std	Y+1, r24	; 0x01
    6032:	0e 5f       	subi	r16, 0xFE	; 254
    6034:	1f 4f       	sbci	r17, 0xFF	; 255
    6036:	42 01       	movw	r8, r4
    6038:	71 e0       	ldi	r23, 0x01	; 1
    603a:	a7 2e       	mov	r10, r23
    603c:	b1 2c       	mov	r11, r1
    603e:	16 c0       	rjmp	.+44     	; 0x606c <vfprintf+0x152>
    6040:	62 e0       	ldi	r22, 0x02	; 2
    6042:	66 2e       	mov	r6, r22
    6044:	71 2c       	mov	r7, r1
    6046:	60 0e       	add	r6, r16
    6048:	71 1e       	adc	r7, r17
    604a:	f8 01       	movw	r30, r16
    604c:	80 80       	ld	r8, Z
    604e:	91 80       	ldd	r9, Z+1	; 0x01
    6050:	26 ff       	sbrs	r18, 6
    6052:	03 c0       	rjmp	.+6      	; 0x605a <vfprintf+0x140>
    6054:	6e 2d       	mov	r22, r14
    6056:	70 e0       	ldi	r23, 0x00	; 0
    6058:	02 c0       	rjmp	.+4      	; 0x605e <vfprintf+0x144>
    605a:	6f ef       	ldi	r22, 0xFF	; 255
    605c:	7f ef       	ldi	r23, 0xFF	; 255
    605e:	c4 01       	movw	r24, r8
    6060:	2c 87       	std	Y+12, r18	; 0x0c
    6062:	0e 94 0b 33 	call	0x6616	; 0x6616 <strnlen>
    6066:	5c 01       	movw	r10, r24
    6068:	83 01       	movw	r16, r6
    606a:	2c 85       	ldd	r18, Y+12	; 0x0c
    606c:	2f 77       	andi	r18, 0x7F	; 127
    606e:	17 c0       	rjmp	.+46     	; 0x609e <vfprintf+0x184>
    6070:	52 e0       	ldi	r21, 0x02	; 2
    6072:	65 2e       	mov	r6, r21
    6074:	71 2c       	mov	r7, r1
    6076:	60 0e       	add	r6, r16
    6078:	71 1e       	adc	r7, r17
    607a:	f8 01       	movw	r30, r16
    607c:	80 80       	ld	r8, Z
    607e:	91 80       	ldd	r9, Z+1	; 0x01
    6080:	26 ff       	sbrs	r18, 6
    6082:	03 c0       	rjmp	.+6      	; 0x608a <vfprintf+0x170>
    6084:	6e 2d       	mov	r22, r14
    6086:	70 e0       	ldi	r23, 0x00	; 0
    6088:	02 c0       	rjmp	.+4      	; 0x608e <vfprintf+0x174>
    608a:	6f ef       	ldi	r22, 0xFF	; 255
    608c:	7f ef       	ldi	r23, 0xFF	; 255
    608e:	c4 01       	movw	r24, r8
    6090:	2c 87       	std	Y+12, r18	; 0x0c
    6092:	0e 94 f9 32 	call	0x65f2	; 0x65f2 <strnlen_P>
    6096:	5c 01       	movw	r10, r24
    6098:	2c 85       	ldd	r18, Y+12	; 0x0c
    609a:	20 68       	ori	r18, 0x80	; 128
    609c:	83 01       	movw	r16, r6
    609e:	23 fd       	sbrc	r18, 3
    60a0:	20 c0       	rjmp	.+64     	; 0x60e2 <vfprintf+0x1c8>
    60a2:	08 c0       	rjmp	.+16     	; 0x60b4 <vfprintf+0x19a>
    60a4:	80 e2       	ldi	r24, 0x20	; 32
    60a6:	90 e0       	ldi	r25, 0x00	; 0
    60a8:	b6 01       	movw	r22, r12
    60aa:	2c 87       	std	Y+12, r18	; 0x0c
    60ac:	0e 94 16 33 	call	0x662c	; 0x662c <fputc>
    60b0:	fa 94       	dec	r15
    60b2:	2c 85       	ldd	r18, Y+12	; 0x0c
    60b4:	8f 2d       	mov	r24, r15
    60b6:	90 e0       	ldi	r25, 0x00	; 0
    60b8:	a8 16       	cp	r10, r24
    60ba:	b9 06       	cpc	r11, r25
    60bc:	98 f3       	brcs	.-26     	; 0x60a4 <vfprintf+0x18a>
    60be:	11 c0       	rjmp	.+34     	; 0x60e2 <vfprintf+0x1c8>
    60c0:	f4 01       	movw	r30, r8
    60c2:	27 fd       	sbrc	r18, 7
    60c4:	85 91       	lpm	r24, Z+
    60c6:	27 ff       	sbrs	r18, 7
    60c8:	81 91       	ld	r24, Z+
    60ca:	4f 01       	movw	r8, r30
    60cc:	90 e0       	ldi	r25, 0x00	; 0
    60ce:	b6 01       	movw	r22, r12
    60d0:	2c 87       	std	Y+12, r18	; 0x0c
    60d2:	0e 94 16 33 	call	0x662c	; 0x662c <fputc>
    60d6:	2c 85       	ldd	r18, Y+12	; 0x0c
    60d8:	f1 10       	cpse	r15, r1
    60da:	fa 94       	dec	r15
    60dc:	08 94       	sec
    60de:	a1 08       	sbc	r10, r1
    60e0:	b1 08       	sbc	r11, r1
    60e2:	a1 14       	cp	r10, r1
    60e4:	b1 04       	cpc	r11, r1
    60e6:	61 f7       	brne	.-40     	; 0x60c0 <vfprintf+0x1a6>
    60e8:	f1 c0       	rjmp	.+482    	; 0x62cc <vfprintf+0x3b2>
    60ea:	84 36       	cpi	r24, 0x64	; 100
    60ec:	11 f0       	breq	.+4      	; 0x60f2 <vfprintf+0x1d8>
    60ee:	89 36       	cpi	r24, 0x69	; 105
    60f0:	49 f5       	brne	.+82     	; 0x6144 <vfprintf+0x22a>
    60f2:	27 ff       	sbrs	r18, 7
    60f4:	08 c0       	rjmp	.+16     	; 0x6106 <vfprintf+0x1ec>
    60f6:	f8 01       	movw	r30, r16
    60f8:	60 81       	ld	r22, Z
    60fa:	71 81       	ldd	r23, Z+1	; 0x01
    60fc:	82 81       	ldd	r24, Z+2	; 0x02
    60fe:	93 81       	ldd	r25, Z+3	; 0x03
    6100:	0c 5f       	subi	r16, 0xFC	; 252
    6102:	1f 4f       	sbci	r17, 0xFF	; 255
    6104:	09 c0       	rjmp	.+18     	; 0x6118 <vfprintf+0x1fe>
    6106:	f8 01       	movw	r30, r16
    6108:	60 81       	ld	r22, Z
    610a:	71 81       	ldd	r23, Z+1	; 0x01
    610c:	88 27       	eor	r24, r24
    610e:	77 fd       	sbrc	r23, 7
    6110:	80 95       	com	r24
    6112:	98 2f       	mov	r25, r24
    6114:	0e 5f       	subi	r16, 0xFE	; 254
    6116:	1f 4f       	sbci	r17, 0xFF	; 255
    6118:	4f e6       	ldi	r20, 0x6F	; 111
    611a:	b4 2e       	mov	r11, r20
    611c:	b2 22       	and	r11, r18
    611e:	97 ff       	sbrs	r25, 7
    6120:	09 c0       	rjmp	.+18     	; 0x6134 <vfprintf+0x21a>
    6122:	90 95       	com	r25
    6124:	80 95       	com	r24
    6126:	70 95       	com	r23
    6128:	61 95       	neg	r22
    612a:	7f 4f       	sbci	r23, 0xFF	; 255
    612c:	8f 4f       	sbci	r24, 0xFF	; 255
    612e:	9f 4f       	sbci	r25, 0xFF	; 255
    6130:	f0 e8       	ldi	r31, 0x80	; 128
    6132:	bf 2a       	or	r11, r31
    6134:	a2 01       	movw	r20, r4
    6136:	2a e0       	ldi	r18, 0x0A	; 10
    6138:	30 e0       	ldi	r19, 0x00	; 0
    613a:	0e 94 42 33 	call	0x6684	; 0x6684 <__ultoa_invert>
    613e:	78 2e       	mov	r7, r24
    6140:	74 18       	sub	r7, r4
    6142:	45 c0       	rjmp	.+138    	; 0x61ce <vfprintf+0x2b4>
    6144:	85 37       	cpi	r24, 0x75	; 117
    6146:	31 f4       	brne	.+12     	; 0x6154 <vfprintf+0x23a>
    6148:	3f ee       	ldi	r19, 0xEF	; 239
    614a:	b3 2e       	mov	r11, r19
    614c:	b2 22       	and	r11, r18
    614e:	2a e0       	ldi	r18, 0x0A	; 10
    6150:	30 e0       	ldi	r19, 0x00	; 0
    6152:	25 c0       	rjmp	.+74     	; 0x619e <vfprintf+0x284>
    6154:	99 ef       	ldi	r25, 0xF9	; 249
    6156:	b9 2e       	mov	r11, r25
    6158:	b2 22       	and	r11, r18
    615a:	8f 36       	cpi	r24, 0x6F	; 111
    615c:	c1 f0       	breq	.+48     	; 0x618e <vfprintf+0x274>
    615e:	80 37       	cpi	r24, 0x70	; 112
    6160:	20 f4       	brcc	.+8      	; 0x616a <vfprintf+0x250>
    6162:	88 35       	cpi	r24, 0x58	; 88
    6164:	09 f0       	breq	.+2      	; 0x6168 <vfprintf+0x24e>
    6166:	b5 c0       	rjmp	.+362    	; 0x62d2 <vfprintf+0x3b8>
    6168:	0d c0       	rjmp	.+26     	; 0x6184 <vfprintf+0x26a>
    616a:	80 37       	cpi	r24, 0x70	; 112
    616c:	21 f0       	breq	.+8      	; 0x6176 <vfprintf+0x25c>
    616e:	88 37       	cpi	r24, 0x78	; 120
    6170:	09 f0       	breq	.+2      	; 0x6174 <vfprintf+0x25a>
    6172:	af c0       	rjmp	.+350    	; 0x62d2 <vfprintf+0x3b8>
    6174:	02 c0       	rjmp	.+4      	; 0x617a <vfprintf+0x260>
    6176:	20 e1       	ldi	r18, 0x10	; 16
    6178:	b2 2a       	or	r11, r18
    617a:	b4 fe       	sbrs	r11, 4
    617c:	0b c0       	rjmp	.+22     	; 0x6194 <vfprintf+0x27a>
    617e:	84 e0       	ldi	r24, 0x04	; 4
    6180:	b8 2a       	or	r11, r24
    6182:	08 c0       	rjmp	.+16     	; 0x6194 <vfprintf+0x27a>
    6184:	b4 fe       	sbrs	r11, 4
    6186:	09 c0       	rjmp	.+18     	; 0x619a <vfprintf+0x280>
    6188:	e6 e0       	ldi	r30, 0x06	; 6
    618a:	be 2a       	or	r11, r30
    618c:	06 c0       	rjmp	.+12     	; 0x619a <vfprintf+0x280>
    618e:	28 e0       	ldi	r18, 0x08	; 8
    6190:	30 e0       	ldi	r19, 0x00	; 0
    6192:	05 c0       	rjmp	.+10     	; 0x619e <vfprintf+0x284>
    6194:	20 e1       	ldi	r18, 0x10	; 16
    6196:	30 e0       	ldi	r19, 0x00	; 0
    6198:	02 c0       	rjmp	.+4      	; 0x619e <vfprintf+0x284>
    619a:	20 e1       	ldi	r18, 0x10	; 16
    619c:	32 e0       	ldi	r19, 0x02	; 2
    619e:	b7 fe       	sbrs	r11, 7
    61a0:	08 c0       	rjmp	.+16     	; 0x61b2 <vfprintf+0x298>
    61a2:	f8 01       	movw	r30, r16
    61a4:	60 81       	ld	r22, Z
    61a6:	71 81       	ldd	r23, Z+1	; 0x01
    61a8:	82 81       	ldd	r24, Z+2	; 0x02
    61aa:	93 81       	ldd	r25, Z+3	; 0x03
    61ac:	0c 5f       	subi	r16, 0xFC	; 252
    61ae:	1f 4f       	sbci	r17, 0xFF	; 255
    61b0:	07 c0       	rjmp	.+14     	; 0x61c0 <vfprintf+0x2a6>
    61b2:	f8 01       	movw	r30, r16
    61b4:	60 81       	ld	r22, Z
    61b6:	71 81       	ldd	r23, Z+1	; 0x01
    61b8:	80 e0       	ldi	r24, 0x00	; 0
    61ba:	90 e0       	ldi	r25, 0x00	; 0
    61bc:	0e 5f       	subi	r16, 0xFE	; 254
    61be:	1f 4f       	sbci	r17, 0xFF	; 255
    61c0:	a2 01       	movw	r20, r4
    61c2:	0e 94 42 33 	call	0x6684	; 0x6684 <__ultoa_invert>
    61c6:	78 2e       	mov	r7, r24
    61c8:	74 18       	sub	r7, r4
    61ca:	ff e7       	ldi	r31, 0x7F	; 127
    61cc:	bf 22       	and	r11, r31
    61ce:	b6 fe       	sbrs	r11, 6
    61d0:	0b c0       	rjmp	.+22     	; 0x61e8 <vfprintf+0x2ce>
    61d2:	2e ef       	ldi	r18, 0xFE	; 254
    61d4:	b2 22       	and	r11, r18
    61d6:	7e 14       	cp	r7, r14
    61d8:	38 f4       	brcc	.+14     	; 0x61e8 <vfprintf+0x2ce>
    61da:	b4 fe       	sbrs	r11, 4
    61dc:	07 c0       	rjmp	.+14     	; 0x61ec <vfprintf+0x2d2>
    61de:	b2 fc       	sbrc	r11, 2
    61e0:	05 c0       	rjmp	.+10     	; 0x61ec <vfprintf+0x2d2>
    61e2:	8f ee       	ldi	r24, 0xEF	; 239
    61e4:	b8 22       	and	r11, r24
    61e6:	02 c0       	rjmp	.+4      	; 0x61ec <vfprintf+0x2d2>
    61e8:	a7 2c       	mov	r10, r7
    61ea:	01 c0       	rjmp	.+2      	; 0x61ee <vfprintf+0x2d4>
    61ec:	ae 2c       	mov	r10, r14
    61ee:	8b 2d       	mov	r24, r11
    61f0:	90 e0       	ldi	r25, 0x00	; 0
    61f2:	b4 fe       	sbrs	r11, 4
    61f4:	0d c0       	rjmp	.+26     	; 0x6210 <vfprintf+0x2f6>
    61f6:	fe 01       	movw	r30, r28
    61f8:	e7 0d       	add	r30, r7
    61fa:	f1 1d       	adc	r31, r1
    61fc:	20 81       	ld	r18, Z
    61fe:	20 33       	cpi	r18, 0x30	; 48
    6200:	19 f4       	brne	.+6      	; 0x6208 <vfprintf+0x2ee>
    6202:	e9 ee       	ldi	r30, 0xE9	; 233
    6204:	be 22       	and	r11, r30
    6206:	09 c0       	rjmp	.+18     	; 0x621a <vfprintf+0x300>
    6208:	a3 94       	inc	r10
    620a:	b2 fe       	sbrs	r11, 2
    620c:	06 c0       	rjmp	.+12     	; 0x621a <vfprintf+0x300>
    620e:	04 c0       	rjmp	.+8      	; 0x6218 <vfprintf+0x2fe>
    6210:	86 78       	andi	r24, 0x86	; 134
    6212:	90 70       	andi	r25, 0x00	; 0
    6214:	00 97       	sbiw	r24, 0x00	; 0
    6216:	09 f0       	breq	.+2      	; 0x621a <vfprintf+0x300>
    6218:	a3 94       	inc	r10
    621a:	8b 2c       	mov	r8, r11
    621c:	99 24       	eor	r9, r9
    621e:	b3 fc       	sbrc	r11, 3
    6220:	14 c0       	rjmp	.+40     	; 0x624a <vfprintf+0x330>
    6222:	b0 fe       	sbrs	r11, 0
    6224:	0f c0       	rjmp	.+30     	; 0x6244 <vfprintf+0x32a>
    6226:	af 14       	cp	r10, r15
    6228:	28 f4       	brcc	.+10     	; 0x6234 <vfprintf+0x31a>
    622a:	e7 2c       	mov	r14, r7
    622c:	ef 0c       	add	r14, r15
    622e:	ea 18       	sub	r14, r10
    6230:	af 2c       	mov	r10, r15
    6232:	08 c0       	rjmp	.+16     	; 0x6244 <vfprintf+0x32a>
    6234:	e7 2c       	mov	r14, r7
    6236:	06 c0       	rjmp	.+12     	; 0x6244 <vfprintf+0x32a>
    6238:	80 e2       	ldi	r24, 0x20	; 32
    623a:	90 e0       	ldi	r25, 0x00	; 0
    623c:	b6 01       	movw	r22, r12
    623e:	0e 94 16 33 	call	0x662c	; 0x662c <fputc>
    6242:	a3 94       	inc	r10
    6244:	af 14       	cp	r10, r15
    6246:	c0 f3       	brcs	.-16     	; 0x6238 <vfprintf+0x31e>
    6248:	04 c0       	rjmp	.+8      	; 0x6252 <vfprintf+0x338>
    624a:	af 14       	cp	r10, r15
    624c:	10 f4       	brcc	.+4      	; 0x6252 <vfprintf+0x338>
    624e:	fa 18       	sub	r15, r10
    6250:	01 c0       	rjmp	.+2      	; 0x6254 <vfprintf+0x33a>
    6252:	ff 24       	eor	r15, r15
    6254:	84 fe       	sbrs	r8, 4
    6256:	0f c0       	rjmp	.+30     	; 0x6276 <vfprintf+0x35c>
    6258:	80 e3       	ldi	r24, 0x30	; 48
    625a:	90 e0       	ldi	r25, 0x00	; 0
    625c:	b6 01       	movw	r22, r12
    625e:	0e 94 16 33 	call	0x662c	; 0x662c <fputc>
    6262:	82 fe       	sbrs	r8, 2
    6264:	1f c0       	rjmp	.+62     	; 0x62a4 <vfprintf+0x38a>
    6266:	81 fe       	sbrs	r8, 1
    6268:	03 c0       	rjmp	.+6      	; 0x6270 <vfprintf+0x356>
    626a:	88 e5       	ldi	r24, 0x58	; 88
    626c:	90 e0       	ldi	r25, 0x00	; 0
    626e:	10 c0       	rjmp	.+32     	; 0x6290 <vfprintf+0x376>
    6270:	88 e7       	ldi	r24, 0x78	; 120
    6272:	90 e0       	ldi	r25, 0x00	; 0
    6274:	0d c0       	rjmp	.+26     	; 0x6290 <vfprintf+0x376>
    6276:	c4 01       	movw	r24, r8
    6278:	86 78       	andi	r24, 0x86	; 134
    627a:	90 70       	andi	r25, 0x00	; 0
    627c:	00 97       	sbiw	r24, 0x00	; 0
    627e:	91 f0       	breq	.+36     	; 0x62a4 <vfprintf+0x38a>
    6280:	81 fc       	sbrc	r8, 1
    6282:	02 c0       	rjmp	.+4      	; 0x6288 <vfprintf+0x36e>
    6284:	80 e2       	ldi	r24, 0x20	; 32
    6286:	01 c0       	rjmp	.+2      	; 0x628a <vfprintf+0x370>
    6288:	8b e2       	ldi	r24, 0x2B	; 43
    628a:	b7 fc       	sbrc	r11, 7
    628c:	8d e2       	ldi	r24, 0x2D	; 45
    628e:	90 e0       	ldi	r25, 0x00	; 0
    6290:	b6 01       	movw	r22, r12
    6292:	0e 94 16 33 	call	0x662c	; 0x662c <fputc>
    6296:	06 c0       	rjmp	.+12     	; 0x62a4 <vfprintf+0x38a>
    6298:	80 e3       	ldi	r24, 0x30	; 48
    629a:	90 e0       	ldi	r25, 0x00	; 0
    629c:	b6 01       	movw	r22, r12
    629e:	0e 94 16 33 	call	0x662c	; 0x662c <fputc>
    62a2:	ea 94       	dec	r14
    62a4:	7e 14       	cp	r7, r14
    62a6:	c0 f3       	brcs	.-16     	; 0x6298 <vfprintf+0x37e>
    62a8:	7a 94       	dec	r7
    62aa:	f2 01       	movw	r30, r4
    62ac:	e7 0d       	add	r30, r7
    62ae:	f1 1d       	adc	r31, r1
    62b0:	80 81       	ld	r24, Z
    62b2:	90 e0       	ldi	r25, 0x00	; 0
    62b4:	b6 01       	movw	r22, r12
    62b6:	0e 94 16 33 	call	0x662c	; 0x662c <fputc>
    62ba:	77 20       	and	r7, r7
    62bc:	a9 f7       	brne	.-22     	; 0x62a8 <vfprintf+0x38e>
    62be:	06 c0       	rjmp	.+12     	; 0x62cc <vfprintf+0x3b2>
    62c0:	80 e2       	ldi	r24, 0x20	; 32
    62c2:	90 e0       	ldi	r25, 0x00	; 0
    62c4:	b6 01       	movw	r22, r12
    62c6:	0e 94 16 33 	call	0x662c	; 0x662c <fputc>
    62ca:	fa 94       	dec	r15
    62cc:	ff 20       	and	r15, r15
    62ce:	c1 f7       	brne	.-16     	; 0x62c0 <vfprintf+0x3a6>
    62d0:	37 ce       	rjmp	.-914    	; 0x5f40 <vfprintf+0x26>
    62d2:	f6 01       	movw	r30, r12
    62d4:	26 81       	ldd	r18, Z+6	; 0x06
    62d6:	37 81       	ldd	r19, Z+7	; 0x07
    62d8:	02 c0       	rjmp	.+4      	; 0x62de <vfprintf+0x3c4>
    62da:	2f ef       	ldi	r18, 0xFF	; 255
    62dc:	3f ef       	ldi	r19, 0xFF	; 255
    62de:	c9 01       	movw	r24, r18
    62e0:	2c 96       	adiw	r28, 0x0c	; 12
    62e2:	e2 e1       	ldi	r30, 0x12	; 18
    62e4:	0c 94 cc 33 	jmp	0x6798	; 0x6798 <__epilogue_restores__>

000062e8 <__eerd_byte_m32a>:
    62e8:	e1 99       	sbic	0x1c, 1	; 28
    62ea:	fe cf       	rjmp	.-4      	; 0x62e8 <__eerd_byte_m32a>
    62ec:	9f bb       	out	0x1f, r25	; 31
    62ee:	8e bb       	out	0x1e, r24	; 30
    62f0:	e0 9a       	sbi	0x1c, 0	; 28
    62f2:	99 27       	eor	r25, r25
    62f4:	8d b3       	in	r24, 0x1d	; 29
    62f6:	08 95       	ret

000062f8 <__eerd_dword_m32a>:
    62f8:	a6 e1       	ldi	r26, 0x16	; 22
    62fa:	b0 e0       	ldi	r27, 0x00	; 0
    62fc:	44 e0       	ldi	r20, 0x04	; 4
    62fe:	50 e0       	ldi	r21, 0x00	; 0
    6300:	0c 94 a2 33 	jmp	0x6744	; 0x6744 <__eerd_blraw_m32a>

00006304 <__eerd_word_m32a>:
    6304:	a8 e1       	ldi	r26, 0x18	; 24
    6306:	b0 e0       	ldi	r27, 0x00	; 0
    6308:	42 e0       	ldi	r20, 0x02	; 2
    630a:	50 e0       	ldi	r21, 0x00	; 0
    630c:	0c 94 a2 33 	jmp	0x6744	; 0x6744 <__eerd_blraw_m32a>

00006310 <__eewr_byte_m32a>:
    6310:	26 2f       	mov	r18, r22

00006312 <__eewr_r18_m32a>:
    6312:	e1 99       	sbic	0x1c, 1	; 28
    6314:	fe cf       	rjmp	.-4      	; 0x6312 <__eewr_r18_m32a>
    6316:	9f bb       	out	0x1f, r25	; 31
    6318:	8e bb       	out	0x1e, r24	; 30
    631a:	2d bb       	out	0x1d, r18	; 29
    631c:	0f b6       	in	r0, 0x3f	; 63
    631e:	f8 94       	cli
    6320:	e2 9a       	sbi	0x1c, 2	; 28
    6322:	e1 9a       	sbi	0x1c, 1	; 28
    6324:	0f be       	out	0x3f, r0	; 63
    6326:	01 96       	adiw	r24, 0x01	; 1
    6328:	08 95       	ret

0000632a <__eewr_dword_m32a>:
    632a:	24 2f       	mov	r18, r20
    632c:	0e 94 89 31 	call	0x6312	; 0x6312 <__eewr_r18_m32a>
    6330:	25 2f       	mov	r18, r21
    6332:	0e 94 89 31 	call	0x6312	; 0x6312 <__eewr_r18_m32a>
    6336:	0c 94 9d 31 	jmp	0x633a	; 0x633a <__eewr_word_m32a>

0000633a <__eewr_word_m32a>:
    633a:	0e 94 88 31 	call	0x6310	; 0x6310 <__eewr_byte_m32a>
    633e:	27 2f       	mov	r18, r23
    6340:	0c 94 89 31 	jmp	0x6312	; 0x6312 <__eewr_r18_m32a>

00006344 <calloc>:
    6344:	ef 92       	push	r14
    6346:	ff 92       	push	r15
    6348:	0f 93       	push	r16
    634a:	1f 93       	push	r17
    634c:	cf 93       	push	r28
    634e:	df 93       	push	r29
    6350:	68 9f       	mul	r22, r24
    6352:	80 01       	movw	r16, r0
    6354:	69 9f       	mul	r22, r25
    6356:	10 0d       	add	r17, r0
    6358:	78 9f       	mul	r23, r24
    635a:	10 0d       	add	r17, r0
    635c:	11 24       	eor	r1, r1
    635e:	c8 01       	movw	r24, r16
    6360:	0e 94 c6 31 	call	0x638c	; 0x638c <malloc>
    6364:	e8 2e       	mov	r14, r24
    6366:	e7 01       	movw	r28, r14
    6368:	7e 01       	movw	r14, r28
    636a:	f9 2e       	mov	r15, r25
    636c:	e7 01       	movw	r28, r14
    636e:	20 97       	sbiw	r28, 0x00	; 0
    6370:	31 f0       	breq	.+12     	; 0x637e <calloc+0x3a>
    6372:	8e 2d       	mov	r24, r14
    6374:	60 e0       	ldi	r22, 0x00	; 0
    6376:	70 e0       	ldi	r23, 0x00	; 0
    6378:	a8 01       	movw	r20, r16
    637a:	0e 94 04 33 	call	0x6608	; 0x6608 <memset>
    637e:	7e 01       	movw	r14, r28
    6380:	ce 01       	movw	r24, r28
    6382:	cd b7       	in	r28, 0x3d	; 61
    6384:	de b7       	in	r29, 0x3e	; 62
    6386:	e6 e0       	ldi	r30, 0x06	; 6
    6388:	0c 94 d8 33 	jmp	0x67b0	; 0x67b0 <__epilogue_restores__+0x18>

0000638c <malloc>:
    638c:	cf 93       	push	r28
    638e:	df 93       	push	r29
    6390:	82 30       	cpi	r24, 0x02	; 2
    6392:	91 05       	cpc	r25, r1
    6394:	10 f4       	brcc	.+4      	; 0x639a <malloc+0xe>
    6396:	82 e0       	ldi	r24, 0x02	; 2
    6398:	90 e0       	ldi	r25, 0x00	; 0
    639a:	e0 91 c1 03 	lds	r30, 0x03C1
    639e:	f0 91 c2 03 	lds	r31, 0x03C2
    63a2:	40 e0       	ldi	r20, 0x00	; 0
    63a4:	50 e0       	ldi	r21, 0x00	; 0
    63a6:	20 e0       	ldi	r18, 0x00	; 0
    63a8:	30 e0       	ldi	r19, 0x00	; 0
    63aa:	26 c0       	rjmp	.+76     	; 0x63f8 <malloc+0x6c>
    63ac:	60 81       	ld	r22, Z
    63ae:	71 81       	ldd	r23, Z+1	; 0x01
    63b0:	68 17       	cp	r22, r24
    63b2:	79 07       	cpc	r23, r25
    63b4:	e0 f0       	brcs	.+56     	; 0x63ee <malloc+0x62>
    63b6:	68 17       	cp	r22, r24
    63b8:	79 07       	cpc	r23, r25
    63ba:	81 f4       	brne	.+32     	; 0x63dc <malloc+0x50>
    63bc:	82 81       	ldd	r24, Z+2	; 0x02
    63be:	93 81       	ldd	r25, Z+3	; 0x03
    63c0:	21 15       	cp	r18, r1
    63c2:	31 05       	cpc	r19, r1
    63c4:	31 f0       	breq	.+12     	; 0x63d2 <malloc+0x46>
    63c6:	d9 01       	movw	r26, r18
    63c8:	13 96       	adiw	r26, 0x03	; 3
    63ca:	9c 93       	st	X, r25
    63cc:	8e 93       	st	-X, r24
    63ce:	12 97       	sbiw	r26, 0x02	; 2
    63d0:	2b c0       	rjmp	.+86     	; 0x6428 <malloc+0x9c>
    63d2:	90 93 c2 03 	sts	0x03C2, r25
    63d6:	80 93 c1 03 	sts	0x03C1, r24
    63da:	26 c0       	rjmp	.+76     	; 0x6428 <malloc+0x9c>
    63dc:	41 15       	cp	r20, r1
    63de:	51 05       	cpc	r21, r1
    63e0:	19 f0       	breq	.+6      	; 0x63e8 <malloc+0x5c>
    63e2:	64 17       	cp	r22, r20
    63e4:	75 07       	cpc	r23, r21
    63e6:	18 f4       	brcc	.+6      	; 0x63ee <malloc+0x62>
    63e8:	ab 01       	movw	r20, r22
    63ea:	e9 01       	movw	r28, r18
    63ec:	df 01       	movw	r26, r30
    63ee:	9f 01       	movw	r18, r30
    63f0:	72 81       	ldd	r23, Z+2	; 0x02
    63f2:	63 81       	ldd	r22, Z+3	; 0x03
    63f4:	e7 2f       	mov	r30, r23
    63f6:	f6 2f       	mov	r31, r22
    63f8:	30 97       	sbiw	r30, 0x00	; 0
    63fa:	c1 f6       	brne	.-80     	; 0x63ac <malloc+0x20>
    63fc:	41 15       	cp	r20, r1
    63fe:	51 05       	cpc	r21, r1
    6400:	01 f1       	breq	.+64     	; 0x6442 <malloc+0xb6>
    6402:	48 1b       	sub	r20, r24
    6404:	59 0b       	sbc	r21, r25
    6406:	44 30       	cpi	r20, 0x04	; 4
    6408:	51 05       	cpc	r21, r1
    640a:	80 f4       	brcc	.+32     	; 0x642c <malloc+0xa0>
    640c:	12 96       	adiw	r26, 0x02	; 2
    640e:	8d 91       	ld	r24, X+
    6410:	9c 91       	ld	r25, X
    6412:	13 97       	sbiw	r26, 0x03	; 3
    6414:	20 97       	sbiw	r28, 0x00	; 0
    6416:	19 f0       	breq	.+6      	; 0x641e <malloc+0x92>
    6418:	9b 83       	std	Y+3, r25	; 0x03
    641a:	8a 83       	std	Y+2, r24	; 0x02
    641c:	04 c0       	rjmp	.+8      	; 0x6426 <malloc+0x9a>
    641e:	90 93 c2 03 	sts	0x03C2, r25
    6422:	80 93 c1 03 	sts	0x03C1, r24
    6426:	fd 01       	movw	r30, r26
    6428:	32 96       	adiw	r30, 0x02	; 2
    642a:	46 c0       	rjmp	.+140    	; 0x64b8 <malloc+0x12c>
    642c:	fd 01       	movw	r30, r26
    642e:	e4 0f       	add	r30, r20
    6430:	f5 1f       	adc	r31, r21
    6432:	81 93       	st	Z+, r24
    6434:	91 93       	st	Z+, r25
    6436:	42 50       	subi	r20, 0x02	; 2
    6438:	50 40       	sbci	r21, 0x00	; 0
    643a:	11 96       	adiw	r26, 0x01	; 1
    643c:	5c 93       	st	X, r21
    643e:	4e 93       	st	-X, r20
    6440:	3b c0       	rjmp	.+118    	; 0x64b8 <malloc+0x12c>
    6442:	20 91 bf 03 	lds	r18, 0x03BF
    6446:	30 91 c0 03 	lds	r19, 0x03C0
    644a:	21 15       	cp	r18, r1
    644c:	31 05       	cpc	r19, r1
    644e:	41 f4       	brne	.+16     	; 0x6460 <malloc+0xd4>
    6450:	20 91 72 03 	lds	r18, 0x0372
    6454:	30 91 73 03 	lds	r19, 0x0373
    6458:	30 93 c0 03 	sts	0x03C0, r19
    645c:	20 93 bf 03 	sts	0x03BF, r18
    6460:	20 91 74 03 	lds	r18, 0x0374
    6464:	30 91 75 03 	lds	r19, 0x0375
    6468:	21 15       	cp	r18, r1
    646a:	31 05       	cpc	r19, r1
    646c:	41 f4       	brne	.+16     	; 0x647e <malloc+0xf2>
    646e:	2d b7       	in	r18, 0x3d	; 61
    6470:	3e b7       	in	r19, 0x3e	; 62
    6472:	40 91 70 03 	lds	r20, 0x0370
    6476:	50 91 71 03 	lds	r21, 0x0371
    647a:	24 1b       	sub	r18, r20
    647c:	35 0b       	sbc	r19, r21
    647e:	e0 91 bf 03 	lds	r30, 0x03BF
    6482:	f0 91 c0 03 	lds	r31, 0x03C0
    6486:	e2 17       	cp	r30, r18
    6488:	f3 07       	cpc	r31, r19
    648a:	a0 f4       	brcc	.+40     	; 0x64b4 <malloc+0x128>
    648c:	2e 1b       	sub	r18, r30
    648e:	3f 0b       	sbc	r19, r31
    6490:	28 17       	cp	r18, r24
    6492:	39 07       	cpc	r19, r25
    6494:	78 f0       	brcs	.+30     	; 0x64b4 <malloc+0x128>
    6496:	ac 01       	movw	r20, r24
    6498:	4e 5f       	subi	r20, 0xFE	; 254
    649a:	5f 4f       	sbci	r21, 0xFF	; 255
    649c:	24 17       	cp	r18, r20
    649e:	35 07       	cpc	r19, r21
    64a0:	48 f0       	brcs	.+18     	; 0x64b4 <malloc+0x128>
    64a2:	4e 0f       	add	r20, r30
    64a4:	5f 1f       	adc	r21, r31
    64a6:	50 93 c0 03 	sts	0x03C0, r21
    64aa:	40 93 bf 03 	sts	0x03BF, r20
    64ae:	81 93       	st	Z+, r24
    64b0:	91 93       	st	Z+, r25
    64b2:	02 c0       	rjmp	.+4      	; 0x64b8 <malloc+0x12c>
    64b4:	e0 e0       	ldi	r30, 0x00	; 0
    64b6:	f0 e0       	ldi	r31, 0x00	; 0
    64b8:	cf 01       	movw	r24, r30
    64ba:	df 91       	pop	r29
    64bc:	cf 91       	pop	r28
    64be:	08 95       	ret

000064c0 <free>:
    64c0:	cf 93       	push	r28
    64c2:	df 93       	push	r29
    64c4:	00 97       	sbiw	r24, 0x00	; 0
    64c6:	09 f4       	brne	.+2      	; 0x64ca <free+0xa>
    64c8:	91 c0       	rjmp	.+290    	; 0x65ec <free+0x12c>
    64ca:	fc 01       	movw	r30, r24
    64cc:	32 97       	sbiw	r30, 0x02	; 2
    64ce:	13 82       	std	Z+3, r1	; 0x03
    64d0:	12 82       	std	Z+2, r1	; 0x02
    64d2:	60 91 c1 03 	lds	r22, 0x03C1
    64d6:	70 91 c2 03 	lds	r23, 0x03C2
    64da:	61 15       	cp	r22, r1
    64dc:	71 05       	cpc	r23, r1
    64de:	81 f4       	brne	.+32     	; 0x6500 <free+0x40>
    64e0:	20 81       	ld	r18, Z
    64e2:	31 81       	ldd	r19, Z+1	; 0x01
    64e4:	28 0f       	add	r18, r24
    64e6:	39 1f       	adc	r19, r25
    64e8:	80 91 bf 03 	lds	r24, 0x03BF
    64ec:	90 91 c0 03 	lds	r25, 0x03C0
    64f0:	82 17       	cp	r24, r18
    64f2:	93 07       	cpc	r25, r19
    64f4:	99 f5       	brne	.+102    	; 0x655c <free+0x9c>
    64f6:	f0 93 c0 03 	sts	0x03C0, r31
    64fa:	e0 93 bf 03 	sts	0x03BF, r30
    64fe:	76 c0       	rjmp	.+236    	; 0x65ec <free+0x12c>
    6500:	db 01       	movw	r26, r22
    6502:	80 e0       	ldi	r24, 0x00	; 0
    6504:	90 e0       	ldi	r25, 0x00	; 0
    6506:	02 c0       	rjmp	.+4      	; 0x650c <free+0x4c>
    6508:	cd 01       	movw	r24, r26
    650a:	d9 01       	movw	r26, r18
    650c:	ae 17       	cp	r26, r30
    650e:	bf 07       	cpc	r27, r31
    6510:	48 f4       	brcc	.+18     	; 0x6524 <free+0x64>
    6512:	12 96       	adiw	r26, 0x02	; 2
    6514:	2d 91       	ld	r18, X+
    6516:	3c 91       	ld	r19, X
    6518:	13 97       	sbiw	r26, 0x03	; 3
    651a:	21 15       	cp	r18, r1
    651c:	31 05       	cpc	r19, r1
    651e:	a1 f7       	brne	.-24     	; 0x6508 <free+0x48>
    6520:	cd 01       	movw	r24, r26
    6522:	21 c0       	rjmp	.+66     	; 0x6566 <free+0xa6>
    6524:	b3 83       	std	Z+3, r27	; 0x03
    6526:	a2 83       	std	Z+2, r26	; 0x02
    6528:	ef 01       	movw	r28, r30
    652a:	49 91       	ld	r20, Y+
    652c:	59 91       	ld	r21, Y+
    652e:	9e 01       	movw	r18, r28
    6530:	24 0f       	add	r18, r20
    6532:	35 1f       	adc	r19, r21
    6534:	a2 17       	cp	r26, r18
    6536:	b3 07       	cpc	r27, r19
    6538:	79 f4       	brne	.+30     	; 0x6558 <free+0x98>
    653a:	2d 91       	ld	r18, X+
    653c:	3c 91       	ld	r19, X
    653e:	11 97       	sbiw	r26, 0x01	; 1
    6540:	24 0f       	add	r18, r20
    6542:	35 1f       	adc	r19, r21
    6544:	2e 5f       	subi	r18, 0xFE	; 254
    6546:	3f 4f       	sbci	r19, 0xFF	; 255
    6548:	31 83       	std	Z+1, r19	; 0x01
    654a:	20 83       	st	Z, r18
    654c:	12 96       	adiw	r26, 0x02	; 2
    654e:	2d 91       	ld	r18, X+
    6550:	3c 91       	ld	r19, X
    6552:	13 97       	sbiw	r26, 0x03	; 3
    6554:	33 83       	std	Z+3, r19	; 0x03
    6556:	22 83       	std	Z+2, r18	; 0x02
    6558:	00 97       	sbiw	r24, 0x00	; 0
    655a:	29 f4       	brne	.+10     	; 0x6566 <free+0xa6>
    655c:	f0 93 c2 03 	sts	0x03C2, r31
    6560:	e0 93 c1 03 	sts	0x03C1, r30
    6564:	43 c0       	rjmp	.+134    	; 0x65ec <free+0x12c>
    6566:	dc 01       	movw	r26, r24
    6568:	13 96       	adiw	r26, 0x03	; 3
    656a:	fc 93       	st	X, r31
    656c:	ee 93       	st	-X, r30
    656e:	12 97       	sbiw	r26, 0x02	; 2
    6570:	4d 91       	ld	r20, X+
    6572:	5d 91       	ld	r21, X+
    6574:	a4 0f       	add	r26, r20
    6576:	b5 1f       	adc	r27, r21
    6578:	ea 17       	cp	r30, r26
    657a:	fb 07       	cpc	r31, r27
    657c:	69 f4       	brne	.+26     	; 0x6598 <free+0xd8>
    657e:	20 81       	ld	r18, Z
    6580:	31 81       	ldd	r19, Z+1	; 0x01
    6582:	24 0f       	add	r18, r20
    6584:	35 1f       	adc	r19, r21
    6586:	2e 5f       	subi	r18, 0xFE	; 254
    6588:	3f 4f       	sbci	r19, 0xFF	; 255
    658a:	ec 01       	movw	r28, r24
    658c:	39 83       	std	Y+1, r19	; 0x01
    658e:	28 83       	st	Y, r18
    6590:	22 81       	ldd	r18, Z+2	; 0x02
    6592:	33 81       	ldd	r19, Z+3	; 0x03
    6594:	3b 83       	std	Y+3, r19	; 0x03
    6596:	2a 83       	std	Y+2, r18	; 0x02
    6598:	e0 e0       	ldi	r30, 0x00	; 0
    659a:	f0 e0       	ldi	r31, 0x00	; 0
    659c:	02 c0       	rjmp	.+4      	; 0x65a2 <free+0xe2>
    659e:	fb 01       	movw	r30, r22
    65a0:	bc 01       	movw	r22, r24
    65a2:	db 01       	movw	r26, r22
    65a4:	12 96       	adiw	r26, 0x02	; 2
    65a6:	8d 91       	ld	r24, X+
    65a8:	9c 91       	ld	r25, X
    65aa:	13 97       	sbiw	r26, 0x03	; 3
    65ac:	00 97       	sbiw	r24, 0x00	; 0
    65ae:	b9 f7       	brne	.-18     	; 0x659e <free+0xde>
    65b0:	9b 01       	movw	r18, r22
    65b2:	2e 5f       	subi	r18, 0xFE	; 254
    65b4:	3f 4f       	sbci	r19, 0xFF	; 255
    65b6:	8d 91       	ld	r24, X+
    65b8:	9c 91       	ld	r25, X
    65ba:	11 97       	sbiw	r26, 0x01	; 1
    65bc:	82 0f       	add	r24, r18
    65be:	93 1f       	adc	r25, r19
    65c0:	40 91 bf 03 	lds	r20, 0x03BF
    65c4:	50 91 c0 03 	lds	r21, 0x03C0
    65c8:	48 17       	cp	r20, r24
    65ca:	59 07       	cpc	r21, r25
    65cc:	79 f4       	brne	.+30     	; 0x65ec <free+0x12c>
    65ce:	30 97       	sbiw	r30, 0x00	; 0
    65d0:	29 f4       	brne	.+10     	; 0x65dc <free+0x11c>
    65d2:	10 92 c2 03 	sts	0x03C2, r1
    65d6:	10 92 c1 03 	sts	0x03C1, r1
    65da:	02 c0       	rjmp	.+4      	; 0x65e0 <free+0x120>
    65dc:	13 82       	std	Z+3, r1	; 0x03
    65de:	12 82       	std	Z+2, r1	; 0x02
    65e0:	22 50       	subi	r18, 0x02	; 2
    65e2:	30 40       	sbci	r19, 0x00	; 0
    65e4:	30 93 c0 03 	sts	0x03C0, r19
    65e8:	20 93 bf 03 	sts	0x03BF, r18
    65ec:	df 91       	pop	r29
    65ee:	cf 91       	pop	r28
    65f0:	08 95       	ret

000065f2 <strnlen_P>:
    65f2:	fc 01       	movw	r30, r24
    65f4:	05 90       	lpm	r0, Z+
    65f6:	61 50       	subi	r22, 0x01	; 1
    65f8:	70 40       	sbci	r23, 0x00	; 0
    65fa:	01 10       	cpse	r0, r1
    65fc:	d8 f7       	brcc	.-10     	; 0x65f4 <strnlen_P+0x2>
    65fe:	80 95       	com	r24
    6600:	90 95       	com	r25
    6602:	8e 0f       	add	r24, r30
    6604:	9f 1f       	adc	r25, r31
    6606:	08 95       	ret

00006608 <memset>:
    6608:	dc 01       	movw	r26, r24
    660a:	01 c0       	rjmp	.+2      	; 0x660e <memset+0x6>
    660c:	6d 93       	st	X+, r22
    660e:	41 50       	subi	r20, 0x01	; 1
    6610:	50 40       	sbci	r21, 0x00	; 0
    6612:	e0 f7       	brcc	.-8      	; 0x660c <memset+0x4>
    6614:	08 95       	ret

00006616 <strnlen>:
    6616:	fc 01       	movw	r30, r24
    6618:	61 50       	subi	r22, 0x01	; 1
    661a:	70 40       	sbci	r23, 0x00	; 0
    661c:	01 90       	ld	r0, Z+
    661e:	01 10       	cpse	r0, r1
    6620:	d8 f7       	brcc	.-10     	; 0x6618 <strnlen+0x2>
    6622:	80 95       	com	r24
    6624:	90 95       	com	r25
    6626:	8e 0f       	add	r24, r30
    6628:	9f 1f       	adc	r25, r31
    662a:	08 95       	ret

0000662c <fputc>:
    662c:	0f 93       	push	r16
    662e:	1f 93       	push	r17
    6630:	cf 93       	push	r28
    6632:	df 93       	push	r29
    6634:	8c 01       	movw	r16, r24
    6636:	eb 01       	movw	r28, r22
    6638:	8b 81       	ldd	r24, Y+3	; 0x03
    663a:	81 ff       	sbrs	r24, 1
    663c:	1b c0       	rjmp	.+54     	; 0x6674 <fputc+0x48>
    663e:	82 ff       	sbrs	r24, 2
    6640:	0d c0       	rjmp	.+26     	; 0x665c <fputc+0x30>
    6642:	2e 81       	ldd	r18, Y+6	; 0x06
    6644:	3f 81       	ldd	r19, Y+7	; 0x07
    6646:	8c 81       	ldd	r24, Y+4	; 0x04
    6648:	9d 81       	ldd	r25, Y+5	; 0x05
    664a:	28 17       	cp	r18, r24
    664c:	39 07       	cpc	r19, r25
    664e:	64 f4       	brge	.+24     	; 0x6668 <fputc+0x3c>
    6650:	e8 81       	ld	r30, Y
    6652:	f9 81       	ldd	r31, Y+1	; 0x01
    6654:	01 93       	st	Z+, r16
    6656:	f9 83       	std	Y+1, r31	; 0x01
    6658:	e8 83       	st	Y, r30
    665a:	06 c0       	rjmp	.+12     	; 0x6668 <fputc+0x3c>
    665c:	e8 85       	ldd	r30, Y+8	; 0x08
    665e:	f9 85       	ldd	r31, Y+9	; 0x09
    6660:	80 2f       	mov	r24, r16
    6662:	09 95       	icall
    6664:	00 97       	sbiw	r24, 0x00	; 0
    6666:	31 f4       	brne	.+12     	; 0x6674 <fputc+0x48>
    6668:	8e 81       	ldd	r24, Y+6	; 0x06
    666a:	9f 81       	ldd	r25, Y+7	; 0x07
    666c:	01 96       	adiw	r24, 0x01	; 1
    666e:	9f 83       	std	Y+7, r25	; 0x07
    6670:	8e 83       	std	Y+6, r24	; 0x06
    6672:	02 c0       	rjmp	.+4      	; 0x6678 <fputc+0x4c>
    6674:	0f ef       	ldi	r16, 0xFF	; 255
    6676:	1f ef       	ldi	r17, 0xFF	; 255
    6678:	c8 01       	movw	r24, r16
    667a:	df 91       	pop	r29
    667c:	cf 91       	pop	r28
    667e:	1f 91       	pop	r17
    6680:	0f 91       	pop	r16
    6682:	08 95       	ret

00006684 <__ultoa_invert>:
    6684:	fa 01       	movw	r30, r20
    6686:	aa 27       	eor	r26, r26
    6688:	28 30       	cpi	r18, 0x08	; 8
    668a:	51 f1       	breq	.+84     	; 0x66e0 <__ultoa_invert+0x5c>
    668c:	20 31       	cpi	r18, 0x10	; 16
    668e:	81 f1       	breq	.+96     	; 0x66f0 <__ultoa_invert+0x6c>
    6690:	e8 94       	clt
    6692:	6f 93       	push	r22
    6694:	6e 7f       	andi	r22, 0xFE	; 254
    6696:	6e 5f       	subi	r22, 0xFE	; 254
    6698:	7f 4f       	sbci	r23, 0xFF	; 255
    669a:	8f 4f       	sbci	r24, 0xFF	; 255
    669c:	9f 4f       	sbci	r25, 0xFF	; 255
    669e:	af 4f       	sbci	r26, 0xFF	; 255
    66a0:	b1 e0       	ldi	r27, 0x01	; 1
    66a2:	3e d0       	rcall	.+124    	; 0x6720 <__ultoa_invert+0x9c>
    66a4:	b4 e0       	ldi	r27, 0x04	; 4
    66a6:	3c d0       	rcall	.+120    	; 0x6720 <__ultoa_invert+0x9c>
    66a8:	67 0f       	add	r22, r23
    66aa:	78 1f       	adc	r23, r24
    66ac:	89 1f       	adc	r24, r25
    66ae:	9a 1f       	adc	r25, r26
    66b0:	a1 1d       	adc	r26, r1
    66b2:	68 0f       	add	r22, r24
    66b4:	79 1f       	adc	r23, r25
    66b6:	8a 1f       	adc	r24, r26
    66b8:	91 1d       	adc	r25, r1
    66ba:	a1 1d       	adc	r26, r1
    66bc:	6a 0f       	add	r22, r26
    66be:	71 1d       	adc	r23, r1
    66c0:	81 1d       	adc	r24, r1
    66c2:	91 1d       	adc	r25, r1
    66c4:	a1 1d       	adc	r26, r1
    66c6:	20 d0       	rcall	.+64     	; 0x6708 <__ultoa_invert+0x84>
    66c8:	09 f4       	brne	.+2      	; 0x66cc <__ultoa_invert+0x48>
    66ca:	68 94       	set
    66cc:	3f 91       	pop	r19
    66ce:	2a e0       	ldi	r18, 0x0A	; 10
    66d0:	26 9f       	mul	r18, r22
    66d2:	11 24       	eor	r1, r1
    66d4:	30 19       	sub	r19, r0
    66d6:	30 5d       	subi	r19, 0xD0	; 208
    66d8:	31 93       	st	Z+, r19
    66da:	de f6       	brtc	.-74     	; 0x6692 <__ultoa_invert+0xe>
    66dc:	cf 01       	movw	r24, r30
    66de:	08 95       	ret
    66e0:	46 2f       	mov	r20, r22
    66e2:	47 70       	andi	r20, 0x07	; 7
    66e4:	40 5d       	subi	r20, 0xD0	; 208
    66e6:	41 93       	st	Z+, r20
    66e8:	b3 e0       	ldi	r27, 0x03	; 3
    66ea:	0f d0       	rcall	.+30     	; 0x670a <__ultoa_invert+0x86>
    66ec:	c9 f7       	brne	.-14     	; 0x66e0 <__ultoa_invert+0x5c>
    66ee:	f6 cf       	rjmp	.-20     	; 0x66dc <__ultoa_invert+0x58>
    66f0:	46 2f       	mov	r20, r22
    66f2:	4f 70       	andi	r20, 0x0F	; 15
    66f4:	40 5d       	subi	r20, 0xD0	; 208
    66f6:	4a 33       	cpi	r20, 0x3A	; 58
    66f8:	18 f0       	brcs	.+6      	; 0x6700 <__ultoa_invert+0x7c>
    66fa:	49 5d       	subi	r20, 0xD9	; 217
    66fc:	31 fd       	sbrc	r19, 1
    66fe:	40 52       	subi	r20, 0x20	; 32
    6700:	41 93       	st	Z+, r20
    6702:	02 d0       	rcall	.+4      	; 0x6708 <__ultoa_invert+0x84>
    6704:	a9 f7       	brne	.-22     	; 0x66f0 <__ultoa_invert+0x6c>
    6706:	ea cf       	rjmp	.-44     	; 0x66dc <__ultoa_invert+0x58>
    6708:	b4 e0       	ldi	r27, 0x04	; 4
    670a:	a6 95       	lsr	r26
    670c:	97 95       	ror	r25
    670e:	87 95       	ror	r24
    6710:	77 95       	ror	r23
    6712:	67 95       	ror	r22
    6714:	ba 95       	dec	r27
    6716:	c9 f7       	brne	.-14     	; 0x670a <__ultoa_invert+0x86>
    6718:	00 97       	sbiw	r24, 0x00	; 0
    671a:	61 05       	cpc	r22, r1
    671c:	71 05       	cpc	r23, r1
    671e:	08 95       	ret
    6720:	9b 01       	movw	r18, r22
    6722:	ac 01       	movw	r20, r24
    6724:	0a 2e       	mov	r0, r26
    6726:	06 94       	lsr	r0
    6728:	57 95       	ror	r21
    672a:	47 95       	ror	r20
    672c:	37 95       	ror	r19
    672e:	27 95       	ror	r18
    6730:	ba 95       	dec	r27
    6732:	c9 f7       	brne	.-14     	; 0x6726 <__ultoa_invert+0xa2>
    6734:	62 0f       	add	r22, r18
    6736:	73 1f       	adc	r23, r19
    6738:	84 1f       	adc	r24, r20
    673a:	95 1f       	adc	r25, r21
    673c:	a0 1d       	adc	r26, r0
    673e:	08 95       	ret

00006740 <__eerd_block_m32a>:
    6740:	dc 01       	movw	r26, r24
    6742:	cb 01       	movw	r24, r22

00006744 <__eerd_blraw_m32a>:
    6744:	fc 01       	movw	r30, r24
    6746:	e1 99       	sbic	0x1c, 1	; 28
    6748:	fe cf       	rjmp	.-4      	; 0x6746 <__eerd_blraw_m32a+0x2>
    674a:	06 c0       	rjmp	.+12     	; 0x6758 <__eerd_blraw_m32a+0x14>
    674c:	ff bb       	out	0x1f, r31	; 31
    674e:	ee bb       	out	0x1e, r30	; 30
    6750:	e0 9a       	sbi	0x1c, 0	; 28
    6752:	31 96       	adiw	r30, 0x01	; 1
    6754:	0d b2       	in	r0, 0x1d	; 29
    6756:	0d 92       	st	X+, r0
    6758:	41 50       	subi	r20, 0x01	; 1
    675a:	50 40       	sbci	r21, 0x00	; 0
    675c:	b8 f7       	brcc	.-18     	; 0x674c <__eerd_blraw_m32a+0x8>
    675e:	08 95       	ret

00006760 <__prologue_saves__>:
    6760:	2f 92       	push	r2
    6762:	3f 92       	push	r3
    6764:	4f 92       	push	r4
    6766:	5f 92       	push	r5
    6768:	6f 92       	push	r6
    676a:	7f 92       	push	r7
    676c:	8f 92       	push	r8
    676e:	9f 92       	push	r9
    6770:	af 92       	push	r10
    6772:	bf 92       	push	r11
    6774:	cf 92       	push	r12
    6776:	df 92       	push	r13
    6778:	ef 92       	push	r14
    677a:	ff 92       	push	r15
    677c:	0f 93       	push	r16
    677e:	1f 93       	push	r17
    6780:	cf 93       	push	r28
    6782:	df 93       	push	r29
    6784:	cd b7       	in	r28, 0x3d	; 61
    6786:	de b7       	in	r29, 0x3e	; 62
    6788:	ca 1b       	sub	r28, r26
    678a:	db 0b       	sbc	r29, r27
    678c:	0f b6       	in	r0, 0x3f	; 63
    678e:	f8 94       	cli
    6790:	de bf       	out	0x3e, r29	; 62
    6792:	0f be       	out	0x3f, r0	; 63
    6794:	cd bf       	out	0x3d, r28	; 61
    6796:	09 94       	ijmp

00006798 <__epilogue_restores__>:
    6798:	2a 88       	ldd	r2, Y+18	; 0x12
    679a:	39 88       	ldd	r3, Y+17	; 0x11
    679c:	48 88       	ldd	r4, Y+16	; 0x10
    679e:	5f 84       	ldd	r5, Y+15	; 0x0f
    67a0:	6e 84       	ldd	r6, Y+14	; 0x0e
    67a2:	7d 84       	ldd	r7, Y+13	; 0x0d
    67a4:	8c 84       	ldd	r8, Y+12	; 0x0c
    67a6:	9b 84       	ldd	r9, Y+11	; 0x0b
    67a8:	aa 84       	ldd	r10, Y+10	; 0x0a
    67aa:	b9 84       	ldd	r11, Y+9	; 0x09
    67ac:	c8 84       	ldd	r12, Y+8	; 0x08
    67ae:	df 80       	ldd	r13, Y+7	; 0x07
    67b0:	ee 80       	ldd	r14, Y+6	; 0x06
    67b2:	fd 80       	ldd	r15, Y+5	; 0x05
    67b4:	0c 81       	ldd	r16, Y+4	; 0x04
    67b6:	1b 81       	ldd	r17, Y+3	; 0x03
    67b8:	aa 81       	ldd	r26, Y+2	; 0x02
    67ba:	b9 81       	ldd	r27, Y+1	; 0x01
    67bc:	ce 0f       	add	r28, r30
    67be:	d1 1d       	adc	r29, r1
    67c0:	0f b6       	in	r0, 0x3f	; 63
    67c2:	f8 94       	cli
    67c4:	de bf       	out	0x3e, r29	; 62
    67c6:	0f be       	out	0x3f, r0	; 63
    67c8:	cd bf       	out	0x3d, r28	; 61
    67ca:	ed 01       	movw	r28, r26
    67cc:	08 95       	ret

000067ce <_exit>:
    67ce:	f8 94       	cli

000067d0 <__stop_program>:
    67d0:	ff cf       	rjmp	.-2      	; 0x67d0 <__stop_program>
